
blink_exe:     file format elf32-littlearm


Disassembly of section .startup_code:

00008000 <_start>:
    8000:	e59f3018 	ldr	r3, [pc, #24]	; 8020 <StartupBootMode>
    8004:	e10f0000 	mrs	r0, CPSR
    8008:	e200001f 	and	r0, r0, #31
    800c:	e5830000 	str	r0, [r3]
    8010:	e59f300c 	ldr	r3, [pc, #12]	; 8024 <StartupBootVectors>
    8014:	ee1c0f10 	mrc	15, 0, r0, cr12, cr0, {0}
    8018:	e5830000 	str	r0, [r3]
    801c:	ea000001 	b	8028 <_start_end>

00008020 <StartupBootMode>:
    8020:	00000000 	andeq	r0, r0, r0

00008024 <StartupBootVectors>:
    8024:	00000000 	andeq	r0, r0, r0

00008028 <_start_end>:
    8028:	eb000016 	bl	8088 <setupStacks_end>
    802c:	e59f036c 	ldr	r0, [pc, #876]	; 83a0 <GETVBAR+0x8>
    8030:	e123f300 	msr	SP_svc, r0
    8034:	eb00001f 	bl	80b8 <startupSecureMode>
    8038:	eb00003e 	bl	8138 <ARMv7InvalidateCache>
    803c:	eb00004c 	bl	8174 <ARMv7InvalidateTLB>
    8040:	eb00000a 	bl	8070 <setupStacks>
    8044:	eb00002f 	bl	8108 <startupSecureMode_end>
    8048:	f10e00df 	cpsid	if,#31
    804c:	e3a00a01 	mov	r0, #4096	; 0x1000
    8050:	e59f134c 	ldr	r1, [pc, #844]	; 83a4 <GETVBAR+0xc>
    8054:	e8b103fc 	ldm	r1!, {r2, r3, r4, r5, r6, r7, r8, r9}
    8058:	e8a003fc 	stmia	r0!, {r2, r3, r4, r5, r6, r7, r8, r9}
    805c:	e8b103fc 	ldm	r1!, {r2, r3, r4, r5, r6, r7, r8, r9}
    8060:	e8a003fc 	stmia	r0!, {r2, r3, r4, r5, r6, r7, r8, r9}
    8064:	e3a00a01 	mov	r0, #4096	; 0x1000
    8068:	ee0c0f10 	mcr	15, 0, r0, cr12, cr0, {0}
    806c:	eb000205 	bl	8888 <tpl_armv7_bootstrap_stage2>

00008070 <setupStacks>:
    8070:	e59f0330 	ldr	r0, [pc, #816]	; 83a8 <GETVBAR+0x10>
    8074:	e121f300 	msr	SP_irq, r0
    8078:	e59f0320 	ldr	r0, [pc, #800]	; 83a0 <GETVBAR+0x8>
    807c:	e123f300 	msr	SP_svc, r0
    8080:	e59f0324 	ldr	r0, [pc, #804]	; 83ac <GETVBAR+0x14>
    8084:	e125f200 	msr	SP_usr, r0

00008088 <setupStacks_end>:
    8088:	e10f0000 	mrs	r0, CPSR
    808c:	e220001a 	eor	r0, r0, #26
    8090:	e310001f 	tst	r0, #31
    8094:	e3c0001f 	bic	r0, r0, #31
    8098:	e38000d3 	orr	r0, r0, #211	; 0xd3
    809c:	1a000003 	bne	80b0 <startupSwitchMode_noSwitch>
    80a0:	e3800c01 	orr	r0, r0, #256	; 0x100
    80a4:	e16ff000 	msr	SPSR_fsxc, r0
    80a8:	e12ef30e 	msr	ELR_hyp, lr
    80ac:	e160006e 	eret

000080b0 <startupSwitchMode_noSwitch>:
    80b0:	e121f000 	msr	CPSR_c, r0
    80b4:	e12fff1e 	bx	lr

000080b8 <startupSecureMode>:
    80b8:	e3a00001 	mov	r0, #1
    80bc:	e3500000 	cmp	r0, #0
    80c0:	0a00000f 	beq	8104 <startupSecureMode_noSecure>
    80c4:	ee1c0f10 	mrc	15, 0, r0, cr12, cr0, {0}
    80c8:	e59f12e0 	ldr	r1, [pc, #736]	; 83b0 <GETVBAR+0x18>
    80cc:	e8b103fc 	ldm	r1!, {r2, r3, r4, r5, r6, r7, r8, r9}
    80d0:	e8a003fc 	stmia	r0!, {r2, r3, r4, r5, r6, r7, r8, r9}
    80d4:	e8b103fc 	ldm	r1!, {r2, r3, r4, r5, r6, r7, r8, r9}
    80d8:	e8a003fc 	stmia	r0!, {r2, r3, r4, r5, r6, r7, r8, r9}
    80dc:	e3a0c000 	mov	ip, #0
    80e0:	ee07cf3a 	mcr	15, 0, ip, cr7, cr10, {1}
    80e4:	f57ff04f 	dsb	sy
    80e8:	e3a0c000 	mov	ip, #0
    80ec:	ee07cf15 	mcr	15, 0, ip, cr7, cr5, {0}
    80f0:	e3a0c000 	mov	ip, #0
    80f4:	ee07cfd5 	mcr	15, 0, ip, cr7, cr5, {6}
    80f8:	f57ff04f 	dsb	sy
    80fc:	f57ff06f 	isb	sy
    8100:	e1600070 	smc	0

00008104 <startupSecureMode_noSecure>:
    8104:	e12fff1e 	bx	lr

00008108 <startupSecureMode_end>:
    8108:	f10e00df 	cpsid	if,#31
    810c:	e3a00a01 	mov	r0, #4096	; 0x1000
    8110:	e59f128c 	ldr	r1, [pc, #652]	; 83a4 <GETVBAR+0xc>
    8114:	e8b103fc 	ldm	r1!, {r2, r3, r4, r5, r6, r7, r8, r9}
    8118:	e8a003fc 	stmia	r0!, {r2, r3, r4, r5, r6, r7, r8, r9}
    811c:	e8b103fc 	ldm	r1!, {r2, r3, r4, r5, r6, r7, r8, r9}
    8120:	e8a003fc 	stmia	r0!, {r2, r3, r4, r5, r6, r7, r8, r9}
    8124:	e3a00a01 	mov	r0, #4096	; 0x1000
    8128:	ee0c0f10 	mcr	15, 0, r0, cr12, cr0, {0}
    812c:	e12fff1e 	bx	lr

00008130 <switchToSysMode_end>:
    8130:	f10c00c0 	cpsid	if
    8134:	f102001f 	cps	#31

00008138 <ARMv7InvalidateCache>:
    8138:	ee100fb0 	mrc	15, 0, r0, cr0, cr0, {5}
    813c:	e2001102 	and	r1, r0, #-2147483648	; 0x80000000
    8140:	e3510000 	cmp	r1, #0
    8144:	0a000006 	beq	8164 <ARMv7InvalidateCache_LUniprocessor>
    8148:	e2001101 	and	r1, r0, #1073741824	; 0x40000000
    814c:	e3510000 	cmp	r1, #0
    8150:	1a000003 	bne	8164 <ARMv7InvalidateCache_LUniprocessor>
    8154:	e3a0c000 	mov	ip, #0
    8158:	ee07cf11 	mcr	15, 0, ip, cr7, cr1, {0}
    815c:	f57ff04f 	dsb	sy
    8160:	ea000011 	b	81ac <ARMv7InvalidateDataCache>

00008164 <ARMv7InvalidateCache_LUniprocessor>:
    8164:	e3a0c000 	mov	ip, #0
    8168:	ee07cf15 	mcr	15, 0, ip, cr7, cr5, {0}
    816c:	f57ff04f 	dsb	sy
    8170:	ea00000d 	b	81ac <ARMv7InvalidateDataCache>

00008174 <ARMv7InvalidateTLB>:
    8174:	ee100fb0 	mrc	15, 0, r0, cr0, cr0, {5}
    8178:	e2001102 	and	r1, r0, #-2147483648	; 0x80000000
    817c:	e3510000 	cmp	r1, #0
    8180:	0a000006 	beq	81a0 <ARMv7InvalidateTLB_LUniprocessor>
    8184:	e2001101 	and	r1, r0, #1073741824	; 0x40000000
    8188:	e3510000 	cmp	r1, #0
    818c:	1a000003 	bne	81a0 <ARMv7InvalidateTLB_LUniprocessor>
    8190:	e3a0c000 	mov	ip, #0
    8194:	ee08cf13 	mcr	15, 0, ip, cr8, cr3, {0}
    8198:	f57ff04f 	dsb	sy
    819c:	e12fff1e 	bx	lr

000081a0 <ARMv7InvalidateTLB_LUniprocessor>:
    81a0:	e3a0c000 	mov	ip, #0
    81a4:	ee08cf17 	mcr	15, 0, ip, cr8, cr7, {0}
    81a8:	f57ff04f 	dsb	sy

000081ac <ARMv7InvalidateDataCache>:
    81ac:	ee300f30 	mrc	15, 1, r0, cr0, cr0, {1}
    81b0:	e3100407 	tst	r0, #117440512	; 0x7000000
    81b4:	0a000025 	beq	8250 <ARMv7InvalidateDataCache_LDone>
    81b8:	e3a03000 	mov	r3, #0

000081bc <ARMv7InvalidateDataCache_LStart>:
    81bc:	e08320a3 	add	r2, r3, r3, lsr #1
    81c0:	e1a01230 	lsr	r1, r0, r2
    81c4:	e3110006 	tst	r1, #6
    81c8:	0a00001a 	beq	8238 <ARMv7InvalidateDataCache_LNext>
    81cc:	ee403f10 	mcr	15, 2, r3, cr0, cr0, {0}
    81d0:	f57ff06f 	isb	sy
    81d4:	ee300f10 	mrc	15, 1, r0, cr0, cr0, {0}
    81d8:	e7e2c050 	ubfx	ip, r0, #0, #3
    81dc:	e28cc004 	add	ip, ip, #4
    81e0:	e7ee26d0 	ubfx	r2, r0, #13, #15
    81e4:	e1a02c12 	lsl	r2, r2, ip
    81e8:	e1833002 	orr	r3, r3, r2
    81ec:	e3a01001 	mov	r1, #1
    81f0:	e1a01c11 	lsl	r1, r1, ip
    81f4:	e7e9c1d0 	ubfx	ip, r0, #3, #10
    81f8:	e16f2f1c 	clz	r2, ip
    81fc:	e1a0c21c 	lsl	ip, ip, r2
    8200:	e3a00001 	mov	r0, #1
    8204:	e1a02210 	lsl	r2, r0, r2
    8208:	e1a00003 	mov	r0, r3
    820c:	e183300c 	orr	r3, r3, ip
    8210:	e7c3001f 	bfc	r0, #0, #4
    8214:	e0422000 	sub	r2, r2, r0

00008218 <ARMv7InvalidateDataCache_LLoop>:
    8218:	ee073f56 	mcr	15, 0, r3, cr7, cr6, {2}
    821c:	e353000f 	cmp	r3, #15
    8220:	9a000004 	bls	8238 <ARMv7InvalidateDataCache_LNext>
    8224:	e7f10253 	ubfx	r0, r3, #4, #18
    8228:	e3500000 	cmp	r0, #0
    822c:	10433001 	subne	r3, r3, r1
    8230:	00433002 	subeq	r3, r3, r2
    8234:	eafffff7 	b	8218 <ARMv7InvalidateDataCache_LLoop>

00008238 <ARMv7InvalidateDataCache_LNext>:
    8238:	f57ff04f 	dsb	sy
    823c:	ee300f30 	mrc	15, 1, r0, cr0, cr0, {1}
    8240:	e7e2cc50 	ubfx	ip, r0, #24, #3
    8244:	e2833002 	add	r3, r3, #2
    8248:	e153008c 	cmp	r3, ip, lsl #1
    824c:	baffffda 	blt	81bc <ARMv7InvalidateDataCache_LStart>

00008250 <ARMv7InvalidateDataCache_LDone>:
    8250:	e3a00000 	mov	r0, #0
    8254:	ee400f10 	mcr	15, 2, r0, cr0, cr0, {0}
    8258:	f57ff04f 	dsb	sy
    825c:	f57ff06f 	isb	sy

00008260 <reset_handler>:
    8260:	e12fff1e 	bx	lr

00008264 <undefined_handler>:
    8264:	e92d5fff 	push	{r0, r1, r2, r3, r4, r5, r6, r7, r8, r9, sl, fp, ip, lr}
    8268:	eb000051 	bl	83b4 <c_undefined_handler>
    826c:	e8bd5fff 	pop	{r0, r1, r2, r3, r4, r5, r6, r7, r8, r9, sl, fp, ip, lr}
    8270:	e25ef004 	subs	pc, lr, #4

00008274 <prefetch_handler>:
    8274:	e92d5fff 	push	{r0, r1, r2, r3, r4, r5, r6, r7, r8, r9, sl, fp, ip, lr}
    8278:	eb000079 	bl	8464 <c_prefetch_handler>
    827c:	e8bd5fff 	pop	{r0, r1, r2, r3, r4, r5, r6, r7, r8, r9, sl, fp, ip, lr}
    8280:	e25ef004 	subs	pc, lr, #4

00008284 <data_handler>:
    8284:	e92d5fff 	push	{r0, r1, r2, r3, r4, r5, r6, r7, r8, r9, sl, fp, ip, lr}
    8288:	eb0000a1 	bl	8514 <c_data_handler>
    828c:	e8bd5fff 	pop	{r0, r1, r2, r3, r4, r5, r6, r7, r8, r9, sl, fp, ip, lr}
    8290:	e25ef008 	subs	pc, lr, #8

00008294 <reserved_handler>:
    8294:	e92d5fff 	push	{r0, r1, r2, r3, r4, r5, r6, r7, r8, r9, sl, fp, ip, lr}
    8298:	eb0000c9 	bl	85c4 <c_reserved_handler>
    829c:	e8bd5fff 	pop	{r0, r1, r2, r3, r4, r5, r6, r7, r8, r9, sl, fp, ip, lr}
    82a0:	e25ef004 	subs	pc, lr, #4

000082a4 <fiq_handler>:
    82a4:	e92d5fff 	push	{r0, r1, r2, r3, r4, r5, r6, r7, r8, r9, sl, fp, ip, lr}
    82a8:	eb0000f1 	bl	8674 <c_fiq_handler>
    82ac:	e8bd5fff 	pop	{r0, r1, r2, r3, r4, r5, r6, r7, r8, r9, sl, fp, ip, lr}
    82b0:	e25ef004 	subs	pc, lr, #4

000082b4 <smc_handler>:
    82b4:	ee111f11 	mrc	15, 0, r1, cr1, cr1, {0}
    82b8:	e3c11001 	bic	r1, r1, #1
    82bc:	ee011f11 	mcr	15, 0, r1, cr1, cr1, {0}
    82c0:	e1b0f00e 	movs	pc, lr

000082c4 <dummy>:
    82c4:	e12fff1e 	bx	lr

000082c8 <enable_irq>:
    82c8:	e10f0000 	mrs	r0, CPSR
    82cc:	e3c00080 	bic	r0, r0, #128	; 0x80
    82d0:	e121f000 	msr	CPSR_c, r0
    82d4:	e12fff1e 	bx	lr

000082d8 <svc_handler>:
    82d8:	e92d5fff 	push	{r0, r1, r2, r3, r4, r5, r6, r7, r8, r9, sl, fp, ip, lr}
    82dc:	eb000f95 	bl	c138 <tpl_primary_syscall_handler>
    82e0:	e8bd5fff 	pop	{r0, r1, r2, r3, r4, r5, r6, r7, r8, r9, sl, fp, ip, lr}
    82e4:	e25ef000 	subs	pc, lr, #0

000082e8 <GETR0>:
    82e8:	e1a00000 	nop			; (mov r0, r0)
    82ec:	e12fff1e 	bx	lr

000082f0 <GETR1>:
    82f0:	e1a00001 	mov	r0, r1
    82f4:	e12fff1e 	bx	lr

000082f8 <GETR2>:
    82f8:	e1a00002 	mov	r0, r2
    82fc:	e12fff1e 	bx	lr

00008300 <GETR3>:
    8300:	e1a00003 	mov	r0, r3
    8304:	e12fff1e 	bx	lr

00008308 <GETR4>:
    8308:	e1a00004 	mov	r0, r4
    830c:	e12fff1e 	bx	lr

00008310 <GETR5>:
    8310:	e1a00005 	mov	r0, r5
    8314:	e12fff1e 	bx	lr

00008318 <GETR6>:
    8318:	e1a00006 	mov	r0, r6
    831c:	e12fff1e 	bx	lr

00008320 <GETR7>:
    8320:	e1a00007 	mov	r0, r7
    8324:	e12fff1e 	bx	lr

00008328 <GETR8>:
    8328:	e1a00008 	mov	r0, r8
    832c:	e12fff1e 	bx	lr

00008330 <GETR9>:
    8330:	e1a00009 	mov	r0, r9
    8334:	e12fff1e 	bx	lr

00008338 <GETR10>:
    8338:	e1a0000a 	mov	r0, sl
    833c:	e12fff1e 	bx	lr

00008340 <GETR11>:
    8340:	e1a0000b 	mov	r0, fp
    8344:	e12fff1e 	bx	lr

00008348 <GETR12>:
    8348:	e1a0000c 	mov	r0, ip
    834c:	e12fff1e 	bx	lr

00008350 <GETSP>:
    8350:	e1a0000d 	mov	r0, sp
    8354:	e12fff1e 	bx	lr

00008358 <GETLR>:
    8358:	e1a0000e 	mov	r0, lr
    835c:	e12fff1e 	bx	lr

00008360 <GETPC>:
    8360:	e1a0000f 	mov	r0, pc
    8364:	e12fff1e 	bx	lr

00008368 <GETSP_usr>:
    8368:	e1050200 	mrs	r0, SP_usr
    836c:	e12fff1e 	bx	lr

00008370 <GETSP_irq>:
    8370:	e1010300 	mrs	r0, SP_irq
    8374:	e12fff1e 	bx	lr

00008378 <GETSPIRQ>:
    8378:	e1010300 	mrs	r0, SP_irq
    837c:	e12fff1e 	bx	lr

00008380 <GETSPSVC>:
    8380:	e1030300 	mrs	r0, SP_svc
    8384:	e12fff1e 	bx	lr

00008388 <GETCPSR>:
    8388:	e10f0000 	mrs	r0, CPSR
    838c:	e12fff1e 	bx	lr

00008390 <GETISR>:
    8390:	ee1c0f11 	mrc	15, 0, r0, cr12, cr1, {0}
    8394:	e12fff1e 	bx	lr

00008398 <GETVBAR>:
    8398:	ee1c0f10 	mrc	15, 0, r0, cr12, cr0, {0}
    839c:	e12fff1e 	bx	lr
    83a0:	0005f480 	andeq	pc, r5, r0, lsl #9
    83a4:	0000e640 	andeq	lr, r0, r0, asr #12
    83a8:	0005ec80 	andeq	lr, r5, r0, lsl #25
    83ac:	0005fa80 	andeq	pc, r5, r0, lsl #21
    83b0:	0000e618 	andeq	lr, r0, r8, lsl r6

Disassembly of section .text:

000083b4 <c_undefined_handler>:
    83b4:	e92d4800 	push	{fp, lr}
    83b8:	e28db004 	add	fp, sp, #4
    83bc:	e30901a8 	movw	r0, #37288	; 0x91a8
    83c0:	e3400000 	movt	r0, #0
    83c4:	eb0002c1 	bl	8ed0 <uart_write_string>
    83c8:	e30901b4 	movw	r0, #37300	; 0x91b4
    83cc:	e3400000 	movt	r0, #0
    83d0:	eb0002be 	bl	8ed0 <uart_write_string>
    83d4:	ebffffdd 	bl	8350 <GETSP>
    83d8:	e1a03000 	mov	r3, r0
    83dc:	e1a00003 	mov	r0, r3
    83e0:	eb000304 	bl	8ff8 <hexstring>
    83e4:	e30901bc 	movw	r0, #37308	; 0x91bc
    83e8:	e3400000 	movt	r0, #0
    83ec:	eb0002b7 	bl	8ed0 <uart_write_string>
    83f0:	ebffffe0 	bl	8378 <GETSPIRQ>
    83f4:	e1a03000 	mov	r3, r0
    83f8:	e1a00003 	mov	r0, r3
    83fc:	eb0002fd 	bl	8ff8 <hexstring>
    8400:	e30901c8 	movw	r0, #37320	; 0x91c8
    8404:	e3400000 	movt	r0, #0
    8408:	eb0002b0 	bl	8ed0 <uart_write_string>
    840c:	ebffffdb 	bl	8380 <GETSPSVC>
    8410:	e1a03000 	mov	r3, r0
    8414:	e1a00003 	mov	r0, r3
    8418:	eb0002f6 	bl	8ff8 <hexstring>
    841c:	e30901d4 	movw	r0, #37332	; 0x91d4
    8420:	e3400000 	movt	r0, #0
    8424:	eb0002a9 	bl	8ed0 <uart_write_string>
    8428:	ebffffd8 	bl	8390 <GETISR>
    842c:	e1a03000 	mov	r3, r0
    8430:	e1a00003 	mov	r0, r3
    8434:	eb0002ef 	bl	8ff8 <hexstring>
    8438:	e30901dc 	movw	r0, #37340	; 0x91dc
    843c:	e3400000 	movt	r0, #0
    8440:	eb0002a2 	bl	8ed0 <uart_write_string>
    8444:	ebffffcf 	bl	8388 <GETCPSR>
    8448:	e1a03000 	mov	r3, r0
    844c:	e1a00003 	mov	r0, r3
    8450:	eb0002e8 	bl	8ff8 <hexstring>
    8454:	e30901e4 	movw	r0, #37348	; 0x91e4
    8458:	e3400000 	movt	r0, #0
    845c:	eb00029b 	bl	8ed0 <uart_write_string>
    8460:	eafffffe 	b	8460 <c_undefined_handler+0xac>

00008464 <c_prefetch_handler>:
    8464:	e92d4800 	push	{fp, lr}
    8468:	e28db004 	add	fp, sp, #4
    846c:	e30901e8 	movw	r0, #37352	; 0x91e8
    8470:	e3400000 	movt	r0, #0
    8474:	eb000295 	bl	8ed0 <uart_write_string>
    8478:	e30901b4 	movw	r0, #37300	; 0x91b4
    847c:	e3400000 	movt	r0, #0
    8480:	eb000292 	bl	8ed0 <uart_write_string>
    8484:	ebffffb1 	bl	8350 <GETSP>
    8488:	e1a03000 	mov	r3, r0
    848c:	e1a00003 	mov	r0, r3
    8490:	eb0002d8 	bl	8ff8 <hexstring>
    8494:	e30901bc 	movw	r0, #37308	; 0x91bc
    8498:	e3400000 	movt	r0, #0
    849c:	eb00028b 	bl	8ed0 <uart_write_string>
    84a0:	ebffffb4 	bl	8378 <GETSPIRQ>
    84a4:	e1a03000 	mov	r3, r0
    84a8:	e1a00003 	mov	r0, r3
    84ac:	eb0002d1 	bl	8ff8 <hexstring>
    84b0:	e30901c8 	movw	r0, #37320	; 0x91c8
    84b4:	e3400000 	movt	r0, #0
    84b8:	eb000284 	bl	8ed0 <uart_write_string>
    84bc:	ebffffaf 	bl	8380 <GETSPSVC>
    84c0:	e1a03000 	mov	r3, r0
    84c4:	e1a00003 	mov	r0, r3
    84c8:	eb0002ca 	bl	8ff8 <hexstring>
    84cc:	e30901d4 	movw	r0, #37332	; 0x91d4
    84d0:	e3400000 	movt	r0, #0
    84d4:	eb00027d 	bl	8ed0 <uart_write_string>
    84d8:	ebffffac 	bl	8390 <GETISR>
    84dc:	e1a03000 	mov	r3, r0
    84e0:	e1a00003 	mov	r0, r3
    84e4:	eb0002c3 	bl	8ff8 <hexstring>
    84e8:	e30901dc 	movw	r0, #37340	; 0x91dc
    84ec:	e3400000 	movt	r0, #0
    84f0:	eb000276 	bl	8ed0 <uart_write_string>
    84f4:	ebffffa3 	bl	8388 <GETCPSR>
    84f8:	e1a03000 	mov	r3, r0
    84fc:	e1a00003 	mov	r0, r3
    8500:	eb0002bc 	bl	8ff8 <hexstring>
    8504:	e30901e4 	movw	r0, #37348	; 0x91e4
    8508:	e3400000 	movt	r0, #0
    850c:	eb00026f 	bl	8ed0 <uart_write_string>
    8510:	eafffffe 	b	8510 <c_prefetch_handler+0xac>

00008514 <c_data_handler>:
    8514:	e92d4800 	push	{fp, lr}
    8518:	e28db004 	add	fp, sp, #4
    851c:	e30901f4 	movw	r0, #37364	; 0x91f4
    8520:	e3400000 	movt	r0, #0
    8524:	eb000269 	bl	8ed0 <uart_write_string>
    8528:	e30901b4 	movw	r0, #37300	; 0x91b4
    852c:	e3400000 	movt	r0, #0
    8530:	eb000266 	bl	8ed0 <uart_write_string>
    8534:	ebffff85 	bl	8350 <GETSP>
    8538:	e1a03000 	mov	r3, r0
    853c:	e1a00003 	mov	r0, r3
    8540:	eb0002ac 	bl	8ff8 <hexstring>
    8544:	e30901bc 	movw	r0, #37308	; 0x91bc
    8548:	e3400000 	movt	r0, #0
    854c:	eb00025f 	bl	8ed0 <uart_write_string>
    8550:	ebffff88 	bl	8378 <GETSPIRQ>
    8554:	e1a03000 	mov	r3, r0
    8558:	e1a00003 	mov	r0, r3
    855c:	eb0002a5 	bl	8ff8 <hexstring>
    8560:	e30901c8 	movw	r0, #37320	; 0x91c8
    8564:	e3400000 	movt	r0, #0
    8568:	eb000258 	bl	8ed0 <uart_write_string>
    856c:	ebffff83 	bl	8380 <GETSPSVC>
    8570:	e1a03000 	mov	r3, r0
    8574:	e1a00003 	mov	r0, r3
    8578:	eb00029e 	bl	8ff8 <hexstring>
    857c:	e30901d4 	movw	r0, #37332	; 0x91d4
    8580:	e3400000 	movt	r0, #0
    8584:	eb000251 	bl	8ed0 <uart_write_string>
    8588:	ebffff80 	bl	8390 <GETISR>
    858c:	e1a03000 	mov	r3, r0
    8590:	e1a00003 	mov	r0, r3
    8594:	eb000297 	bl	8ff8 <hexstring>
    8598:	e30901dc 	movw	r0, #37340	; 0x91dc
    859c:	e3400000 	movt	r0, #0
    85a0:	eb00024a 	bl	8ed0 <uart_write_string>
    85a4:	ebffff77 	bl	8388 <GETCPSR>
    85a8:	e1a03000 	mov	r3, r0
    85ac:	e1a00003 	mov	r0, r3
    85b0:	eb000290 	bl	8ff8 <hexstring>
    85b4:	e30901e4 	movw	r0, #37348	; 0x91e4
    85b8:	e3400000 	movt	r0, #0
    85bc:	eb000243 	bl	8ed0 <uart_write_string>
    85c0:	eafffffe 	b	85c0 <c_data_handler+0xac>

000085c4 <c_reserved_handler>:
    85c4:	e92d4800 	push	{fp, lr}
    85c8:	e28db004 	add	fp, sp, #4
    85cc:	e30901fc 	movw	r0, #37372	; 0x91fc
    85d0:	e3400000 	movt	r0, #0
    85d4:	eb00023d 	bl	8ed0 <uart_write_string>
    85d8:	e30901b4 	movw	r0, #37300	; 0x91b4
    85dc:	e3400000 	movt	r0, #0
    85e0:	eb00023a 	bl	8ed0 <uart_write_string>
    85e4:	ebffff59 	bl	8350 <GETSP>
    85e8:	e1a03000 	mov	r3, r0
    85ec:	e1a00003 	mov	r0, r3
    85f0:	eb000280 	bl	8ff8 <hexstring>
    85f4:	e30901bc 	movw	r0, #37308	; 0x91bc
    85f8:	e3400000 	movt	r0, #0
    85fc:	eb000233 	bl	8ed0 <uart_write_string>
    8600:	ebffff5c 	bl	8378 <GETSPIRQ>
    8604:	e1a03000 	mov	r3, r0
    8608:	e1a00003 	mov	r0, r3
    860c:	eb000279 	bl	8ff8 <hexstring>
    8610:	e30901c8 	movw	r0, #37320	; 0x91c8
    8614:	e3400000 	movt	r0, #0
    8618:	eb00022c 	bl	8ed0 <uart_write_string>
    861c:	ebffff57 	bl	8380 <GETSPSVC>
    8620:	e1a03000 	mov	r3, r0
    8624:	e1a00003 	mov	r0, r3
    8628:	eb000272 	bl	8ff8 <hexstring>
    862c:	e30901d4 	movw	r0, #37332	; 0x91d4
    8630:	e3400000 	movt	r0, #0
    8634:	eb000225 	bl	8ed0 <uart_write_string>
    8638:	ebffff54 	bl	8390 <GETISR>
    863c:	e1a03000 	mov	r3, r0
    8640:	e1a00003 	mov	r0, r3
    8644:	eb00026b 	bl	8ff8 <hexstring>
    8648:	e30901dc 	movw	r0, #37340	; 0x91dc
    864c:	e3400000 	movt	r0, #0
    8650:	eb00021e 	bl	8ed0 <uart_write_string>
    8654:	ebffff4b 	bl	8388 <GETCPSR>
    8658:	e1a03000 	mov	r3, r0
    865c:	e1a00003 	mov	r0, r3
    8660:	eb000264 	bl	8ff8 <hexstring>
    8664:	e30901e4 	movw	r0, #37348	; 0x91e4
    8668:	e3400000 	movt	r0, #0
    866c:	eb000217 	bl	8ed0 <uart_write_string>
    8670:	eafffffe 	b	8670 <c_reserved_handler+0xac>

00008674 <c_fiq_handler>:
    8674:	e92d4800 	push	{fp, lr}
    8678:	e28db004 	add	fp, sp, #4
    867c:	e3090208 	movw	r0, #37384	; 0x9208
    8680:	e3400000 	movt	r0, #0
    8684:	eb000211 	bl	8ed0 <uart_write_string>
    8688:	e30901b4 	movw	r0, #37300	; 0x91b4
    868c:	e3400000 	movt	r0, #0
    8690:	eb00020e 	bl	8ed0 <uart_write_string>
    8694:	ebffff2d 	bl	8350 <GETSP>
    8698:	e1a03000 	mov	r3, r0
    869c:	e1a00003 	mov	r0, r3
    86a0:	eb000254 	bl	8ff8 <hexstring>
    86a4:	e30901bc 	movw	r0, #37308	; 0x91bc
    86a8:	e3400000 	movt	r0, #0
    86ac:	eb000207 	bl	8ed0 <uart_write_string>
    86b0:	ebffff30 	bl	8378 <GETSPIRQ>
    86b4:	e1a03000 	mov	r3, r0
    86b8:	e1a00003 	mov	r0, r3
    86bc:	eb00024d 	bl	8ff8 <hexstring>
    86c0:	e30901c8 	movw	r0, #37320	; 0x91c8
    86c4:	e3400000 	movt	r0, #0
    86c8:	eb000200 	bl	8ed0 <uart_write_string>
    86cc:	ebffff2b 	bl	8380 <GETSPSVC>
    86d0:	e1a03000 	mov	r3, r0
    86d4:	e1a00003 	mov	r0, r3
    86d8:	eb000246 	bl	8ff8 <hexstring>
    86dc:	e30901d4 	movw	r0, #37332	; 0x91d4
    86e0:	e3400000 	movt	r0, #0
    86e4:	eb0001f9 	bl	8ed0 <uart_write_string>
    86e8:	ebffff28 	bl	8390 <GETISR>
    86ec:	e1a03000 	mov	r3, r0
    86f0:	e1a00003 	mov	r0, r3
    86f4:	eb00023f 	bl	8ff8 <hexstring>
    86f8:	e30901dc 	movw	r0, #37340	; 0x91dc
    86fc:	e3400000 	movt	r0, #0
    8700:	eb0001f2 	bl	8ed0 <uart_write_string>
    8704:	ebffff1f 	bl	8388 <GETCPSR>
    8708:	e1a03000 	mov	r3, r0
    870c:	e1a00003 	mov	r0, r3
    8710:	eb000238 	bl	8ff8 <hexstring>
    8714:	e30901e4 	movw	r0, #37348	; 0x91e4
    8718:	e3400000 	movt	r0, #0
    871c:	eb0001eb 	bl	8ed0 <uart_write_string>
    8720:	eafffffe 	b	8720 <c_fiq_handler+0xac>

00008724 <c_irq_handler>:
    8724:	e52db004 	push	{fp}		; (str fp, [sp, #-4]!)
    8728:	e28db000 	add	fp, sp, #0
    872c:	e3a03020 	mov	r3, #32
    8730:	e3433f20 	movt	r3, #16160	; 0x3f20
    8734:	e3a02902 	mov	r2, #32768	; 0x8000
    8738:	e5832000 	str	r2, [r3]
    873c:	e30b340c 	movw	r3, #46092	; 0xb40c
    8740:	e3433f00 	movt	r3, #16128	; 0x3f00
    8744:	e3a02000 	mov	r2, #0
    8748:	e5832000 	str	r2, [r3]
    874c:	e24bd000 	sub	sp, fp, #0
    8750:	e49db004 	pop	{fp}		; (ldr fp, [sp], #4)
    8754:	e12fff1e 	bx	lr

00008758 <c_svc_handler>:
    8758:	e52db004 	push	{fp}		; (str fp, [sp, #-4]!)
    875c:	e28db000 	add	fp, sp, #0
    8760:	e3a03020 	mov	r3, #32
    8764:	e3433f20 	movt	r3, #16160	; 0x3f20
    8768:	e3a02008 	mov	r2, #8
    876c:	e5832000 	str	r2, [r3]
    8770:	e24bd000 	sub	sp, fp, #0
    8774:	e49db004 	pop	{fp}		; (ldr fp, [sp], #4)
    8778:	e12fff1e 	bx	lr

0000877c <c_hang_handler>:
    877c:	e92d4800 	push	{fp, lr}
    8780:	e28db004 	add	fp, sp, #4
    8784:	e3090210 	movw	r0, #37392	; 0x9210
    8788:	e3400000 	movt	r0, #0
    878c:	eb0001cf 	bl	8ed0 <uart_write_string>
    8790:	e30901b4 	movw	r0, #37300	; 0x91b4
    8794:	e3400000 	movt	r0, #0
    8798:	eb0001cc 	bl	8ed0 <uart_write_string>
    879c:	ebfffeeb 	bl	8350 <GETSP>
    87a0:	e1a03000 	mov	r3, r0
    87a4:	e1a00003 	mov	r0, r3
    87a8:	eb000212 	bl	8ff8 <hexstring>
    87ac:	e30901bc 	movw	r0, #37308	; 0x91bc
    87b0:	e3400000 	movt	r0, #0
    87b4:	eb0001c5 	bl	8ed0 <uart_write_string>
    87b8:	ebfffeee 	bl	8378 <GETSPIRQ>
    87bc:	e1a03000 	mov	r3, r0
    87c0:	e1a00003 	mov	r0, r3
    87c4:	eb00020b 	bl	8ff8 <hexstring>
    87c8:	e30901c8 	movw	r0, #37320	; 0x91c8
    87cc:	e3400000 	movt	r0, #0
    87d0:	eb0001be 	bl	8ed0 <uart_write_string>
    87d4:	ebfffee9 	bl	8380 <GETSPSVC>
    87d8:	e1a03000 	mov	r3, r0
    87dc:	e1a00003 	mov	r0, r3
    87e0:	eb000204 	bl	8ff8 <hexstring>
    87e4:	e30901d4 	movw	r0, #37332	; 0x91d4
    87e8:	e3400000 	movt	r0, #0
    87ec:	eb0001b7 	bl	8ed0 <uart_write_string>
    87f0:	ebfffee6 	bl	8390 <GETISR>
    87f4:	e1a03000 	mov	r3, r0
    87f8:	e1a00003 	mov	r0, r3
    87fc:	eb0001fd 	bl	8ff8 <hexstring>
    8800:	e30901dc 	movw	r0, #37340	; 0x91dc
    8804:	e3400000 	movt	r0, #0
    8808:	eb0001b0 	bl	8ed0 <uart_write_string>
    880c:	ebfffedd 	bl	8388 <GETCPSR>
    8810:	e1a03000 	mov	r3, r0
    8814:	e1a00003 	mov	r0, r3
    8818:	eb0001f6 	bl	8ff8 <hexstring>
    881c:	e30901e4 	movw	r0, #37348	; 0x91e4
    8820:	e3400000 	movt	r0, #0
    8824:	eb0001a9 	bl	8ed0 <uart_write_string>
    8828:	eafffffe 	b	8828 <c_hang_handler+0xac>

0000882c <idle_function>:
    882c:	e92d4800 	push	{fp, lr}
    8830:	e28db004 	add	fp, sp, #4
    8834:	eb0000ec 	bl	8bec <trace_idle>
    8838:	eafffffe 	b	8838 <idle_function+0xc>

0000883c <bcm2836_delay>:
    883c:	e52db004 	push	{fp}		; (str fp, [sp, #-4]!)
    8840:	e28db000 	add	fp, sp, #0
    8844:	e24dd014 	sub	sp, sp, #20
    8848:	e50b0010 	str	r0, [fp, #-16]
    884c:	e3a03000 	mov	r3, #0
    8850:	e50b3008 	str	r3, [fp, #-8]
    8854:	e3a03000 	mov	r3, #0
    8858:	e50b3008 	str	r3, [fp, #-8]
    885c:	ea000002 	b	886c <bcm2836_delay+0x30>
    8860:	e51b3008 	ldr	r3, [fp, #-8]
    8864:	e2833001 	add	r3, r3, #1
    8868:	e50b3008 	str	r3, [fp, #-8]
    886c:	e51b2008 	ldr	r2, [fp, #-8]
    8870:	e51b3010 	ldr	r3, [fp, #-16]
    8874:	e1520003 	cmp	r2, r3
    8878:	3afffff8 	bcc	8860 <bcm2836_delay+0x24>
    887c:	e24bd000 	sub	sp, fp, #0
    8880:	e49db004 	pop	{fp}		; (ldr fp, [sp], #4)
    8884:	e12fff1e 	bx	lr

00008888 <tpl_armv7_bootstrap_stage2>:
    8888:	e92d4800 	push	{fp, lr}
    888c:	e28db004 	add	fp, sp, #4
    8890:	eb000fd4 	bl	c7e8 <main>
    8894:	eafffffe 	b	8894 <tpl_armv7_bootstrap_stage2+0xc>

00008898 <tpl_arm_subarch_irq_handler>:
    8898:	e92d4800 	push	{fp, lr}
    889c:	e28db004 	add	fp, sp, #4
    88a0:	e24dd010 	sub	sp, sp, #16
    88a4:	e3a03000 	mov	r3, #0
    88a8:	e50b3008 	str	r3, [fp, #-8]
    88ac:	e3a03000 	mov	r3, #0
    88b0:	e50b3010 	str	r3, [fp, #-16]
    88b4:	e30b340c 	movw	r3, #46092	; 0xb40c
    88b8:	e3433f00 	movt	r3, #16128	; 0x3f00
    88bc:	e3a02000 	mov	r2, #0
    88c0:	e5832000 	str	r2, [r3]
    88c4:	e51b3010 	ldr	r3, [fp, #-16]
    88c8:	e263301f 	rsb	r3, r3, #31
    88cc:	e50b3008 	str	r3, [fp, #-8]
    88d0:	e3093078 	movw	r3, #36984	; 0x9078
    88d4:	e3403000 	movt	r3, #0
    88d8:	e5933000 	ldr	r3, [r3]
    88dc:	e50b300c 	str	r3, [fp, #-12]
    88e0:	e3093078 	movw	r3, #36984	; 0x9078
    88e4:	e3403000 	movt	r3, #0
    88e8:	e5932004 	ldr	r2, [r3, #4]
    88ec:	e51b300c 	ldr	r3, [fp, #-12]
    88f0:	e1a00002 	mov	r0, r2
    88f4:	e12fff33 	blx	r3
    88f8:	e24bd004 	sub	sp, fp, #4
    88fc:	e8bd8800 	pop	{fp, pc}

00008900 <trace_1>:
    8900:	e52db004 	push	{fp}		; (str fp, [sp, #-4]!)
    8904:	e28db000 	add	fp, sp, #0
    8908:	e24bd000 	sub	sp, fp, #0
    890c:	e49db004 	pop	{fp}		; (ldr fp, [sp], #4)
    8910:	e12fff1e 	bx	lr

00008914 <trace_2>:
    8914:	e52db004 	push	{fp}		; (str fp, [sp, #-4]!)
    8918:	e28db000 	add	fp, sp, #0
    891c:	e24bd000 	sub	sp, fp, #0
    8920:	e49db004 	pop	{fp}		; (ldr fp, [sp], #4)
    8924:	e12fff1e 	bx	lr

00008928 <trace_3>:
    8928:	e52db004 	push	{fp}		; (str fp, [sp, #-4]!)
    892c:	e28db000 	add	fp, sp, #0
    8930:	e24bd000 	sub	sp, fp, #0
    8934:	e49db004 	pop	{fp}		; (ldr fp, [sp], #4)
    8938:	e12fff1e 	bx	lr

0000893c <trace_4>:
    893c:	e52db004 	push	{fp}		; (str fp, [sp, #-4]!)
    8940:	e28db000 	add	fp, sp, #0
    8944:	e24dd00c 	sub	sp, sp, #12
    8948:	e50b0008 	str	r0, [fp, #-8]
    894c:	e24bd000 	sub	sp, fp, #0
    8950:	e49db004 	pop	{fp}		; (ldr fp, [sp], #4)
    8954:	e12fff1e 	bx	lr

00008958 <trace_5>:
    8958:	e52db004 	push	{fp}		; (str fp, [sp, #-4]!)
    895c:	e28db000 	add	fp, sp, #0
    8960:	e24bd000 	sub	sp, fp, #0
    8964:	e49db004 	pop	{fp}		; (ldr fp, [sp], #4)
    8968:	e12fff1e 	bx	lr

0000896c <trace_6>:
    896c:	e52db004 	push	{fp}		; (str fp, [sp, #-4]!)
    8970:	e28db000 	add	fp, sp, #0
    8974:	e24bd000 	sub	sp, fp, #0
    8978:	e49db004 	pop	{fp}		; (ldr fp, [sp], #4)
    897c:	e12fff1e 	bx	lr

00008980 <trace_7>:
    8980:	e52db004 	push	{fp}		; (str fp, [sp, #-4]!)
    8984:	e28db000 	add	fp, sp, #0
    8988:	e24bd000 	sub	sp, fp, #0
    898c:	e49db004 	pop	{fp}		; (ldr fp, [sp], #4)
    8990:	e12fff1e 	bx	lr

00008994 <trace_7_1>:
    8994:	e52db004 	push	{fp}		; (str fp, [sp, #-4]!)
    8998:	e28db000 	add	fp, sp, #0
    899c:	e24bd000 	sub	sp, fp, #0
    89a0:	e49db004 	pop	{fp}		; (ldr fp, [sp], #4)
    89a4:	e12fff1e 	bx	lr

000089a8 <trace_8>:
    89a8:	e52db004 	push	{fp}		; (str fp, [sp, #-4]!)
    89ac:	e28db000 	add	fp, sp, #0
    89b0:	e24bd000 	sub	sp, fp, #0
    89b4:	e49db004 	pop	{fp}		; (ldr fp, [sp], #4)
    89b8:	e12fff1e 	bx	lr

000089bc <trace_8_1>:
    89bc:	e52db004 	push	{fp}		; (str fp, [sp, #-4]!)
    89c0:	e28db000 	add	fp, sp, #0
    89c4:	e24dd00c 	sub	sp, sp, #12
    89c8:	e50b0008 	str	r0, [fp, #-8]
    89cc:	e24bd000 	sub	sp, fp, #0
    89d0:	e49db004 	pop	{fp}		; (ldr fp, [sp], #4)
    89d4:	e12fff1e 	bx	lr

000089d8 <trace_9>:
    89d8:	e52db004 	push	{fp}		; (str fp, [sp, #-4]!)
    89dc:	e28db000 	add	fp, sp, #0
    89e0:	e24bd000 	sub	sp, fp, #0
    89e4:	e49db004 	pop	{fp}		; (ldr fp, [sp], #4)
    89e8:	e12fff1e 	bx	lr

000089ec <trace_10>:
    89ec:	e52db004 	push	{fp}		; (str fp, [sp, #-4]!)
    89f0:	e28db000 	add	fp, sp, #0
    89f4:	e24bd000 	sub	sp, fp, #0
    89f8:	e49db004 	pop	{fp}		; (ldr fp, [sp], #4)
    89fc:	e12fff1e 	bx	lr

00008a00 <trace_regs>:
    8a00:	e92d4800 	push	{fp, lr}
    8a04:	e28db004 	add	fp, sp, #4
    8a08:	e24dd048 	sub	sp, sp, #72	; 0x48
    8a0c:	ebfffe35 	bl	82e8 <GETR0>
    8a10:	e1a03000 	mov	r3, r0
    8a14:	e50b3048 	str	r3, [fp, #-72]	; 0x48
    8a18:	ebfffe34 	bl	82f0 <GETR1>
    8a1c:	e1a03000 	mov	r3, r0
    8a20:	e50b3044 	str	r3, [fp, #-68]	; 0x44
    8a24:	ebfffe33 	bl	82f8 <GETR2>
    8a28:	e1a03000 	mov	r3, r0
    8a2c:	e50b3040 	str	r3, [fp, #-64]	; 0x40
    8a30:	ebfffe32 	bl	8300 <GETR3>
    8a34:	e1a03000 	mov	r3, r0
    8a38:	e50b303c 	str	r3, [fp, #-60]	; 0x3c
    8a3c:	ebfffe31 	bl	8308 <GETR4>
    8a40:	e1a03000 	mov	r3, r0
    8a44:	e50b3038 	str	r3, [fp, #-56]	; 0x38
    8a48:	ebfffe30 	bl	8310 <GETR5>
    8a4c:	e1a03000 	mov	r3, r0
    8a50:	e50b3034 	str	r3, [fp, #-52]	; 0x34
    8a54:	ebfffe2f 	bl	8318 <GETR6>
    8a58:	e1a03000 	mov	r3, r0
    8a5c:	e50b3030 	str	r3, [fp, #-48]	; 0x30
    8a60:	ebfffe2e 	bl	8320 <GETR7>
    8a64:	e1a03000 	mov	r3, r0
    8a68:	e50b302c 	str	r3, [fp, #-44]	; 0x2c
    8a6c:	ebfffe2d 	bl	8328 <GETR8>
    8a70:	e1a03000 	mov	r3, r0
    8a74:	e50b3028 	str	r3, [fp, #-40]	; 0x28
    8a78:	ebfffe2c 	bl	8330 <GETR9>
    8a7c:	e1a03000 	mov	r3, r0
    8a80:	e50b3024 	str	r3, [fp, #-36]	; 0x24
    8a84:	ebfffe2b 	bl	8338 <GETR10>
    8a88:	e1a03000 	mov	r3, r0
    8a8c:	e50b3020 	str	r3, [fp, #-32]
    8a90:	ebfffe2a 	bl	8340 <GETR11>
    8a94:	e1a03000 	mov	r3, r0
    8a98:	e50b301c 	str	r3, [fp, #-28]
    8a9c:	ebfffe29 	bl	8348 <GETR12>
    8aa0:	e1a03000 	mov	r3, r0
    8aa4:	e50b3018 	str	r3, [fp, #-24]
    8aa8:	ebfffe28 	bl	8350 <GETSP>
    8aac:	e1a03000 	mov	r3, r0
    8ab0:	e50b3014 	str	r3, [fp, #-20]
    8ab4:	ebfffe27 	bl	8358 <GETLR>
    8ab8:	e1a03000 	mov	r3, r0
    8abc:	e50b3010 	str	r3, [fp, #-16]
    8ac0:	ebfffe26 	bl	8360 <GETPC>
    8ac4:	e1a03000 	mov	r3, r0
    8ac8:	e50b300c 	str	r3, [fp, #-12]
    8acc:	e3090258 	movw	r0, #37464	; 0x9258
    8ad0:	e3400000 	movt	r0, #0
    8ad4:	eb0000fd 	bl	8ed0 <uart_write_string>
    8ad8:	e3a03000 	mov	r3, #0
    8adc:	e54b3005 	strb	r3, [fp, #-5]
    8ae0:	ea00000f 	b	8b24 <trace_regs+0x124>
    8ae4:	e55b3005 	ldrb	r3, [fp, #-5]
    8ae8:	e1a03103 	lsl	r3, r3, #2
    8aec:	e24b2004 	sub	r2, fp, #4
    8af0:	e0823003 	add	r3, r2, r3
    8af4:	e5133044 	ldr	r3, [r3, #-68]	; 0x44
    8af8:	e1a00003 	mov	r0, r3
    8afc:	eb000118 	bl	8f64 <hexstrings>
    8b00:	e55b3005 	ldrb	r3, [fp, #-5]
    8b04:	e3530006 	cmp	r3, #6
    8b08:	8a000002 	bhi	8b18 <trace_regs+0x118>
    8b0c:	e3090284 	movw	r0, #37508	; 0x9284
    8b10:	e3400000 	movt	r0, #0
    8b14:	eb0000fd 	bl	8f10 <uart_write_strings>
    8b18:	e55b3005 	ldrb	r3, [fp, #-5]
    8b1c:	e2833001 	add	r3, r3, #1
    8b20:	e54b3005 	strb	r3, [fp, #-5]
    8b24:	e55b3005 	ldrb	r3, [fp, #-5]
    8b28:	e3530007 	cmp	r3, #7
    8b2c:	9affffec 	bls	8ae4 <trace_regs+0xe4>
    8b30:	e3a0000d 	mov	r0, #13
    8b34:	eb0000b9 	bl	8e20 <uart_write_char>
    8b38:	e3a0000a 	mov	r0, #10
    8b3c:	eb0000b7 	bl	8e20 <uart_write_char>
    8b40:	e3a03008 	mov	r3, #8
    8b44:	e54b3005 	strb	r3, [fp, #-5]
    8b48:	ea00000f 	b	8b8c <trace_regs+0x18c>
    8b4c:	e55b3005 	ldrb	r3, [fp, #-5]
    8b50:	e1a03103 	lsl	r3, r3, #2
    8b54:	e24b2004 	sub	r2, fp, #4
    8b58:	e0823003 	add	r3, r2, r3
    8b5c:	e5133044 	ldr	r3, [r3, #-68]	; 0x44
    8b60:	e1a00003 	mov	r0, r3
    8b64:	eb0000fe 	bl	8f64 <hexstrings>
    8b68:	e55b3005 	ldrb	r3, [fp, #-5]
    8b6c:	e353000e 	cmp	r3, #14
    8b70:	8a000002 	bhi	8b80 <trace_regs+0x180>
    8b74:	e3090284 	movw	r0, #37508	; 0x9284
    8b78:	e3400000 	movt	r0, #0
    8b7c:	eb0000e3 	bl	8f10 <uart_write_strings>
    8b80:	e55b3005 	ldrb	r3, [fp, #-5]
    8b84:	e2833001 	add	r3, r3, #1
    8b88:	e54b3005 	strb	r3, [fp, #-5]
    8b8c:	e55b3005 	ldrb	r3, [fp, #-5]
    8b90:	e353000f 	cmp	r3, #15
    8b94:	9affffec 	bls	8b4c <trace_regs+0x14c>
    8b98:	e3a0000d 	mov	r0, #13
    8b9c:	eb00009f 	bl	8e20 <uart_write_char>
    8ba0:	e3a0000a 	mov	r0, #10
    8ba4:	eb00009d 	bl	8e20 <uart_write_char>
    8ba8:	e3090288 	movw	r0, #37512	; 0x9288
    8bac:	e3400000 	movt	r0, #0
    8bb0:	eb0000c6 	bl	8ed0 <uart_write_string>
    8bb4:	e24bd004 	sub	sp, fp, #4
    8bb8:	e8bd8800 	pop	{fp, pc}

00008bbc <trace_context>:
    8bbc:	e92d4800 	push	{fp, lr}
    8bc0:	e28db004 	add	fp, sp, #4
    8bc4:	e30902b4 	movw	r0, #37556	; 0x92b4
    8bc8:	e3400000 	movt	r0, #0
    8bcc:	eb0000bf 	bl	8ed0 <uart_write_string>
    8bd0:	e30902e0 	movw	r0, #37600	; 0x92e0
    8bd4:	e3400000 	movt	r0, #0
    8bd8:	eb0000bc 	bl	8ed0 <uart_write_string>
    8bdc:	e3090288 	movw	r0, #37512	; 0x9288
    8be0:	e3400000 	movt	r0, #0
    8be4:	eb0000b9 	bl	8ed0 <uart_write_string>
    8be8:	e8bd8800 	pop	{fp, pc}

00008bec <trace_idle>:
    8bec:	e92d4800 	push	{fp, lr}
    8bf0:	e28db004 	add	fp, sp, #4
    8bf4:	e30902e4 	movw	r0, #37604	; 0x92e4
    8bf8:	e3400000 	movt	r0, #0
    8bfc:	eb0000b3 	bl	8ed0 <uart_write_string>
    8c00:	e8bd8800 	pop	{fp, pc}

00008c04 <trace_in>:
    8c04:	e92d4800 	push	{fp, lr}
    8c08:	e28db004 	add	fp, sp, #4
    8c0c:	e30902f0 	movw	r0, #37616	; 0x92f0
    8c10:	e3400000 	movt	r0, #0
    8c14:	eb0000ad 	bl	8ed0 <uart_write_string>
    8c18:	e8bd8800 	pop	{fp, pc}

00008c1c <trace_out>:
    8c1c:	e92d4800 	push	{fp, lr}
    8c20:	e28db004 	add	fp, sp, #4
    8c24:	e309031c 	movw	r0, #37660	; 0x931c
    8c28:	e3400000 	movt	r0, #0
    8c2c:	eb0000a7 	bl	8ed0 <uart_write_string>
    8c30:	e8bd8800 	pop	{fp, pc}

00008c34 <nothing>:
    8c34:	e52db004 	push	{fp}		; (str fp, [sp, #-4]!)
    8c38:	e28db000 	add	fp, sp, #0
    8c3c:	e24dd00c 	sub	sp, sp, #12
    8c40:	e50b0008 	str	r0, [fp, #-8]
    8c44:	e24bd000 	sub	sp, fp, #0
    8c48:	e49db004 	pop	{fp}		; (ldr fp, [sp], #4)
    8c4c:	e12fff1e 	bx	lr

00008c50 <uart_init>:
    8c50:	e92d4800 	push	{fp, lr}
    8c54:	e28db004 	add	fp, sp, #4
    8c58:	e24dd008 	sub	sp, sp, #8
    8c5c:	e3053004 	movw	r3, #20484	; 0x5004
    8c60:	e3433f21 	movt	r3, #16161	; 0x3f21
    8c64:	e3a02001 	mov	r2, #1
    8c68:	e5832000 	str	r2, [r3]
    8c6c:	e3053044 	movw	r3, #20548	; 0x5044
    8c70:	e3433f21 	movt	r3, #16161	; 0x3f21
    8c74:	e3a02000 	mov	r2, #0
    8c78:	e5832000 	str	r2, [r3]
    8c7c:	e3053060 	movw	r3, #20576	; 0x5060
    8c80:	e3433f21 	movt	r3, #16161	; 0x3f21
    8c84:	e3a02000 	mov	r2, #0
    8c88:	e5832000 	str	r2, [r3]
    8c8c:	e305304c 	movw	r3, #20556	; 0x504c
    8c90:	e3433f21 	movt	r3, #16161	; 0x3f21
    8c94:	e3a02003 	mov	r2, #3
    8c98:	e5832000 	str	r2, [r3]
    8c9c:	e3053050 	movw	r3, #20560	; 0x5050
    8ca0:	e3433f21 	movt	r3, #16161	; 0x3f21
    8ca4:	e3a02000 	mov	r2, #0
    8ca8:	e5832000 	str	r2, [r3]
    8cac:	e3053044 	movw	r3, #20548	; 0x5044
    8cb0:	e3433f21 	movt	r3, #16161	; 0x3f21
    8cb4:	e3a02000 	mov	r2, #0
    8cb8:	e5832000 	str	r2, [r3]
    8cbc:	e3053048 	movw	r3, #20552	; 0x5048
    8cc0:	e3433f21 	movt	r3, #16161	; 0x3f21
    8cc4:	e3a020c6 	mov	r2, #198	; 0xc6
    8cc8:	e5832000 	str	r2, [r3]
    8ccc:	e3053068 	movw	r3, #20584	; 0x5068
    8cd0:	e3433f21 	movt	r3, #16161	; 0x3f21
    8cd4:	e300210e 	movw	r2, #270	; 0x10e
    8cd8:	e5832000 	str	r2, [r3]
    8cdc:	e3a03004 	mov	r3, #4
    8ce0:	e3433f20 	movt	r3, #16160	; 0x3f20
    8ce4:	e5933000 	ldr	r3, [r3]
    8ce8:	e50b3008 	str	r3, [fp, #-8]
    8cec:	e51b3008 	ldr	r3, [fp, #-8]
    8cf0:	e3c33a07 	bic	r3, r3, #28672	; 0x7000
    8cf4:	e50b3008 	str	r3, [fp, #-8]
    8cf8:	e51b3008 	ldr	r3, [fp, #-8]
    8cfc:	e3833a02 	orr	r3, r3, #8192	; 0x2000
    8d00:	e50b3008 	str	r3, [fp, #-8]
    8d04:	e51b3008 	ldr	r3, [fp, #-8]
    8d08:	e3c3390e 	bic	r3, r3, #229376	; 0x38000
    8d0c:	e50b3008 	str	r3, [fp, #-8]
    8d10:	e51b3008 	ldr	r3, [fp, #-8]
    8d14:	e3833801 	orr	r3, r3, #65536	; 0x10000
    8d18:	e50b3008 	str	r3, [fp, #-8]
    8d1c:	e3a03004 	mov	r3, #4
    8d20:	e3433f20 	movt	r3, #16160	; 0x3f20
    8d24:	e51b2008 	ldr	r2, [fp, #-8]
    8d28:	e5832000 	str	r2, [r3]
    8d2c:	e3a03094 	mov	r3, #148	; 0x94
    8d30:	e3433f20 	movt	r3, #16160	; 0x3f20
    8d34:	e3a02000 	mov	r2, #0
    8d38:	e5832000 	str	r2, [r3]
    8d3c:	e3a03000 	mov	r3, #0
    8d40:	e50b3008 	str	r3, [fp, #-8]
    8d44:	ea000004 	b	8d5c <uart_init+0x10c>
    8d48:	e51b0008 	ldr	r0, [fp, #-8]
    8d4c:	ebffffb8 	bl	8c34 <nothing>
    8d50:	e51b3008 	ldr	r3, [fp, #-8]
    8d54:	e2833001 	add	r3, r3, #1
    8d58:	e50b3008 	str	r3, [fp, #-8]
    8d5c:	e51b3008 	ldr	r3, [fp, #-8]
    8d60:	e3530095 	cmp	r3, #149	; 0x95
    8d64:	9afffff7 	bls	8d48 <uart_init+0xf8>
    8d68:	e3a03098 	mov	r3, #152	; 0x98
    8d6c:	e3433f20 	movt	r3, #16160	; 0x3f20
    8d70:	e3a02903 	mov	r2, #49152	; 0xc000
    8d74:	e5832000 	str	r2, [r3]
    8d78:	e3a03000 	mov	r3, #0
    8d7c:	e50b3008 	str	r3, [fp, #-8]
    8d80:	ea000004 	b	8d98 <uart_init+0x148>
    8d84:	e51b0008 	ldr	r0, [fp, #-8]
    8d88:	ebffffa9 	bl	8c34 <nothing>
    8d8c:	e51b3008 	ldr	r3, [fp, #-8]
    8d90:	e2833001 	add	r3, r3, #1
    8d94:	e50b3008 	str	r3, [fp, #-8]
    8d98:	e51b3008 	ldr	r3, [fp, #-8]
    8d9c:	e3530095 	cmp	r3, #149	; 0x95
    8da0:	9afffff7 	bls	8d84 <uart_init+0x134>
    8da4:	e3a03098 	mov	r3, #152	; 0x98
    8da8:	e3433f20 	movt	r3, #16160	; 0x3f20
    8dac:	e3a02000 	mov	r2, #0
    8db0:	e5832000 	str	r2, [r3]
    8db4:	e3053060 	movw	r3, #20576	; 0x5060
    8db8:	e3433f21 	movt	r3, #16161	; 0x3f21
    8dbc:	e3a02003 	mov	r2, #3
    8dc0:	e5832000 	str	r2, [r3]
    8dc4:	e24bd004 	sub	sp, fp, #4
    8dc8:	e8bd8800 	pop	{fp, pc}

00008dcc <mystrlen>:
    8dcc:	e52db004 	push	{fp}		; (str fp, [sp, #-4]!)
    8dd0:	e28db000 	add	fp, sp, #0
    8dd4:	e24dd014 	sub	sp, sp, #20
    8dd8:	e50b0010 	str	r0, [fp, #-16]
    8ddc:	e3a03000 	mov	r3, #0
    8de0:	e54b3005 	strb	r3, [fp, #-5]
    8de4:	ea000002 	b	8df4 <mystrlen+0x28>
    8de8:	e55b3005 	ldrb	r3, [fp, #-5]
    8dec:	e2833001 	add	r3, r3, #1
    8df0:	e54b3005 	strb	r3, [fp, #-5]
    8df4:	e55b3005 	ldrb	r3, [fp, #-5]
    8df8:	e51b2010 	ldr	r2, [fp, #-16]
    8dfc:	e0823003 	add	r3, r2, r3
    8e00:	e5d33000 	ldrb	r3, [r3]
    8e04:	e3530000 	cmp	r3, #0
    8e08:	1afffff6 	bne	8de8 <mystrlen+0x1c>
    8e0c:	e55b3005 	ldrb	r3, [fp, #-5]
    8e10:	e1a00003 	mov	r0, r3
    8e14:	e24bd000 	sub	sp, fp, #0
    8e18:	e49db004 	pop	{fp}		; (ldr fp, [sp], #4)
    8e1c:	e12fff1e 	bx	lr

00008e20 <uart_write_char>:
    8e20:	e52db004 	push	{fp}		; (str fp, [sp, #-4]!)
    8e24:	e28db000 	add	fp, sp, #0
    8e28:	e24dd00c 	sub	sp, sp, #12
    8e2c:	e1a03000 	mov	r3, r0
    8e30:	e54b3005 	strb	r3, [fp, #-5]
    8e34:	e3053054 	movw	r3, #20564	; 0x5054
    8e38:	e3433f21 	movt	r3, #16161	; 0x3f21
    8e3c:	e5933000 	ldr	r3, [r3]
    8e40:	e2033020 	and	r3, r3, #32
    8e44:	e3530000 	cmp	r3, #0
    8e48:	0a000000 	beq	8e50 <uart_write_char+0x30>
    8e4c:	ea000000 	b	8e54 <uart_write_char+0x34>
    8e50:	eafffff7 	b	8e34 <uart_write_char+0x14>
    8e54:	e3053040 	movw	r3, #20544	; 0x5040
    8e58:	e3433f21 	movt	r3, #16161	; 0x3f21
    8e5c:	e55b2005 	ldrb	r2, [fp, #-5]
    8e60:	e5832000 	str	r2, [r3]
    8e64:	e24bd000 	sub	sp, fp, #0
    8e68:	e49db004 	pop	{fp}		; (ldr fp, [sp], #4)
    8e6c:	e12fff1e 	bx	lr

00008e70 <uart_write_chars>:
    8e70:	e92d4800 	push	{fp, lr}
    8e74:	e28db004 	add	fp, sp, #4
    8e78:	e24dd010 	sub	sp, sp, #16
    8e7c:	e50b0010 	str	r0, [fp, #-16]
    8e80:	e1a03001 	mov	r3, r1
    8e84:	e54b3011 	strb	r3, [fp, #-17]
    8e88:	e3a03000 	mov	r3, #0
    8e8c:	e54b3005 	strb	r3, [fp, #-5]
    8e90:	ea000008 	b	8eb8 <uart_write_chars+0x48>
    8e94:	e55b3005 	ldrb	r3, [fp, #-5]
    8e98:	e51b2010 	ldr	r2, [fp, #-16]
    8e9c:	e0823003 	add	r3, r2, r3
    8ea0:	e5d33000 	ldrb	r3, [r3]
    8ea4:	e1a00003 	mov	r0, r3
    8ea8:	ebffffdc 	bl	8e20 <uart_write_char>
    8eac:	e55b3005 	ldrb	r3, [fp, #-5]
    8eb0:	e2833001 	add	r3, r3, #1
    8eb4:	e54b3005 	strb	r3, [fp, #-5]
    8eb8:	e55b2005 	ldrb	r2, [fp, #-5]
    8ebc:	e55b3011 	ldrb	r3, [fp, #-17]
    8ec0:	e1520003 	cmp	r2, r3
    8ec4:	3afffff2 	bcc	8e94 <uart_write_chars+0x24>
    8ec8:	e24bd004 	sub	sp, fp, #4
    8ecc:	e8bd8800 	pop	{fp, pc}

00008ed0 <uart_write_string>:
    8ed0:	e92d4800 	push	{fp, lr}
    8ed4:	e28db004 	add	fp, sp, #4
    8ed8:	e24dd008 	sub	sp, sp, #8
    8edc:	e50b0008 	str	r0, [fp, #-8]
    8ee0:	e51b0008 	ldr	r0, [fp, #-8]
    8ee4:	ebffffb8 	bl	8dcc <mystrlen>
    8ee8:	e1a03000 	mov	r3, r0
    8eec:	e51b0008 	ldr	r0, [fp, #-8]
    8ef0:	e1a01003 	mov	r1, r3
    8ef4:	ebffffdd 	bl	8e70 <uart_write_chars>
    8ef8:	e3a0000d 	mov	r0, #13
    8efc:	ebffffc7 	bl	8e20 <uart_write_char>
    8f00:	e3a0000a 	mov	r0, #10
    8f04:	ebffffc5 	bl	8e20 <uart_write_char>
    8f08:	e24bd004 	sub	sp, fp, #4
    8f0c:	e8bd8800 	pop	{fp, pc}

00008f10 <uart_write_strings>:
    8f10:	e92d4800 	push	{fp, lr}
    8f14:	e28db004 	add	fp, sp, #4
    8f18:	e24dd008 	sub	sp, sp, #8
    8f1c:	e50b0008 	str	r0, [fp, #-8]
    8f20:	e51b0008 	ldr	r0, [fp, #-8]
    8f24:	ebffffa8 	bl	8dcc <mystrlen>
    8f28:	e1a03000 	mov	r3, r0
    8f2c:	e51b0008 	ldr	r0, [fp, #-8]
    8f30:	e1a01003 	mov	r1, r3
    8f34:	ebffffcd 	bl	8e70 <uart_write_chars>
    8f38:	e24bd004 	sub	sp, fp, #4
    8f3c:	e8bd8800 	pop	{fp, pc}

00008f40 <uart_disable>:
    8f40:	e52db004 	push	{fp}		; (str fp, [sp, #-4]!)
    8f44:	e28db000 	add	fp, sp, #0
    8f48:	e3013030 	movw	r3, #4144	; 0x1030
    8f4c:	e3433f20 	movt	r3, #16160	; 0x3f20
    8f50:	e3a02000 	mov	r2, #0
    8f54:	e5832000 	str	r2, [r3]
    8f58:	e24bd000 	sub	sp, fp, #0
    8f5c:	e49db004 	pop	{fp}		; (ldr fp, [sp], #4)
    8f60:	e12fff1e 	bx	lr

00008f64 <hexstrings>:
    8f64:	e92d4800 	push	{fp, lr}
    8f68:	e28db004 	add	fp, sp, #4
    8f6c:	e24dd010 	sub	sp, sp, #16
    8f70:	e50b0010 	str	r0, [fp, #-16]
    8f74:	e3a03020 	mov	r3, #32
    8f78:	e50b3008 	str	r3, [fp, #-8]
    8f7c:	e51b3008 	ldr	r3, [fp, #-8]
    8f80:	e2433004 	sub	r3, r3, #4
    8f84:	e50b3008 	str	r3, [fp, #-8]
    8f88:	e51b3008 	ldr	r3, [fp, #-8]
    8f8c:	e51b2010 	ldr	r2, [fp, #-16]
    8f90:	e1a03332 	lsr	r3, r2, r3
    8f94:	e203300f 	and	r3, r3, #15
    8f98:	e50b300c 	str	r3, [fp, #-12]
    8f9c:	e51b300c 	ldr	r3, [fp, #-12]
    8fa0:	e3530009 	cmp	r3, #9
    8fa4:	9a000003 	bls	8fb8 <hexstrings+0x54>
    8fa8:	e51b300c 	ldr	r3, [fp, #-12]
    8fac:	e2833037 	add	r3, r3, #55	; 0x37
    8fb0:	e50b300c 	str	r3, [fp, #-12]
    8fb4:	ea000002 	b	8fc4 <hexstrings+0x60>
    8fb8:	e51b300c 	ldr	r3, [fp, #-12]
    8fbc:	e2833030 	add	r3, r3, #48	; 0x30
    8fc0:	e50b300c 	str	r3, [fp, #-12]
    8fc4:	e51b300c 	ldr	r3, [fp, #-12]
    8fc8:	e6ef3073 	uxtb	r3, r3
    8fcc:	e1a00003 	mov	r0, r3
    8fd0:	ebffff92 	bl	8e20 <uart_write_char>
    8fd4:	e51b3008 	ldr	r3, [fp, #-8]
    8fd8:	e3530000 	cmp	r3, #0
    8fdc:	1a000000 	bne	8fe4 <hexstrings+0x80>
    8fe0:	ea000000 	b	8fe8 <hexstrings+0x84>
    8fe4:	eaffffe4 	b	8f7c <hexstrings+0x18>
    8fe8:	e3a00020 	mov	r0, #32
    8fec:	ebffff8b 	bl	8e20 <uart_write_char>
    8ff0:	e24bd004 	sub	sp, fp, #4
    8ff4:	e8bd8800 	pop	{fp, pc}

00008ff8 <hexstring>:
    8ff8:	e92d4800 	push	{fp, lr}
    8ffc:	e28db004 	add	fp, sp, #4
    9000:	e24dd008 	sub	sp, sp, #8
    9004:	e50b0008 	str	r0, [fp, #-8]
    9008:	e51b0008 	ldr	r0, [fp, #-8]
    900c:	ebffffd4 	bl	8f64 <hexstrings>
    9010:	e3a0000d 	mov	r0, #13
    9014:	ebffff81 	bl	8e20 <uart_write_char>
    9018:	e3a0000a 	mov	r0, #10
    901c:	ebffff7f 	bl	8e20 <uart_write_char>
    9020:	e24bd004 	sub	sp, fp, #4
    9024:	e8bd8800 	pop	{fp, pc}

00009028 <test_uart>:
    9028:	e92d4800 	push	{fp, lr}
    902c:	e28db004 	add	fp, sp, #4
    9030:	e3a00055 	mov	r0, #85	; 0x55
    9034:	ebffff79 	bl	8e20 <uart_write_char>
    9038:	e8bd8800 	pop	{fp, pc}

Disassembly of section .osConst:

0000903c <INVALID_PROC>:
    903c:	ff00ffff 			; <UNDEFINED> instruction: 0xff00ffff

0000903d <INVALID_TASK>:
    903d:	ffff00ff 			; <UNDEFINED> instruction: 0xffff00ff

0000903e <RES_SCHEDULER>:
	...

0000903f <INVALID_RESOURCE>:
    903f:	0000ffff 	strdeq	pc, [r0], -pc	; <UNPREDICTABLE>

00009040 <INVALID_ALARM>:
    9040:	000000ff 	strdeq	r0, [r0], -pc	; <UNPREDICTABLE>

00009044 <tpl_resource_table>:
    9044:	0000937c 	andeq	r9, r0, ip, ror r3

00009048 <IDLE_TASK_task_stat_desc>:
    9048:	000094cc 	andeq	r9, r0, ip, asr #9
    904c:	000093a0 	andeq	r9, r0, r0, lsr #7
    9050:	0000012c 	andeq	r0, r0, ip, lsr #2
    9054:	0000882c 	andeq	r8, r0, ip, lsr #16
    9058:	00000000 	andeq	r0, r0, r0
    905c:	00010001 	andeq	r0, r1, r1

00009060 <blink_task_stat_desc>:
    9060:	00009518 	andeq	r9, r0, r8, lsl r5
    9064:	000096c0 	andeq	r9, r0, r0, asr #13
    9068:	0000012c 	andeq	r0, r0, ip, lsr #2
    906c:	0000c9fc 	strdeq	ip, [r0], -ip	; <UNPREDICTABLE>
    9070:	00000000 	andeq	r0, r0, r0
    9074:	00010100 	andeq	r0, r1, r0, lsl #2

00009078 <tpl_it_vector>:
    9078:	0000c014 	andeq	ip, r0, r4, lsl r0
    907c:	00000000 	andeq	r0, r0, r0
    9080:	0000b0c0 	andeq	fp, r0, r0, asr #1
    9084:	00000000 	andeq	r0, r0, r0
    9088:	0000b0c0 	andeq	fp, r0, r0, asr #1
    908c:	00000000 	andeq	r0, r0, r0
    9090:	0000b0c0 	andeq	fp, r0, r0, asr #1
    9094:	00000000 	andeq	r0, r0, r0
    9098:	0000b0c0 	andeq	fp, r0, r0, asr #1
    909c:	00000000 	andeq	r0, r0, r0
    90a0:	0000b0c0 	andeq	fp, r0, r0, asr #1
    90a4:	00000000 	andeq	r0, r0, r0
    90a8:	0000b0c0 	andeq	fp, r0, r0, asr #1
    90ac:	00000000 	andeq	r0, r0, r0
    90b0:	0000b0c0 	andeq	fp, r0, r0, asr #1
    90b4:	00000000 	andeq	r0, r0, r0
    90b8:	0000b0c0 	andeq	fp, r0, r0, asr #1
    90bc:	00000000 	andeq	r0, r0, r0
    90c0:	0000b0c0 	andeq	fp, r0, r0, asr #1
    90c4:	00000000 	andeq	r0, r0, r0
    90c8:	0000b0c0 	andeq	fp, r0, r0, asr #1
    90cc:	00000000 	andeq	r0, r0, r0
    90d0:	0000b0c0 	andeq	fp, r0, r0, asr #1
    90d4:	00000000 	andeq	r0, r0, r0
    90d8:	0000b0c0 	andeq	fp, r0, r0, asr #1
    90dc:	00000000 	andeq	r0, r0, r0
    90e0:	0000b0c0 	andeq	fp, r0, r0, asr #1
    90e4:	00000000 	andeq	r0, r0, r0
    90e8:	0000b0c0 	andeq	fp, r0, r0, asr #1
    90ec:	00000000 	andeq	r0, r0, r0
    90f0:	0000b0c0 	andeq	fp, r0, r0, asr #1
    90f4:	00000000 	andeq	r0, r0, r0
    90f8:	0000b0c0 	andeq	fp, r0, r0, asr #1
    90fc:	00000000 	andeq	r0, r0, r0
    9100:	0000b0c0 	andeq	fp, r0, r0, asr #1
    9104:	00000000 	andeq	r0, r0, r0
    9108:	0000b0c0 	andeq	fp, r0, r0, asr #1
    910c:	00000000 	andeq	r0, r0, r0
    9110:	0000b0c0 	andeq	fp, r0, r0, asr #1
    9114:	00000000 	andeq	r0, r0, r0
    9118:	0000b0c0 	andeq	fp, r0, r0, asr #1
    911c:	00000000 	andeq	r0, r0, r0

00009120 <tpl_stat_proc_table>:
    9120:	00009060 	andeq	r9, r0, r0, rrx
    9124:	00009048 	andeq	r9, r0, r8, asr #32

00009128 <tpl_dyn_proc_table>:
    9128:	0000955c 	andeq	r9, r0, ip, asr r5
    912c:	00009510 	andeq	r9, r0, r0, lsl r5

00009130 <blink_blink_action>:
    9130:	0000ac68 	andeq	sl, r0, r8, ror #24
    9134:	00000000 	andeq	r0, r0, r0

00009138 <blink_blink_static>:
    9138:	00009384 	andeq	r9, r0, r4, lsl #7
    913c:	0000b95c 	andeq	fp, r0, ip, asr r9
    9140:	00009130 	andeq	r9, r0, r0, lsr r1

00009144 <tpl_alarm_table>:
    9144:	00009564 	andeq	r9, r0, r4, ror #10

00009148 <tpl_dispatch_table>:
    9148:	0000aca4 	andeq	sl, r0, r4, lsr #25
    914c:	0000acf4 	strdeq	sl, [r0], -r4
    9150:	0000ad6c 	andeq	sl, r0, ip, ror #26
    9154:	0000af58 	andeq	sl, r0, r8, asr pc
    9158:	0000af10 	andeq	sl, r0, r0, lsl pc
    915c:	0000aea0 	andeq	sl, r0, r0, lsr #29
    9160:	0000ae58 	andeq	sl, r0, r8, asr lr
    9164:	0000afd4 	ldrdeq	sl, [r0], -r4
    9168:	0000af8c 	andeq	sl, r0, ip, lsl #31
    916c:	0000a61c 	andeq	sl, r0, ip, lsl r6
    9170:	0000b0dc 	ldrdeq	fp, [r0], -ip
    9174:	0000b184 	andeq	fp, r0, r4, lsl #3
    9178:	0000b250 	andeq	fp, r0, r0, asr r2
    917c:	0000b390 	muleq	r0, r0, r3
    9180:	0000b484 	andeq	fp, r0, r4, lsl #9
    9184:	0000b514 	andeq	fp, r0, r4, lsl r5
    9188:	0000a5c4 	andeq	sl, r0, r4, asr #11
    918c:	0000b654 	andeq	fp, r0, r4, asr r6
    9190:	0000b80c 	andeq	fp, r0, ip, lsl #16
    9194:	0000b99c 	muleq	r0, ip, r9
    9198:	0000ba6c 	andeq	fp, r0, ip, ror #20
    919c:	0000bb70 	andeq	fp, r0, r0, ror fp
    91a0:	0000bd40 	andeq	fp, r0, r0, asr #26
    91a4:	0000bec0 	andeq	fp, r0, r0, asr #29

Disassembly of section .rodata:

000091a8 <.LC0>:
    91a8:	45444e55 	strbmi	r4, [r4, #-3669]	; 0xe55
    91ac:	454e4946 	strbmi	r4, [lr, #-2374]	; 0x946
    91b0:	005b2044 	subseq	r2, fp, r4, asr #32

000091b4 <.LC1>:
    91b4:	3d205053 	stccc	0, cr5, [r0, #-332]!	; 0xfffffeb4
    91b8:	00000020 	andeq	r0, r0, r0, lsr #32

000091bc <.LC2>:
    91bc:	52495053 	subpl	r5, r9, #83	; 0x53
    91c0:	203d2051 	eorscs	r2, sp, r1, asr r0
    91c4:	00000000 	andeq	r0, r0, r0

000091c8 <.LC3>:
    91c8:	56535053 			; <UNDEFINED> instruction: 0x56535053
    91cc:	203d2043 	eorscs	r2, sp, r3, asr #32
    91d0:	00000000 	andeq	r0, r0, r0

000091d4 <.LC4>:
    91d4:	20525349 	subscs	r5, r2, r9, asr #6
    91d8:	0000203d 	andeq	r2, r0, sp, lsr r0

000091dc <.LC5>:
    91dc:	52535043 	subspl	r5, r3, #67	; 0x43
    91e0:	00203d20 	eoreq	r3, r0, r0, lsr #26

000091e4 <.LC6>:
    91e4:	0000005d 	andeq	r0, r0, sp, asr r0

000091e8 <.LC7>:
    91e8:	46455250 			; <UNDEFINED> instruction: 0x46455250
    91ec:	48435445 	stmdami	r3, {r0, r2, r6, sl, ip, lr}^
    91f0:	00005b20 	andeq	r5, r0, r0, lsr #22

000091f4 <.LC8>:
    91f4:	41544144 	cmpmi	r4, r4, asr #2
    91f8:	00005b20 	andeq	r5, r0, r0, lsr #22

000091fc <.LC9>:
    91fc:	45534552 	ldrbmi	r4, [r3, #-1362]	; 0x552
    9200:	44455652 	strbmi	r5, [r5], #-1618	; 0x652
    9204:	00005b20 	andeq	r5, r0, r0, lsr #22

00009208 <.LC10>:
    9208:	20514946 	subscs	r4, r1, r6, asr #18
    920c:	0000005b 	andeq	r0, r0, fp, asr r0

00009210 <.LC11>:
    9210:	474e4148 	strbmi	r4, [lr, -r8, asr #2]
    9214:	00005b20 	andeq	r5, r0, r0, lsr #22

00009218 <.LC12>:
    9218:	4e49414d 	dvfmiem	f4, f1, #5.0
    921c:	00000000 	andeq	r0, r0, r0

00009220 <.LC13>:
    9220:	52414256 	subpl	r4, r1, #1610612741	; 0x60000005
    9224:	00203d20 	eoreq	r3, r0, r0, lsr #26

00009228 <.LC14>:
    9228:	68636154 	stmdavs	r3!, {r2, r4, r6, r8, sp, lr}^
    922c:	4c422065 	mcrrmi	0, 6, r2, r2, cr5
    9230:	004b4e49 	subeq	r4, fp, r9, asr #28

00009234 <std>:
	...

00009235 <OSDEFAULTAPPMODE>:
    9235:	00000000 	andeq	r0, r0, r0

00009238 <tpl_task_app_mode>:
    9238:	00000000 	andeq	r0, r0, r0

0000923c <tpl_alarm_app_mode>:
    923c:	00000001 	andeq	r0, r0, r1
    9240:	6e696c62 	cdpvs	12, 6, cr6, cr9, cr2, {3}
    9244:	0000006b 	andeq	r0, r0, fp, rrx
    9248:	6c64692a 	stclvs	9, cr6, [r4], #-168	; 0xffffff58
    924c:	00002a65 	andeq	r2, r0, r5, ror #20

00009250 <.LC0>:
    9250:	20525349 	subscs	r5, r2, r9, asr #6
    9254:	0000203d 	andeq	r2, r0, sp, lsr r0

00009258 <.LC0>:
    9258:	52545f5f 	subspl	r5, r4, #380	; 0x17c
    925c:	5f454341 	svcpl	0x00454341
    9260:	4745525f 	smlsldmi	r5, r5, pc, r2	; <UNPREDICTABLE>
    9264:	5f5f5f53 	svcpl	0x005f5f53
    9268:	5f5f5f5f 	svcpl	0x005f5f5f
    926c:	5f5f5f5f 	svcpl	0x005f5f5f
    9270:	5f5f5f5f 	svcpl	0x005f5f5f
    9274:	5f5f5f5f 	svcpl	0x005f5f5f
    9278:	5f5f5f5f 	svcpl	0x005f5f5f
    927c:	5f5f5f5f 	svcpl	0x005f5f5f
    9280:	005f5f5f 	subseq	r5, pc, pc, asr pc	; <UNPREDICTABLE>

00009284 <.LC1>:
    9284:	00207c20 	eoreq	r7, r0, r0, lsr #24

00009288 <.LC2>:
    9288:	5f5f5f5f 	svcpl	0x005f5f5f
    928c:	5f5f5f5f 	svcpl	0x005f5f5f
    9290:	5f5f5f5f 	svcpl	0x005f5f5f
    9294:	5f5f5f5f 	svcpl	0x005f5f5f
    9298:	5f5f5f5f 	svcpl	0x005f5f5f
    929c:	5f5f5f5f 	svcpl	0x005f5f5f
    92a0:	5f5f5f5f 	svcpl	0x005f5f5f
    92a4:	5f5f5f5f 	svcpl	0x005f5f5f
    92a8:	5f5f5f5f 	svcpl	0x005f5f5f
    92ac:	5f5f5f5f 	svcpl	0x005f5f5f
    92b0:	005f5f5f 	subseq	r5, pc, pc, asr pc	; <UNPREDICTABLE>

000092b4 <.LC3>:
    92b4:	52545f5f 	subspl	r5, r4, #380	; 0x17c
    92b8:	5f454341 	svcpl	0x00454341
    92bc:	4e4f435f 	mcrmi	3, 2, r4, cr15, cr15, {2}
    92c0:	54584554 	ldrbpl	r4, [r8], #-1364	; 0x554
    92c4:	5f5f5f5f 	svcpl	0x005f5f5f
    92c8:	5f5f5f5f 	svcpl	0x005f5f5f
    92cc:	5f5f5f5f 	svcpl	0x005f5f5f
    92d0:	5f5f5f5f 	svcpl	0x005f5f5f
    92d4:	5f5f5f5f 	svcpl	0x005f5f5f
    92d8:	5f5f5f5f 	svcpl	0x005f5f5f
    92dc:	005f5f5f 	subseq	r5, pc, pc, asr pc	; <UNPREDICTABLE>

000092e0 <.LC4>:
    92e0:	00000000 	andeq	r0, r0, r0

000092e4 <.LC5>:
    92e4:	68636154 	stmdavs	r3!, {r2, r4, r6, r8, sp, lr}^
    92e8:	44492065 	strbmi	r2, [r9], #-101	; 0x65
    92ec:	0000454c 	andeq	r4, r0, ip, asr #10

000092f0 <.LC6>:
    92f0:	3d3d3d5d 	ldccc	13, cr3, [sp, #-372]!	; 0xfffffe8c
    92f4:	3d3d3d3d 	ldccc	13, cr3, [sp, #-244]!	; 0xffffff0c
    92f8:	3d3d3d3d 	ldccc	13, cr3, [sp, #-244]!	; 0xffffff0c
    92fc:	3d3d3d3d 	ldccc	13, cr3, [sp, #-244]!	; 0xffffff0c
    9300:	203d3d3d 	eorscs	r3, sp, sp, lsr sp
    9304:	3d204e49 	stccc	14, cr4, [r0, #-292]!	; 0xfffffedc
    9308:	3d3d3d3d 	ldccc	13, cr3, [sp, #-244]!	; 0xffffff0c
    930c:	3d3d3d3d 	ldccc	13, cr3, [sp, #-244]!	; 0xffffff0c
    9310:	3d3d3d3d 	ldccc	13, cr3, [sp, #-244]!	; 0xffffff0c
    9314:	3d3d3d3d 	ldccc	13, cr3, [sp, #-244]!	; 0xffffff0c
    9318:	00005b3d 	andeq	r5, r0, sp, lsr fp

0000931c <.LC7>:
    931c:	3d3d3d5d 	ldccc	13, cr3, [sp, #-372]!	; 0xfffffe8c
    9320:	3d3d3d3d 	ldccc	13, cr3, [sp, #-244]!	; 0xffffff0c
    9324:	3d3d3d3d 	ldccc	13, cr3, [sp, #-244]!	; 0xffffff0c
    9328:	3d3d3d3d 	ldccc	13, cr3, [sp, #-244]!	; 0xffffff0c
    932c:	203d3d3d 	eorscs	r3, sp, sp, lsr sp
    9330:	2054554f 	subscs	r5, r4, pc, asr #10
    9334:	3d3d3d3d 	ldccc	13, cr3, [sp, #-244]!	; 0xffffff0c
    9338:	3d3d3d3d 	ldccc	13, cr3, [sp, #-244]!	; 0xffffff0c
    933c:	3d3d3d3d 	ldccc	13, cr3, [sp, #-244]!	; 0xffffff0c
    9340:	3d3d3d3d 	ldccc	13, cr3, [sp, #-244]!	; 0xffffff0c
    9344:	005b3d3d 	subseq	r3, fp, sp, lsr sp

Disassembly of section .osApiConst:

00009348 <blink>:
	...

00009349 <blink_blink>:
    9349:	01000000 	mrseq	r0, (UNDEF: 0)

0000934c <OSTICKSPERBASE>:
    934c:	00000001 	andeq	r0, r0, r1

00009350 <OSMAXALLOWEDVALUE>:
    9350:	00007fff 	strdeq	r7, [r0], -pc	; <UNPREDICTABLE>

00009354 <OSMINCYCLE>:
    9354:	00000001 	andeq	r0, r0, r1

00009358 <proc_name_table>:
    9358:	00009240 	andeq	r9, r0, r0, asr #4
    935c:	00009248 	andeq	r9, r0, r8, asr #4

Disassembly of section .osVar:

00009360 <INTERNAL_RES_SCHEDULER>:
    9360:	00000002 	andeq	r0, r0, r2

00009363 <tpl_counters_enabled>:
	...

00009364 <application_mode>:
    9364:	000000ff 	strdeq	r0, [r0], -pc	; <UNPREDICTABLE>

00009368 <tpl_locking_depth>:
    9368:	00000000 	andeq	r0, r0, r0

0000936c <tpl_user_task_lock>:
    936c:	00000000 	andeq	r0, r0, r0

00009370 <tpl_cpt_user_task_lock_All>:
    9370:	00000000 	andeq	r0, r0, r0

00009374 <tpl_cpt_user_task_lock_OS>:
    9374:	00000000 	andeq	r0, r0, r0

00009378 <tpl_cpt_os_task_lock>:
    9378:	00000000 	andeq	r0, r0, r0

0000937c <res_sched_rez_desc>:
    937c:	00ff0002 	rscseq	r0, pc, r2
    9380:	00000000 	andeq	r0, r0, r0

00009384 <SystemCounter_counter_desc>:
    9384:	00000001 	andeq	r0, r0, r1
    9388:	00007fff 	strdeq	r7, [r0], -pc	; <UNPREDICTABLE>
    938c:	00000001 	andeq	r0, r0, r1
	...

000093a0 <IDLE_TASK_stack_zone>:
	...

000094cc <IDLE_TASK_int_context>:
	...

00009510 <IDLE_TASK_task_desc>:
	...

00009518 <blink_int_context>:
	...

0000955c <blink_task_desc>:
    955c:	00000000 	andeq	r0, r0, r0
    9560:	00000100 	andeq	r0, r0, r0, lsl #2

00009564 <blink_blink_alarm_desc>:
    9564:	00009138 	andeq	r9, r0, r8, lsr r1
	...
    9570:	000000fa 	strdeq	r0, [r0], -sl
    9574:	000000fa 	strdeq	r0, [r0], -sl
    9578:	00000002 	andeq	r0, r0, r2

0000957c <tpl_ready_list>:
	...

00009584 <tpl_tail_for_prio>:
    9584:	00000000 	andeq	r0, r0, r0

00009588 <tpl_kern>:
    9588:	00000000 	andeq	r0, r0, r0
    958c:	00009048 	andeq	r9, r0, r8, asr #32
    9590:	00000000 	andeq	r0, r0, r0
    9594:	00009510 	andeq	r9, r0, r0, lsl r5
    9598:	ffffffff 			; <UNDEFINED> instruction: 0xffffffff
    959c:	ffffffff 			; <UNDEFINED> instruction: 0xffffffff
    95a0:	00000000 	andeq	r0, r0, r0

000095a4 <idle_stack>:
	...

0000966c <idle_task_context>:
	...

000096b0 <nested_kernel_entrance_counter>:
    96b0:	00000000 	andeq	r0, r0, r0

000096b4 <faulty_instruction>:
    96b4:	00000000 	andeq	r0, r0, r0

000096b8 <saved_psr>:
    96b8:	00000000 	andeq	r0, r0, r0

000096bc <interrupted_stack_pointer>:
    96bc:	00000000 	andeq	r0, r0, r0

Disassembly of section .Task_blinkStack:

000096c0 <blink_stack_zone>:
	...

Disassembly of section .osCode:

000097ec <tpl_compare_entries>:
    97ec:	e52db004 	push	{fp}		; (str fp, [sp, #-4]!)
    97f0:	e28db000 	add	fp, sp, #0
    97f4:	e24dd01c 	sub	sp, sp, #28
    97f8:	e50b0018 	str	r0, [fp, #-24]
    97fc:	e50b101c 	str	r1, [fp, #-28]
    9800:	e51b3018 	ldr	r3, [fp, #-24]
    9804:	e5d33000 	ldrb	r3, [r3]
    9808:	e6ef3073 	uxtb	r3, r3
    980c:	e2033003 	and	r3, r3, #3
    9810:	e50b3008 	str	r3, [fp, #-8]
    9814:	e51b301c 	ldr	r3, [fp, #-28]
    9818:	e5d33000 	ldrb	r3, [r3]
    981c:	e6ef3073 	uxtb	r3, r3
    9820:	e2033003 	and	r3, r3, #3
    9824:	e50b300c 	str	r3, [fp, #-12]
    9828:	e3093584 	movw	r3, #38276	; 0x9584
    982c:	e3403000 	movt	r3, #0
    9830:	e51b2008 	ldr	r2, [fp, #-8]
    9834:	e0833002 	add	r3, r3, r2
    9838:	e5d33000 	ldrb	r3, [r3]
    983c:	e2633000 	rsb	r3, r3, #0
    9840:	e50b3010 	str	r3, [fp, #-16]
    9844:	e3a03000 	mov	r3, #0
    9848:	e50b3010 	str	r3, [fp, #-16]
    984c:	e51b3008 	ldr	r3, [fp, #-8]
    9850:	e2033003 	and	r3, r3, #3
    9854:	e50b3008 	str	r3, [fp, #-8]
    9858:	e51b2008 	ldr	r2, [fp, #-8]
    985c:	e51b3010 	ldr	r3, [fp, #-16]
    9860:	e1823003 	orr	r3, r2, r3
    9864:	e50b3008 	str	r3, [fp, #-8]
    9868:	e3093584 	movw	r3, #38276	; 0x9584
    986c:	e3403000 	movt	r3, #0
    9870:	e51b200c 	ldr	r2, [fp, #-12]
    9874:	e0833002 	add	r3, r3, r2
    9878:	e5d33000 	ldrb	r3, [r3]
    987c:	e2633000 	rsb	r3, r3, #0
    9880:	e50b3014 	str	r3, [fp, #-20]
    9884:	e3a03000 	mov	r3, #0
    9888:	e50b3014 	str	r3, [fp, #-20]
    988c:	e51b300c 	ldr	r3, [fp, #-12]
    9890:	e2033003 	and	r3, r3, #3
    9894:	e50b300c 	str	r3, [fp, #-12]
    9898:	e51b200c 	ldr	r2, [fp, #-12]
    989c:	e51b3014 	ldr	r3, [fp, #-20]
    98a0:	e1823003 	orr	r3, r2, r3
    98a4:	e50b300c 	str	r3, [fp, #-12]
    98a8:	e51b2008 	ldr	r2, [fp, #-8]
    98ac:	e51b300c 	ldr	r3, [fp, #-12]
    98b0:	e1520003 	cmp	r2, r3
    98b4:	33a03001 	movcc	r3, #1
    98b8:	23a03000 	movcs	r3, #0
    98bc:	e6ef3073 	uxtb	r3, r3
    98c0:	e1a00003 	mov	r0, r3
    98c4:	e24bd000 	sub	sp, fp, #0
    98c8:	e49db004 	pop	{fp}		; (ldr fp, [sp], #4)
    98cc:	e12fff1e 	bx	lr

000098d0 <tpl_bubble_up>:
    98d0:	e92d4800 	push	{fp, lr}
    98d4:	e28db004 	add	fp, sp, #4
    98d8:	e24dd010 	sub	sp, sp, #16
    98dc:	e50b0010 	str	r0, [fp, #-16]
    98e0:	e50b1014 	str	r1, [fp, #-20]
    98e4:	e51b3014 	ldr	r3, [fp, #-20]
    98e8:	e1a030a3 	lsr	r3, r3, #1
    98ec:	e50b3008 	str	r3, [fp, #-8]
    98f0:	ea00001e 	b	9970 <tpl_bubble_up+0xa0>
    98f4:	e51b3014 	ldr	r3, [fp, #-20]
    98f8:	e1a03083 	lsl	r3, r3, #1
    98fc:	e51b2010 	ldr	r2, [fp, #-16]
    9900:	e0822003 	add	r2, r2, r3
    9904:	e24b300c 	sub	r3, fp, #12
    9908:	e1d220b0 	ldrh	r2, [r2]
    990c:	e1c320b0 	strh	r2, [r3]
    9910:	e51b3014 	ldr	r3, [fp, #-20]
    9914:	e1a03083 	lsl	r3, r3, #1
    9918:	e51b2010 	ldr	r2, [fp, #-16]
    991c:	e0821003 	add	r1, r2, r3
    9920:	e51b3008 	ldr	r3, [fp, #-8]
    9924:	e1a03083 	lsl	r3, r3, #1
    9928:	e51b2010 	ldr	r2, [fp, #-16]
    992c:	e0823003 	add	r3, r2, r3
    9930:	e1a02001 	mov	r2, r1
    9934:	e1d330b0 	ldrh	r3, [r3]
    9938:	e1c230b0 	strh	r3, [r2]
    993c:	e51b3008 	ldr	r3, [fp, #-8]
    9940:	e1a03083 	lsl	r3, r3, #1
    9944:	e51b2010 	ldr	r2, [fp, #-16]
    9948:	e0823003 	add	r3, r2, r3
    994c:	e1a02003 	mov	r2, r3
    9950:	e24b300c 	sub	r3, fp, #12
    9954:	e1d330b0 	ldrh	r3, [r3]
    9958:	e1c230b0 	strh	r3, [r2]
    995c:	e51b3008 	ldr	r3, [fp, #-8]
    9960:	e50b3014 	str	r3, [fp, #-20]
    9964:	e51b3008 	ldr	r3, [fp, #-8]
    9968:	e1a030a3 	lsr	r3, r3, #1
    996c:	e50b3008 	str	r3, [fp, #-8]
    9970:	e51b3014 	ldr	r3, [fp, #-20]
    9974:	e3530001 	cmp	r3, #1
    9978:	9a00000d 	bls	99b4 <tpl_bubble_up+0xe4>
    997c:	e51b3008 	ldr	r3, [fp, #-8]
    9980:	e1a03083 	lsl	r3, r3, #1
    9984:	e51b2010 	ldr	r2, [fp, #-16]
    9988:	e0821003 	add	r1, r2, r3
    998c:	e51b3014 	ldr	r3, [fp, #-20]
    9990:	e1a03083 	lsl	r3, r3, #1
    9994:	e51b2010 	ldr	r2, [fp, #-16]
    9998:	e0823003 	add	r3, r2, r3
    999c:	e1a00001 	mov	r0, r1
    99a0:	e1a01003 	mov	r1, r3
    99a4:	ebffff90 	bl	97ec <tpl_compare_entries>
    99a8:	e1a03000 	mov	r3, r0
    99ac:	e3530000 	cmp	r3, #0
    99b0:	1affffcf 	bne	98f4 <tpl_bubble_up+0x24>
    99b4:	e24bd004 	sub	sp, fp, #4
    99b8:	e8bd8800 	pop	{fp, pc}

000099bc <tpl_bubble_down>:
    99bc:	e92d4800 	push	{fp, lr}
    99c0:	e28db004 	add	fp, sp, #4
    99c4:	e24dd018 	sub	sp, sp, #24
    99c8:	e50b0018 	str	r0, [fp, #-24]
    99cc:	e50b101c 	str	r1, [fp, #-28]
    99d0:	e51b3018 	ldr	r3, [fp, #-24]
    99d4:	e5d33000 	ldrb	r3, [r3]
    99d8:	e6af3073 	sxtb	r3, r3
    99dc:	e50b300c 	str	r3, [fp, #-12]
    99e0:	ea000042 	b	9af0 <tpl_bubble_down+0x134>
    99e4:	e51b3008 	ldr	r3, [fp, #-8]
    99e8:	e2833001 	add	r3, r3, #1
    99ec:	e50b3010 	str	r3, [fp, #-16]
    99f0:	e51b2010 	ldr	r2, [fp, #-16]
    99f4:	e51b300c 	ldr	r3, [fp, #-12]
    99f8:	e1520003 	cmp	r2, r3
    99fc:	8a00000f 	bhi	9a40 <tpl_bubble_down+0x84>
    9a00:	e51b3008 	ldr	r3, [fp, #-8]
    9a04:	e1a03083 	lsl	r3, r3, #1
    9a08:	e51b2018 	ldr	r2, [fp, #-24]
    9a0c:	e0821003 	add	r1, r2, r3
    9a10:	e51b3010 	ldr	r3, [fp, #-16]
    9a14:	e1a03083 	lsl	r3, r3, #1
    9a18:	e51b2018 	ldr	r2, [fp, #-24]
    9a1c:	e0823003 	add	r3, r2, r3
    9a20:	e1a00001 	mov	r0, r1
    9a24:	e1a01003 	mov	r1, r3
    9a28:	ebffff6f 	bl	97ec <tpl_compare_entries>
    9a2c:	e1a03000 	mov	r3, r0
    9a30:	e3530000 	cmp	r3, #0
    9a34:	0a000001 	beq	9a40 <tpl_bubble_down+0x84>
    9a38:	e51b3010 	ldr	r3, [fp, #-16]
    9a3c:	e50b3008 	str	r3, [fp, #-8]
    9a40:	e51b301c 	ldr	r3, [fp, #-28]
    9a44:	e1a03083 	lsl	r3, r3, #1
    9a48:	e51b2018 	ldr	r2, [fp, #-24]
    9a4c:	e0821003 	add	r1, r2, r3
    9a50:	e51b3008 	ldr	r3, [fp, #-8]
    9a54:	e1a03083 	lsl	r3, r3, #1
    9a58:	e51b2018 	ldr	r2, [fp, #-24]
    9a5c:	e0823003 	add	r3, r2, r3
    9a60:	e1a00001 	mov	r0, r1
    9a64:	e1a01003 	mov	r1, r3
    9a68:	ebffff5f 	bl	97ec <tpl_compare_entries>
    9a6c:	e1a03000 	mov	r3, r0
    9a70:	e3530000 	cmp	r3, #0
    9a74:	0a00001c 	beq	9aec <tpl_bubble_down+0x130>
    9a78:	e51b301c 	ldr	r3, [fp, #-28]
    9a7c:	e1a03083 	lsl	r3, r3, #1
    9a80:	e51b2018 	ldr	r2, [fp, #-24]
    9a84:	e0822003 	add	r2, r2, r3
    9a88:	e24b3014 	sub	r3, fp, #20
    9a8c:	e1d220b0 	ldrh	r2, [r2]
    9a90:	e1c320b0 	strh	r2, [r3]
    9a94:	e51b301c 	ldr	r3, [fp, #-28]
    9a98:	e1a03083 	lsl	r3, r3, #1
    9a9c:	e51b2018 	ldr	r2, [fp, #-24]
    9aa0:	e0821003 	add	r1, r2, r3
    9aa4:	e51b3008 	ldr	r3, [fp, #-8]
    9aa8:	e1a03083 	lsl	r3, r3, #1
    9aac:	e51b2018 	ldr	r2, [fp, #-24]
    9ab0:	e0823003 	add	r3, r2, r3
    9ab4:	e1a02001 	mov	r2, r1
    9ab8:	e1d330b0 	ldrh	r3, [r3]
    9abc:	e1c230b0 	strh	r3, [r2]
    9ac0:	e51b3008 	ldr	r3, [fp, #-8]
    9ac4:	e1a03083 	lsl	r3, r3, #1
    9ac8:	e51b2018 	ldr	r2, [fp, #-24]
    9acc:	e0823003 	add	r3, r2, r3
    9ad0:	e1a02003 	mov	r2, r3
    9ad4:	e24b3014 	sub	r3, fp, #20
    9ad8:	e1d330b0 	ldrh	r3, [r3]
    9adc:	e1c230b0 	strh	r3, [r2]
    9ae0:	e51b3008 	ldr	r3, [fp, #-8]
    9ae4:	e50b301c 	str	r3, [fp, #-28]
    9ae8:	ea000000 	b	9af0 <tpl_bubble_down+0x134>
    9aec:	ea000006 	b	9b0c <tpl_bubble_down+0x150>
    9af0:	e51b301c 	ldr	r3, [fp, #-28]
    9af4:	e1a03083 	lsl	r3, r3, #1
    9af8:	e50b3008 	str	r3, [fp, #-8]
    9afc:	e51b2008 	ldr	r2, [fp, #-8]
    9b00:	e51b300c 	ldr	r3, [fp, #-12]
    9b04:	e1520003 	cmp	r2, r3
    9b08:	9affffb5 	bls	99e4 <tpl_bubble_down+0x28>
    9b0c:	e24bd004 	sub	sp, fp, #4
    9b10:	e8bd8800 	pop	{fp, pc}

00009b14 <tpl_put_new_proc>:
    9b14:	e92d4800 	push	{fp, lr}
    9b18:	e28db004 	add	fp, sp, #4
    9b1c:	e24dd010 	sub	sp, sp, #16
    9b20:	e1a03000 	mov	r3, r0
    9b24:	e54b300d 	strb	r3, [fp, #-13]
    9b28:	e309357c 	movw	r3, #38268	; 0x957c
    9b2c:	e3403000 	movt	r3, #0
    9b30:	e5d33000 	ldrb	r3, [r3]
    9b34:	e6ef3073 	uxtb	r3, r3
    9b38:	e2833001 	add	r3, r3, #1
    9b3c:	e6ef3073 	uxtb	r3, r3
    9b40:	e6ef2073 	uxtb	r2, r3
    9b44:	e309357c 	movw	r3, #38268	; 0x957c
    9b48:	e3403000 	movt	r3, #0
    9b4c:	e5c32000 	strb	r2, [r3]
    9b50:	e309357c 	movw	r3, #38268	; 0x957c
    9b54:	e3403000 	movt	r3, #0
    9b58:	e5d33000 	ldrb	r3, [r3]
    9b5c:	e6af3073 	sxtb	r3, r3
    9b60:	e50b3008 	str	r3, [fp, #-8]
    9b64:	e15b20dd 	ldrsb	r2, [fp, #-13]
    9b68:	e3093120 	movw	r3, #37152	; 0x9120
    9b6c:	e3403000 	movt	r3, #0
    9b70:	e7933102 	ldr	r3, [r3, r2, lsl #2]
    9b74:	e5d33015 	ldrb	r3, [r3, #21]
    9b78:	e54b3009 	strb	r3, [fp, #-9]
    9b7c:	e15b20d9 	ldrsb	r2, [fp, #-9]
    9b80:	e3093584 	movw	r3, #38276	; 0x9584
    9b84:	e3403000 	movt	r3, #0
    9b88:	e7d33002 	ldrb	r3, [r3, r2]
    9b8c:	e2433001 	sub	r3, r3, #1
    9b90:	e6ef1073 	uxtb	r1, r3
    9b94:	e3093584 	movw	r3, #38276	; 0x9584
    9b98:	e3403000 	movt	r3, #0
    9b9c:	e7c31002 	strb	r1, [r3, r2]
    9ba0:	e55b3009 	ldrb	r3, [fp, #-9]
    9ba4:	e54b300a 	strb	r3, [fp, #-10]
    9ba8:	e309357c 	movw	r3, #38268	; 0x957c
    9bac:	e3403000 	movt	r3, #0
    9bb0:	e51b2008 	ldr	r2, [fp, #-8]
    9bb4:	e55b100a 	ldrb	r1, [fp, #-10]
    9bb8:	e7c31082 	strb	r1, [r3, r2, lsl #1]
    9bbc:	e309257c 	movw	r2, #38268	; 0x957c
    9bc0:	e3402000 	movt	r2, #0
    9bc4:	e51b3008 	ldr	r3, [fp, #-8]
    9bc8:	e1a03083 	lsl	r3, r3, #1
    9bcc:	e0823003 	add	r3, r2, r3
    9bd0:	e55b200d 	ldrb	r2, [fp, #-13]
    9bd4:	e5c32001 	strb	r2, [r3, #1]
    9bd8:	e309057c 	movw	r0, #38268	; 0x957c
    9bdc:	e3400000 	movt	r0, #0
    9be0:	e51b1008 	ldr	r1, [fp, #-8]
    9be4:	ebffff39 	bl	98d0 <tpl_bubble_up>
    9be8:	e24bd004 	sub	sp, fp, #4
    9bec:	e8bd8800 	pop	{fp, pc}

00009bf0 <tpl_put_preempted_proc>:
    9bf0:	e92d4800 	push	{fp, lr}
    9bf4:	e28db004 	add	fp, sp, #4
    9bf8:	e24dd010 	sub	sp, sp, #16
    9bfc:	e1a03000 	mov	r3, r0
    9c00:	e54b300d 	strb	r3, [fp, #-13]
    9c04:	e309357c 	movw	r3, #38268	; 0x957c
    9c08:	e3403000 	movt	r3, #0
    9c0c:	e5d33000 	ldrb	r3, [r3]
    9c10:	e6ef3073 	uxtb	r3, r3
    9c14:	e2833001 	add	r3, r3, #1
    9c18:	e6ef3073 	uxtb	r3, r3
    9c1c:	e6ef2073 	uxtb	r2, r3
    9c20:	e309357c 	movw	r3, #38268	; 0x957c
    9c24:	e3403000 	movt	r3, #0
    9c28:	e5c32000 	strb	r2, [r3]
    9c2c:	e309357c 	movw	r3, #38268	; 0x957c
    9c30:	e3403000 	movt	r3, #0
    9c34:	e5d33000 	ldrb	r3, [r3]
    9c38:	e6af3073 	sxtb	r3, r3
    9c3c:	e50b3008 	str	r3, [fp, #-8]
    9c40:	e15b20dd 	ldrsb	r2, [fp, #-13]
    9c44:	e3093128 	movw	r3, #37160	; 0x9128
    9c48:	e3403000 	movt	r3, #0
    9c4c:	e7933102 	ldr	r3, [r3, r2, lsl #2]
    9c50:	e5d33005 	ldrb	r3, [r3, #5]
    9c54:	e54b3009 	strb	r3, [fp, #-9]
    9c58:	e309357c 	movw	r3, #38268	; 0x957c
    9c5c:	e3403000 	movt	r3, #0
    9c60:	e51b2008 	ldr	r2, [fp, #-8]
    9c64:	e55b1009 	ldrb	r1, [fp, #-9]
    9c68:	e7c31082 	strb	r1, [r3, r2, lsl #1]
    9c6c:	e309257c 	movw	r2, #38268	; 0x957c
    9c70:	e3402000 	movt	r2, #0
    9c74:	e51b3008 	ldr	r3, [fp, #-8]
    9c78:	e1a03083 	lsl	r3, r3, #1
    9c7c:	e0823003 	add	r3, r2, r3
    9c80:	e55b200d 	ldrb	r2, [fp, #-13]
    9c84:	e5c32001 	strb	r2, [r3, #1]
    9c88:	e309057c 	movw	r0, #38268	; 0x957c
    9c8c:	e3400000 	movt	r0, #0
    9c90:	e51b1008 	ldr	r1, [fp, #-8]
    9c94:	ebffff0d 	bl	98d0 <tpl_bubble_up>
    9c98:	e24bd004 	sub	sp, fp, #4
    9c9c:	e8bd8800 	pop	{fp, pc}

00009ca0 <tpl_front_proc>:
    9ca0:	e52db004 	push	{fp}		; (str fp, [sp, #-4]!)
    9ca4:	e28db000 	add	fp, sp, #0
    9ca8:	e24dd00c 	sub	sp, sp, #12
    9cac:	e309357c 	movw	r3, #38268	; 0x957c
    9cb0:	e3403000 	movt	r3, #0
    9cb4:	e24b2008 	sub	r2, fp, #8
    9cb8:	e2833002 	add	r3, r3, #2
    9cbc:	e1d330b0 	ldrh	r3, [r3]
    9cc0:	e1c230b0 	strh	r3, [r2]
    9cc4:	e3a03000 	mov	r3, #0
    9cc8:	e55b2008 	ldrb	r2, [fp, #-8]
    9ccc:	e7c73012 	bfi	r3, r2, #0, #8
    9cd0:	e55b2007 	ldrb	r2, [fp, #-7]
    9cd4:	e7cf3412 	bfi	r3, r2, #8, #8
    9cd8:	e1a00003 	mov	r0, r3
    9cdc:	e24bd000 	sub	sp, fp, #0
    9ce0:	e49db004 	pop	{fp}		; (ldr fp, [sp], #4)
    9ce4:	e12fff1e 	bx	lr

00009ce8 <tpl_remove_front_proc>:
    9ce8:	e92d4800 	push	{fp, lr}
    9cec:	e28db004 	add	fp, sp, #4
    9cf0:	e24dd010 	sub	sp, sp, #16
    9cf4:	e309357c 	movw	r3, #38268	; 0x957c
    9cf8:	e3403000 	movt	r3, #0
    9cfc:	e5d32000 	ldrb	r2, [r3]
    9d00:	e6ef2072 	uxtb	r2, r2
    9d04:	e6ef3072 	uxtb	r3, r2
    9d08:	e2433001 	sub	r3, r3, #1
    9d0c:	e6ef3073 	uxtb	r3, r3
    9d10:	e6ef1073 	uxtb	r1, r3
    9d14:	e309357c 	movw	r3, #38268	; 0x957c
    9d18:	e3403000 	movt	r3, #0
    9d1c:	e5c31000 	strb	r1, [r3]
    9d20:	e6af3072 	sxtb	r3, r2
    9d24:	e50b3008 	str	r3, [fp, #-8]
    9d28:	e3a03001 	mov	r3, #1
    9d2c:	e50b300c 	str	r3, [fp, #-12]
    9d30:	e309357c 	movw	r3, #38268	; 0x957c
    9d34:	e3403000 	movt	r3, #0
    9d38:	e24b2014 	sub	r2, fp, #20
    9d3c:	e2833002 	add	r3, r3, #2
    9d40:	e1d330b0 	ldrh	r3, [r3]
    9d44:	e1c230b0 	strh	r3, [r2]
    9d48:	e309257c 	movw	r2, #38268	; 0x957c
    9d4c:	e3402000 	movt	r2, #0
    9d50:	e51b300c 	ldr	r3, [fp, #-12]
    9d54:	e309157c 	movw	r1, #38268	; 0x957c
    9d58:	e3401000 	movt	r1, #0
    9d5c:	e51b0008 	ldr	r0, [fp, #-8]
    9d60:	e1a03083 	lsl	r3, r3, #1
    9d64:	e0823003 	add	r3, r2, r3
    9d68:	e1a02080 	lsl	r2, r0, #1
    9d6c:	e0812002 	add	r2, r1, r2
    9d70:	e1d220b0 	ldrh	r2, [r2]
    9d74:	e1c320b0 	strh	r2, [r3]
    9d78:	e309057c 	movw	r0, #38268	; 0x957c
    9d7c:	e3400000 	movt	r0, #0
    9d80:	e51b100c 	ldr	r1, [fp, #-12]
    9d84:	ebffff0c 	bl	99bc <tpl_bubble_down>
    9d88:	e15b31b4 	ldrh	r3, [fp, #-20]	; 0xffffffec
    9d8c:	e14b31b0 	strh	r3, [fp, #-16]
    9d90:	e3a03000 	mov	r3, #0
    9d94:	e55b2010 	ldrb	r2, [fp, #-16]
    9d98:	e7c73012 	bfi	r3, r2, #0, #8
    9d9c:	e55b200f 	ldrb	r2, [fp, #-15]
    9da0:	e7cf3412 	bfi	r3, r2, #8, #8
    9da4:	e1a00003 	mov	r0, r3
    9da8:	e24bd004 	sub	sp, fp, #4
    9dac:	e8bd8800 	pop	{fp, pc}

00009db0 <tpl_current_os_state>:
    9db0:	e52db004 	push	{fp}		; (str fp, [sp, #-4]!)
    9db4:	e28db000 	add	fp, sp, #0
    9db8:	e24dd00c 	sub	sp, sp, #12
    9dbc:	e3a03004 	mov	r3, #4
    9dc0:	e54b3005 	strb	r3, [fp, #-5]
    9dc4:	e3093588 	movw	r3, #38280	; 0x9588
    9dc8:	e3403000 	movt	r3, #0
    9dcc:	e5933010 	ldr	r3, [r3, #16]
    9dd0:	e3730001 	cmn	r3, #1
    9dd4:	1a000002 	bne	9de4 <tpl_current_os_state+0x34>
    9dd8:	e3a03000 	mov	r3, #0
    9ddc:	e54b3005 	strb	r3, [fp, #-5]
    9de0:	ea000016 	b	9e40 <tpl_current_os_state+0x90>
    9de4:	e3093588 	movw	r3, #38280	; 0x9588
    9de8:	e3403000 	movt	r3, #0
    9dec:	e5933010 	ldr	r3, [r3, #16]
    9df0:	e3530000 	cmp	r3, #0
    9df4:	da000002 	ble	9e04 <tpl_current_os_state+0x54>
    9df8:	e3a03002 	mov	r3, #2
    9dfc:	e54b3005 	strb	r3, [fp, #-5]
    9e00:	ea00000e 	b	9e40 <tpl_current_os_state+0x90>
    9e04:	e3093588 	movw	r3, #38280	; 0x9588
    9e08:	e3403000 	movt	r3, #0
    9e0c:	e5933010 	ldr	r3, [r3, #16]
    9e10:	e3530000 	cmp	r3, #0
    9e14:	ca000002 	bgt	9e24 <tpl_current_os_state+0x74>
    9e18:	e3a03001 	mov	r3, #1
    9e1c:	e54b3005 	strb	r3, [fp, #-5]
    9e20:	ea000006 	b	9e40 <tpl_current_os_state+0x90>
    9e24:	e3093588 	movw	r3, #38280	; 0x9588
    9e28:	e3403000 	movt	r3, #0
    9e2c:	e5933010 	ldr	r3, [r3, #16]
    9e30:	e3530000 	cmp	r3, #0
    9e34:	ca000001 	bgt	9e40 <tpl_current_os_state+0x90>
    9e38:	e3a03003 	mov	r3, #3
    9e3c:	e54b3005 	strb	r3, [fp, #-5]
    9e40:	e55b3005 	ldrb	r3, [fp, #-5]
    9e44:	e1a00003 	mov	r0, r3
    9e48:	e24bd000 	sub	sp, fp, #0
    9e4c:	e49db004 	pop	{fp}		; (ldr fp, [sp], #4)
    9e50:	e12fff1e 	bx	lr

00009e54 <tpl_get_internal_resource>:
    9e54:	e52db004 	push	{fp}		; (str fp, [sp, #-4]!)
    9e58:	e28db000 	add	fp, sp, #0
    9e5c:	e24dd014 	sub	sp, sp, #20
    9e60:	e1a03000 	mov	r3, r0
    9e64:	e54b300d 	strb	r3, [fp, #-13]
    9e68:	e15b20dd 	ldrsb	r2, [fp, #-13]
    9e6c:	e3093120 	movw	r3, #37152	; 0x9120
    9e70:	e3403000 	movt	r3, #0
    9e74:	e7933102 	ldr	r3, [r3, r2, lsl #2]
    9e78:	e5933010 	ldr	r3, [r3, #16]
    9e7c:	e50b3008 	str	r3, [fp, #-8]
    9e80:	e51b3008 	ldr	r3, [fp, #-8]
    9e84:	e3530000 	cmp	r3, #0
    9e88:	0a00001f 	beq	9f0c <tpl_get_internal_resource+0xb8>
    9e8c:	e51b3008 	ldr	r3, [fp, #-8]
    9e90:	e5d33002 	ldrb	r3, [r3, #2]
    9e94:	e3530000 	cmp	r3, #0
    9e98:	1a00001b 	bne	9f0c <tpl_get_internal_resource+0xb8>
    9e9c:	e51b3008 	ldr	r3, [fp, #-8]
    9ea0:	e3a02001 	mov	r2, #1
    9ea4:	e5c32002 	strb	r2, [r3, #2]
    9ea8:	e15b20dd 	ldrsb	r2, [fp, #-13]
    9eac:	e3093128 	movw	r3, #37160	; 0x9128
    9eb0:	e3403000 	movt	r3, #0
    9eb4:	e7933102 	ldr	r3, [r3, r2, lsl #2]
    9eb8:	e5d32005 	ldrb	r2, [r3, #5]
    9ebc:	e51b3008 	ldr	r3, [fp, #-8]
    9ec0:	e5c32001 	strb	r2, [r3, #1]
    9ec4:	e51b3008 	ldr	r3, [fp, #-8]
    9ec8:	e5d33000 	ldrb	r3, [r3]
    9ecc:	e6af2073 	sxtb	r2, r3
    9ed0:	e3093584 	movw	r3, #38276	; 0x9584
    9ed4:	e3403000 	movt	r3, #0
    9ed8:	e7d33002 	ldrb	r3, [r3, r2]
    9edc:	e2433001 	sub	r3, r3, #1
    9ee0:	e6ef1073 	uxtb	r1, r3
    9ee4:	e3093584 	movw	r3, #38276	; 0x9584
    9ee8:	e3403000 	movt	r3, #0
    9eec:	e7c31002 	strb	r1, [r3, r2]
    9ef0:	e15b20dd 	ldrsb	r2, [fp, #-13]
    9ef4:	e3093128 	movw	r3, #37160	; 0x9128
    9ef8:	e3403000 	movt	r3, #0
    9efc:	e7933102 	ldr	r3, [r3, r2, lsl #2]
    9f00:	e51b2008 	ldr	r2, [fp, #-8]
    9f04:	e5d22000 	ldrb	r2, [r2]
    9f08:	e5c32005 	strb	r2, [r3, #5]
    9f0c:	e24bd000 	sub	sp, fp, #0
    9f10:	e49db004 	pop	{fp}		; (ldr fp, [sp], #4)
    9f14:	e12fff1e 	bx	lr

00009f18 <tpl_release_internal_resource>:
    9f18:	e52db004 	push	{fp}		; (str fp, [sp, #-4]!)
    9f1c:	e28db000 	add	fp, sp, #0
    9f20:	e24dd014 	sub	sp, sp, #20
    9f24:	e1a03000 	mov	r3, r0
    9f28:	e54b300d 	strb	r3, [fp, #-13]
    9f2c:	e15b20dd 	ldrsb	r2, [fp, #-13]
    9f30:	e3093120 	movw	r3, #37152	; 0x9120
    9f34:	e3403000 	movt	r3, #0
    9f38:	e7933102 	ldr	r3, [r3, r2, lsl #2]
    9f3c:	e5933010 	ldr	r3, [r3, #16]
    9f40:	e50b3008 	str	r3, [fp, #-8]
    9f44:	e51b3008 	ldr	r3, [fp, #-8]
    9f48:	e3530000 	cmp	r3, #0
    9f4c:	0a00000d 	beq	9f88 <tpl_release_internal_resource+0x70>
    9f50:	e51b3008 	ldr	r3, [fp, #-8]
    9f54:	e5d33002 	ldrb	r3, [r3, #2]
    9f58:	e3530001 	cmp	r3, #1
    9f5c:	1a000009 	bne	9f88 <tpl_release_internal_resource+0x70>
    9f60:	e51b3008 	ldr	r3, [fp, #-8]
    9f64:	e3a02000 	mov	r2, #0
    9f68:	e5c32002 	strb	r2, [r3, #2]
    9f6c:	e15b20dd 	ldrsb	r2, [fp, #-13]
    9f70:	e3093128 	movw	r3, #37160	; 0x9128
    9f74:	e3403000 	movt	r3, #0
    9f78:	e7933102 	ldr	r3, [r3, r2, lsl #2]
    9f7c:	e51b2008 	ldr	r2, [fp, #-8]
    9f80:	e5d22001 	ldrb	r2, [r2, #1]
    9f84:	e5c32005 	strb	r2, [r3, #5]
    9f88:	e24bd000 	sub	sp, fp, #0
    9f8c:	e49db004 	pop	{fp}		; (ldr fp, [sp], #4)
    9f90:	e12fff1e 	bx	lr

00009f94 <tpl_preempt>:
    9f94:	e92d4800 	push	{fp, lr}
    9f98:	e28db004 	add	fp, sp, #4
    9f9c:	e3093588 	movw	r3, #38280	; 0x9588
    9fa0:	e3403000 	movt	r3, #0
    9fa4:	e5932010 	ldr	r2, [r3, #16]
    9fa8:	e3093588 	movw	r3, #38280	; 0x9588
    9fac:	e3403000 	movt	r3, #0
    9fb0:	e5933014 	ldr	r3, [r3, #20]
    9fb4:	e1520003 	cmp	r2, r3
    9fb8:	0a00000b 	beq	9fec <tpl_preempt+0x58>
    9fbc:	e3093588 	movw	r3, #38280	; 0x9588
    9fc0:	e3403000 	movt	r3, #0
    9fc4:	e593300c 	ldr	r3, [r3, #12]
    9fc8:	e3a02001 	mov	r2, #1
    9fcc:	e5c32006 	strb	r2, [r3, #6]
    9fd0:	e3093588 	movw	r3, #38280	; 0x9588
    9fd4:	e3403000 	movt	r3, #0
    9fd8:	e5933014 	ldr	r3, [r3, #20]
    9fdc:	e6ef3073 	uxtb	r3, r3
    9fe0:	e6af3073 	sxtb	r3, r3
    9fe4:	e1a00003 	mov	r0, r3
    9fe8:	ebffff00 	bl	9bf0 <tpl_put_preempted_proc>
    9fec:	e8bd8800 	pop	{fp, pc}

00009ff0 <tpl_run_elected>:
    9ff0:	e92d4800 	push	{fp, lr}
    9ff4:	e28db004 	add	fp, sp, #4
    9ff8:	e24dd010 	sub	sp, sp, #16
    9ffc:	e1a03000 	mov	r3, r0
    a000:	e54b300d 	strb	r3, [fp, #-13]
    a004:	e55b300d 	ldrb	r3, [fp, #-13]
    a008:	e3530000 	cmp	r3, #0
    a00c:	0a000003 	beq	a020 <tpl_run_elected+0x30>
    a010:	e3093588 	movw	r3, #38280	; 0x9588
    a014:	e3403000 	movt	r3, #0
    a018:	e5933000 	ldr	r3, [r3]
    a01c:	ea000000 	b	a024 <tpl_run_elected+0x34>
    a020:	e3a03000 	mov	r3, #0
    a024:	e50b3008 	str	r3, [fp, #-8]
    a028:	e55b300d 	ldrb	r3, [fp, #-13]
    a02c:	e3530000 	cmp	r3, #0
    a030:	0a000011 	beq	a07c <tpl_run_elected+0x8c>
    a034:	e3093588 	movw	r3, #38280	; 0x9588
    a038:	e3403000 	movt	r3, #0
    a03c:	e5933008 	ldr	r3, [r3, #8]
    a040:	e5d33006 	ldrb	r3, [r3, #6]
    a044:	e3530003 	cmp	r3, #3
    a048:	0a00000b 	beq	a07c <tpl_run_elected+0x8c>
    a04c:	e3093588 	movw	r3, #38280	; 0x9588
    a050:	e3403000 	movt	r3, #0
    a054:	e5933008 	ldr	r3, [r3, #8]
    a058:	e3a02001 	mov	r2, #1
    a05c:	e5c32006 	strb	r2, [r3, #6]
    a060:	e3093588 	movw	r3, #38280	; 0x9588
    a064:	e3403000 	movt	r3, #0
    a068:	e5933010 	ldr	r3, [r3, #16]
    a06c:	e6ef3073 	uxtb	r3, r3
    a070:	e6af3073 	sxtb	r3, r3
    a074:	e1a00003 	mov	r0, r3
    a078:	ebfffedc 	bl	9bf0 <tpl_put_preempted_proc>
    a07c:	e3093588 	movw	r3, #38280	; 0x9588
    a080:	e3403000 	movt	r3, #0
    a084:	e593200c 	ldr	r2, [r3, #12]
    a088:	e3093588 	movw	r3, #38280	; 0x9588
    a08c:	e3403000 	movt	r3, #0
    a090:	e5832008 	str	r2, [r3, #8]
    a094:	e3093588 	movw	r3, #38280	; 0x9588
    a098:	e3403000 	movt	r3, #0
    a09c:	e5932004 	ldr	r2, [r3, #4]
    a0a0:	e3093588 	movw	r3, #38280	; 0x9588
    a0a4:	e3403000 	movt	r3, #0
    a0a8:	e5832000 	str	r2, [r3]
    a0ac:	e3093588 	movw	r3, #38280	; 0x9588
    a0b0:	e3403000 	movt	r3, #0
    a0b4:	e5932014 	ldr	r2, [r3, #20]
    a0b8:	e3093588 	movw	r3, #38280	; 0x9588
    a0bc:	e3403000 	movt	r3, #0
    a0c0:	e5832010 	str	r2, [r3, #16]
    a0c4:	e3093588 	movw	r3, #38280	; 0x9588
    a0c8:	e3403000 	movt	r3, #0
    a0cc:	e5933008 	ldr	r3, [r3, #8]
    a0d0:	e3a02002 	mov	r2, #2
    a0d4:	e5c32006 	strb	r2, [r3, #6]
    a0d8:	e3093588 	movw	r3, #38280	; 0x9588
    a0dc:	e3403000 	movt	r3, #0
    a0e0:	e5933010 	ldr	r3, [r3, #16]
    a0e4:	e6ef3073 	uxtb	r3, r3
    a0e8:	e6af3073 	sxtb	r3, r3
    a0ec:	e1a00003 	mov	r0, r3
    a0f0:	ebffff57 	bl	9e54 <tpl_get_internal_resource>
    a0f4:	e51b3008 	ldr	r3, [fp, #-8]
    a0f8:	e1a00003 	mov	r0, r3
    a0fc:	e24bd004 	sub	sp, fp, #4
    a100:	e8bd8800 	pop	{fp, pc}

0000a104 <tpl_start>:
    a104:	e92d4800 	push	{fp, lr}
    a108:	e28db004 	add	fp, sp, #4
    a10c:	e24dd008 	sub	sp, sp, #8
    a110:	ebfffef4 	bl	9ce8 <tpl_remove_front_proc>
    a114:	e1a03000 	mov	r3, r0
    a118:	e14b30b8 	strh	r3, [fp, #-8]
    a11c:	e55b3007 	ldrb	r3, [fp, #-7]
    a120:	e6af2073 	sxtb	r2, r3
    a124:	e3093588 	movw	r3, #38280	; 0x9588
    a128:	e3403000 	movt	r3, #0
    a12c:	e5832014 	str	r2, [r3, #20]
    a130:	e55b3007 	ldrb	r3, [fp, #-7]
    a134:	e6af2073 	sxtb	r2, r3
    a138:	e3093128 	movw	r3, #37160	; 0x9128
    a13c:	e3403000 	movt	r3, #0
    a140:	e7932102 	ldr	r2, [r3, r2, lsl #2]
    a144:	e3093588 	movw	r3, #38280	; 0x9588
    a148:	e3403000 	movt	r3, #0
    a14c:	e583200c 	str	r2, [r3, #12]
    a150:	e55b3007 	ldrb	r3, [fp, #-7]
    a154:	e6af2073 	sxtb	r2, r3
    a158:	e3093120 	movw	r3, #37152	; 0x9120
    a15c:	e3403000 	movt	r3, #0
    a160:	e7932102 	ldr	r2, [r3, r2, lsl #2]
    a164:	e3093588 	movw	r3, #38280	; 0x9588
    a168:	e3403000 	movt	r3, #0
    a16c:	e5832004 	str	r2, [r3, #4]
    a170:	e3093588 	movw	r3, #38280	; 0x9588
    a174:	e3403000 	movt	r3, #0
    a178:	e593300c 	ldr	r3, [r3, #12]
    a17c:	e5d33006 	ldrb	r3, [r3, #6]
    a180:	e3530005 	cmp	r3, #5
    a184:	1a00000a 	bne	a1b4 <tpl_start+0xb0>
    a188:	e55b3007 	ldrb	r3, [fp, #-7]
    a18c:	e6af3073 	sxtb	r3, r3
    a190:	e1a00003 	mov	r0, r3
    a194:	eb0000b2 	bl	a464 <tpl_init_proc>
    a198:	e55b3007 	ldrb	r3, [fp, #-7]
    a19c:	e6af2073 	sxtb	r2, r3
    a1a0:	e3093128 	movw	r3, #37160	; 0x9128
    a1a4:	e3403000 	movt	r3, #0
    a1a8:	e7933102 	ldr	r3, [r3, r2, lsl #2]
    a1ac:	e55b2008 	ldrb	r2, [fp, #-8]
    a1b0:	e5c32005 	strb	r2, [r3, #5]
    a1b4:	e24bd004 	sub	sp, fp, #4
    a1b8:	e8bd8800 	pop	{fp, pc}

0000a1bc <tpl_schedule_from_running>:
    a1bc:	e92d4800 	push	{fp, lr}
    a1c0:	e28db004 	add	fp, sp, #4
    a1c4:	e24dd008 	sub	sp, sp, #8
    a1c8:	e3a03000 	mov	r3, #0
    a1cc:	e54b3005 	strb	r3, [fp, #-5]
    a1d0:	e309357c 	movw	r3, #38268	; 0x957c
    a1d4:	e3403000 	movt	r3, #0
    a1d8:	e5d31002 	ldrb	r1, [r3, #2]
    a1dc:	e3093588 	movw	r3, #38280	; 0x9588
    a1e0:	e3403000 	movt	r3, #0
    a1e4:	e5932014 	ldr	r2, [r3, #20]
    a1e8:	e3093128 	movw	r3, #37160	; 0x9128
    a1ec:	e3403000 	movt	r3, #0
    a1f0:	e7933102 	ldr	r3, [r3, r2, lsl #2]
    a1f4:	e5d33005 	ldrb	r3, [r3, #5]
    a1f8:	e6af2071 	sxtb	r2, r1
    a1fc:	e6af3073 	sxtb	r3, r3
    a200:	e1520003 	cmp	r2, r3
    a204:	da000003 	ble	a218 <tpl_schedule_from_running+0x5c>
    a208:	ebffff61 	bl	9f94 <tpl_preempt>
    a20c:	ebffffbc 	bl	a104 <tpl_start>
    a210:	e3a03003 	mov	r3, #3
    a214:	e54b3005 	strb	r3, [fp, #-5]
    a218:	e3093588 	movw	r3, #38280	; 0x9588
    a21c:	e3403000 	movt	r3, #0
    a220:	e55b2005 	ldrb	r2, [fp, #-5]
    a224:	e5c32018 	strb	r2, [r3, #24]
    a228:	e24bd004 	sub	sp, fp, #4
    a22c:	e8bd8800 	pop	{fp, pc}

0000a230 <tpl_terminate>:
    a230:	e92d4800 	push	{fp, lr}
    a234:	e28db004 	add	fp, sp, #4
    a238:	e3093588 	movw	r3, #38280	; 0x9588
    a23c:	e3403000 	movt	r3, #0
    a240:	e5933010 	ldr	r3, [r3, #16]
    a244:	e6ef3073 	uxtb	r3, r3
    a248:	e6af3073 	sxtb	r3, r3
    a24c:	e1a00003 	mov	r0, r3
    a250:	ebffff30 	bl	9f18 <tpl_release_internal_resource>
    a254:	e3093588 	movw	r3, #38280	; 0x9588
    a258:	e3403000 	movt	r3, #0
    a25c:	e5933008 	ldr	r3, [r3, #8]
    a260:	e5d33004 	ldrb	r3, [r3, #4]
    a264:	e3530000 	cmp	r3, #0
    a268:	0a000005 	beq	a284 <tpl_terminate+0x54>
    a26c:	e3093588 	movw	r3, #38280	; 0x9588
    a270:	e3403000 	movt	r3, #0
    a274:	e5933008 	ldr	r3, [r3, #8]
    a278:	e3a02005 	mov	r2, #5
    a27c:	e5c32006 	strb	r2, [r3, #6]
    a280:	ea000004 	b	a298 <tpl_terminate+0x68>
    a284:	e3093588 	movw	r3, #38280	; 0x9588
    a288:	e3403000 	movt	r3, #0
    a28c:	e5933008 	ldr	r3, [r3, #8]
    a290:	e3a02000 	mov	r2, #0
    a294:	e5c32006 	strb	r2, [r3, #6]
    a298:	e8bd8800 	pop	{fp, pc}

0000a29c <tpl_block>:
    a29c:	e92d4800 	push	{fp, lr}
    a2a0:	e28db004 	add	fp, sp, #4
    a2a4:	e3093588 	movw	r3, #38280	; 0x9588
    a2a8:	e3403000 	movt	r3, #0
    a2ac:	e5933008 	ldr	r3, [r3, #8]
    a2b0:	e3a02003 	mov	r2, #3
    a2b4:	e5c32006 	strb	r2, [r3, #6]
    a2b8:	e3093588 	movw	r3, #38280	; 0x9588
    a2bc:	e3403000 	movt	r3, #0
    a2c0:	e5933010 	ldr	r3, [r3, #16]
    a2c4:	e6ef3073 	uxtb	r3, r3
    a2c8:	e6af3073 	sxtb	r3, r3
    a2cc:	e1a00003 	mov	r0, r3
    a2d0:	ebffff10 	bl	9f18 <tpl_release_internal_resource>
    a2d4:	ebffff8a 	bl	a104 <tpl_start>
    a2d8:	e3093588 	movw	r3, #38280	; 0x9588
    a2dc:	e3403000 	movt	r3, #0
    a2e0:	e3a02003 	mov	r2, #3
    a2e4:	e5c32018 	strb	r2, [r3, #24]
    a2e8:	e8bd8800 	pop	{fp, pc}

0000a2ec <tpl_start_scheduling>:
    a2ec:	e92d4800 	push	{fp, lr}
    a2f0:	e28db004 	add	fp, sp, #4
    a2f4:	ebffff82 	bl	a104 <tpl_start>
    a2f8:	e3093588 	movw	r3, #38280	; 0x9588
    a2fc:	e3403000 	movt	r3, #0
    a300:	e3a02001 	mov	r2, #1
    a304:	e5c32018 	strb	r2, [r3, #24]
    a308:	e8bd8800 	pop	{fp, pc}

0000a30c <tpl_activate_task>:
    a30c:	e92d4800 	push	{fp, lr}
    a310:	e28db004 	add	fp, sp, #4
    a314:	e24dd018 	sub	sp, sp, #24
    a318:	e1a03000 	mov	r3, r0
    a31c:	e54b3015 	strb	r3, [fp, #-21]
    a320:	e3a03004 	mov	r3, #4
    a324:	e54b3005 	strb	r3, [fp, #-5]
    a328:	e15b21d5 	ldrsb	r2, [fp, #-21]	; 0xffffffeb
    a32c:	e3093128 	movw	r3, #37160	; 0x9128
    a330:	e3403000 	movt	r3, #0
    a334:	e7933102 	ldr	r3, [r3, r2, lsl #2]
    a338:	e50b300c 	str	r3, [fp, #-12]
    a33c:	e15b21d5 	ldrsb	r2, [fp, #-21]	; 0xffffffeb
    a340:	e3093120 	movw	r3, #37152	; 0x9120
    a344:	e3403000 	movt	r3, #0
    a348:	e7933102 	ldr	r3, [r3, r2, lsl #2]
    a34c:	e50b3010 	str	r3, [fp, #-16]
    a350:	e51b300c 	ldr	r3, [fp, #-12]
    a354:	e5d32004 	ldrb	r2, [r3, #4]
    a358:	e51b3010 	ldr	r3, [fp, #-16]
    a35c:	e5d33016 	ldrb	r3, [r3, #22]
    a360:	e1520003 	cmp	r2, r3
    a364:	2a000015 	bcs	a3c0 <tpl_activate_task+0xb4>
    a368:	e51b300c 	ldr	r3, [fp, #-12]
    a36c:	e5d33004 	ldrb	r3, [r3, #4]
    a370:	e3530000 	cmp	r3, #0
    a374:	1a000006 	bne	a394 <tpl_activate_task+0x88>
    a378:	e51b300c 	ldr	r3, [fp, #-12]
    a37c:	e3a02005 	mov	r2, #5
    a380:	e5c32006 	strb	r2, [r3, #6]
    a384:	e3093588 	movw	r3, #38280	; 0x9588
    a388:	e3403000 	movt	r3, #0
    a38c:	e3a02001 	mov	r2, #1
    a390:	e5c32019 	strb	r2, [r3, #25]
    a394:	e3a03000 	mov	r3, #0
    a398:	e54b3005 	strb	r3, [fp, #-5]
    a39c:	e15b31d5 	ldrsb	r3, [fp, #-21]	; 0xffffffeb
    a3a0:	e1a00003 	mov	r0, r3
    a3a4:	ebfffdda 	bl	9b14 <tpl_put_new_proc>
    a3a8:	e51b300c 	ldr	r3, [fp, #-12]
    a3ac:	e5d33004 	ldrb	r3, [r3, #4]
    a3b0:	e2833001 	add	r3, r3, #1
    a3b4:	e6ef2073 	uxtb	r2, r3
    a3b8:	e51b300c 	ldr	r3, [fp, #-12]
    a3bc:	e5c32004 	strb	r2, [r3, #4]
    a3c0:	e55b3005 	ldrb	r3, [fp, #-5]
    a3c4:	e1a00003 	mov	r0, r3
    a3c8:	e24bd004 	sub	sp, fp, #4
    a3cc:	e8bd8800 	pop	{fp, pc}

0000a3d0 <tpl_release>:
    a3d0:	e92d4800 	push	{fp, lr}
    a3d4:	e28db004 	add	fp, sp, #4
    a3d8:	e24dd010 	sub	sp, sp, #16
    a3dc:	e1a03000 	mov	r3, r0
    a3e0:	e54b300d 	strb	r3, [fp, #-13]
    a3e4:	e15b20dd 	ldrsb	r2, [fp, #-13]
    a3e8:	e3093128 	movw	r3, #37160	; 0x9128
    a3ec:	e3403000 	movt	r3, #0
    a3f0:	e7933102 	ldr	r3, [r3, r2, lsl #2]
    a3f4:	e50b3008 	str	r3, [fp, #-8]
    a3f8:	e51b3008 	ldr	r3, [fp, #-8]
    a3fc:	e3a02001 	mov	r2, #1
    a400:	e5c32006 	strb	r2, [r3, #6]
    a404:	e15b30dd 	ldrsb	r3, [fp, #-13]
    a408:	e1a00003 	mov	r0, r3
    a40c:	ebfffdc0 	bl	9b14 <tpl_put_new_proc>
    a410:	e3093588 	movw	r3, #38280	; 0x9588
    a414:	e3403000 	movt	r3, #0
    a418:	e3a02001 	mov	r2, #1
    a41c:	e5c32019 	strb	r2, [r3, #25]
    a420:	e24bd004 	sub	sp, fp, #4
    a424:	e8bd8800 	pop	{fp, pc}

0000a428 <tpl_set_event>:
    a428:	e52db004 	push	{fp}		; (str fp, [sp, #-4]!)
    a42c:	e28db000 	add	fp, sp, #0
    a430:	e24dd014 	sub	sp, sp, #20
    a434:	e1a03000 	mov	r3, r0
    a438:	e1a02001 	mov	r2, r1
    a43c:	e54b300d 	strb	r3, [fp, #-13]
    a440:	e1a03002 	mov	r3, r2
    a444:	e54b300e 	strb	r3, [fp, #-14]
    a448:	e3a03000 	mov	r3, #0
    a44c:	e54b3005 	strb	r3, [fp, #-5]
    a450:	e55b3005 	ldrb	r3, [fp, #-5]
    a454:	e1a00003 	mov	r0, r3
    a458:	e24bd000 	sub	sp, fp, #0
    a45c:	e49db004 	pop	{fp}		; (ldr fp, [sp], #4)
    a460:	e12fff1e 	bx	lr

0000a464 <tpl_init_proc>:
    a464:	e92d4800 	push	{fp, lr}
    a468:	e28db004 	add	fp, sp, #4
    a46c:	e24dd010 	sub	sp, sp, #16
    a470:	e1a03000 	mov	r3, r0
    a474:	e54b300d 	strb	r3, [fp, #-13]
    a478:	e15b20dd 	ldrsb	r2, [fp, #-13]
    a47c:	e3093128 	movw	r3, #37160	; 0x9128
    a480:	e3403000 	movt	r3, #0
    a484:	e7933102 	ldr	r3, [r3, r2, lsl #2]
    a488:	e50b3008 	str	r3, [fp, #-8]
    a48c:	e51b3008 	ldr	r3, [fp, #-8]
    a490:	e3a02000 	mov	r2, #0
    a494:	e5832000 	str	r2, [r3]
    a498:	e15b30dd 	ldrsb	r3, [fp, #-13]
    a49c:	e1a00003 	mov	r0, r3
    a4a0:	eb00079c 	bl	c318 <tpl_init_context>
    a4a4:	e24bd004 	sub	sp, fp, #4
    a4a8:	e8bd8800 	pop	{fp, pc}

0000a4ac <tpl_init_os>:
    a4ac:	e92d4800 	push	{fp, lr}
    a4b0:	e28db004 	add	fp, sp, #4
    a4b4:	e24dd010 	sub	sp, sp, #16
    a4b8:	e1a03000 	mov	r3, r0
    a4bc:	e54b300d 	strb	r3, [fp, #-13]
    a4c0:	e15b30dd 	ldrsb	r3, [fp, #-13]
    a4c4:	e3a02001 	mov	r2, #1
    a4c8:	e1a03312 	lsl	r3, r2, r3
    a4cc:	e54b3007 	strb	r3, [fp, #-7]
    a4d0:	e3a03000 	mov	r3, #0
    a4d4:	e54b3008 	strb	r3, [fp, #-8]
    a4d8:	e3a00001 	mov	r0, #1
    a4dc:	ebffff8a 	bl	a30c <tpl_activate_task>
    a4e0:	e1a03000 	mov	r3, r0
    a4e4:	e54b3008 	strb	r3, [fp, #-8]
    a4e8:	e3a03000 	mov	r3, #0
    a4ec:	e14b30b6 	strh	r3, [fp, #-6]
    a4f0:	ea000012 	b	a540 <tpl_init_os+0x94>
    a4f4:	e15b20b6 	ldrh	r2, [fp, #-6]
    a4f8:	e3093238 	movw	r3, #37432	; 0x9238
    a4fc:	e3403000 	movt	r3, #0
    a500:	e7d32002 	ldrb	r2, [r3, r2]
    a504:	e55b3007 	ldrb	r3, [fp, #-7]
    a508:	e0033002 	and	r3, r3, r2
    a50c:	e6ef3073 	uxtb	r3, r3
    a510:	e3530000 	cmp	r3, #0
    a514:	0a000006 	beq	a534 <tpl_init_os+0x88>
    a518:	e15b30b6 	ldrh	r3, [fp, #-6]
    a51c:	e6ef3073 	uxtb	r3, r3
    a520:	e6af3073 	sxtb	r3, r3
    a524:	e1a00003 	mov	r0, r3
    a528:	ebffff77 	bl	a30c <tpl_activate_task>
    a52c:	e1a03000 	mov	r3, r0
    a530:	e54b3008 	strb	r3, [fp, #-8]
    a534:	e15b30b6 	ldrh	r3, [fp, #-6]
    a538:	e2833001 	add	r3, r3, #1
    a53c:	e14b30b6 	strh	r3, [fp, #-6]
    a540:	e15b30b6 	ldrh	r3, [fp, #-6]
    a544:	e3530000 	cmp	r3, #0
    a548:	0affffe9 	beq	a4f4 <tpl_init_os+0x48>
    a54c:	e3a03000 	mov	r3, #0
    a550:	e14b30b6 	strh	r3, [fp, #-6]
    a554:	ea000015 	b	a5b0 <tpl_init_os+0x104>
    a558:	e15b20b6 	ldrh	r2, [fp, #-6]
    a55c:	e309323c 	movw	r3, #37436	; 0x923c
    a560:	e3403000 	movt	r3, #0
    a564:	e7d32002 	ldrb	r2, [r3, r2]
    a568:	e55b3007 	ldrb	r3, [fp, #-7]
    a56c:	e0033002 	and	r3, r3, r2
    a570:	e6ef3073 	uxtb	r3, r3
    a574:	e3530000 	cmp	r3, #0
    a578:	0a000009 	beq	a5a4 <tpl_init_os+0xf8>
    a57c:	e15b20b6 	ldrh	r2, [fp, #-6]
    a580:	e3093144 	movw	r3, #37188	; 0x9144
    a584:	e3403000 	movt	r3, #0
    a588:	e7933102 	ldr	r3, [r3, r2, lsl #2]
    a58c:	e50b300c 	str	r3, [fp, #-12]
    a590:	e51b300c 	ldr	r3, [fp, #-12]
    a594:	e3a02001 	mov	r2, #1
    a598:	e5c32014 	strb	r2, [r3, #20]
    a59c:	e51b000c 	ldr	r0, [fp, #-12]
    a5a0:	eb000044 	bl	a6b8 <tpl_insert_time_obj>
    a5a4:	e15b30b6 	ldrh	r3, [fp, #-6]
    a5a8:	e2833001 	add	r3, r3, #1
    a5ac:	e14b30b6 	strh	r3, [fp, #-6]
    a5b0:	e15b30b6 	ldrh	r3, [fp, #-6]
    a5b4:	e3530000 	cmp	r3, #0
    a5b8:	0affffe6 	beq	a558 <tpl_init_os+0xac>
    a5bc:	e24bd004 	sub	sp, fp, #4
    a5c0:	e8bd8800 	pop	{fp, pc}

0000a5c4 <tpl_call_terminate_task_service>:
    a5c4:	e92d4800 	push	{fp, lr}
    a5c8:	e28db004 	add	fp, sp, #4
    a5cc:	eb0001ee 	bl	ad8c <tpl_get_interrupt_lock_status>
    a5d0:	e1a03000 	mov	r3, r0
    a5d4:	e3530000 	cmp	r3, #0
    a5d8:	0a000000 	beq	a5e0 <tpl_call_terminate_task_service+0x1c>
    a5dc:	eb000206 	bl	adfc <tpl_reset_interrupt_lock_status>
    a5e0:	e3093588 	movw	r3, #38280	; 0x9588
    a5e4:	e3403000 	movt	r3, #0
    a5e8:	e5933008 	ldr	r3, [r3, #8]
    a5ec:	e5933000 	ldr	r3, [r3]
    a5f0:	e3530000 	cmp	r3, #0
    a5f4:	0a000006 	beq	a614 <tpl_call_terminate_task_service+0x50>
    a5f8:	e3093588 	movw	r3, #38280	; 0x9588
    a5fc:	e3403000 	movt	r3, #0
    a600:	e5933010 	ldr	r3, [r3, #16]
    a604:	e6ef3073 	uxtb	r3, r3
    a608:	e6af3073 	sxtb	r3, r3
    a60c:	e1a00003 	mov	r0, r3
    a610:	eb0003e8 	bl	b5b8 <tpl_release_all_resources>
    a614:	eb0002da 	bl	b184 <tpl_terminate_task_service>
    a618:	e8bd8800 	pop	{fp, pc}

0000a61c <tpl_call_terminate_isr2_service>:
    a61c:	e92d4800 	push	{fp, lr}
    a620:	e28db004 	add	fp, sp, #4
    a624:	e24dd008 	sub	sp, sp, #8
    a628:	e3a03000 	mov	r3, #0
    a62c:	e54b3005 	strb	r3, [fp, #-5]
    a630:	eb0001d5 	bl	ad8c <tpl_get_interrupt_lock_status>
    a634:	e1a03000 	mov	r3, r0
    a638:	e3530000 	cmp	r3, #0
    a63c:	0a000002 	beq	a64c <tpl_call_terminate_isr2_service+0x30>
    a640:	eb0001ed 	bl	adfc <tpl_reset_interrupt_lock_status>
    a644:	e3a03013 	mov	r3, #19
    a648:	e54b3005 	strb	r3, [fp, #-5]
    a64c:	e3093588 	movw	r3, #38280	; 0x9588
    a650:	e3403000 	movt	r3, #0
    a654:	e5933008 	ldr	r3, [r3, #8]
    a658:	e5933000 	ldr	r3, [r3]
    a65c:	e3530000 	cmp	r3, #0
    a660:	0a000008 	beq	a688 <tpl_call_terminate_isr2_service+0x6c>
    a664:	e3093588 	movw	r3, #38280	; 0x9588
    a668:	e3403000 	movt	r3, #0
    a66c:	e5933010 	ldr	r3, [r3, #16]
    a670:	e6ef3073 	uxtb	r3, r3
    a674:	e6af3073 	sxtb	r3, r3
    a678:	e1a00003 	mov	r0, r3
    a67c:	eb0003cd 	bl	b5b8 <tpl_release_all_resources>
    a680:	e3a03006 	mov	r3, #6
    a684:	e54b3005 	strb	r3, [fp, #-5]
    a688:	eb00026d 	bl	b044 <tpl_terminate_isr2_service>
    a68c:	e24bd004 	sub	sp, fp, #4
    a690:	e8bd8800 	pop	{fp, pc}

0000a694 <tpl_enable_counters>:
    a694:	e52db004 	push	{fp}		; (str fp, [sp, #-4]!)
    a698:	e28db000 	add	fp, sp, #0
    a69c:	e3093363 	movw	r3, #37731	; 0x9363
    a6a0:	e3403000 	movt	r3, #0
    a6a4:	e3a02001 	mov	r2, #1
    a6a8:	e5c32000 	strb	r2, [r3]
    a6ac:	e24bd000 	sub	sp, fp, #0
    a6b0:	e49db004 	pop	{fp}		; (ldr fp, [sp], #4)
    a6b4:	e12fff1e 	bx	lr

0000a6b8 <tpl_insert_time_obj>:
    a6b8:	e52db004 	push	{fp}		; (str fp, [sp, #-4]!)
    a6bc:	e28db000 	add	fp, sp, #0
    a6c0:	e24dd01c 	sub	sp, sp, #28
    a6c4:	e50b0018 	str	r0, [fp, #-24]
    a6c8:	e51b3018 	ldr	r3, [fp, #-24]
    a6cc:	e5933000 	ldr	r3, [r3]
    a6d0:	e5933000 	ldr	r3, [r3]
    a6d4:	e50b3010 	str	r3, [fp, #-16]
    a6d8:	e51b3010 	ldr	r3, [fp, #-16]
    a6dc:	e5933014 	ldr	r3, [r3, #20]
    a6e0:	e50b3008 	str	r3, [fp, #-8]
    a6e4:	e3a03000 	mov	r3, #0
    a6e8:	e50b300c 	str	r3, [fp, #-12]
    a6ec:	e51b3008 	ldr	r3, [fp, #-8]
    a6f0:	e3530000 	cmp	r3, #0
    a6f4:	1a00000d 	bne	a730 <tpl_insert_time_obj+0x78>
    a6f8:	e51b3010 	ldr	r3, [fp, #-16]
    a6fc:	e51b2018 	ldr	r2, [fp, #-24]
    a700:	e5832014 	str	r2, [r3, #20]
    a704:	e51b3010 	ldr	r3, [fp, #-16]
    a708:	e51b2018 	ldr	r2, [fp, #-24]
    a70c:	e5832018 	str	r2, [r3, #24]
    a710:	e51b3018 	ldr	r3, [fp, #-24]
    a714:	e3a02000 	mov	r2, #0
    a718:	e5832008 	str	r2, [r3, #8]
    a71c:	e51b3018 	ldr	r3, [fp, #-24]
    a720:	e5932008 	ldr	r2, [r3, #8]
    a724:	e51b3018 	ldr	r3, [fp, #-24]
    a728:	e5832004 	str	r2, [r3, #4]
    a72c:	ea00004c 	b	a864 <tpl_insert_time_obj+0x1ac>
    a730:	ea000004 	b	a748 <tpl_insert_time_obj+0x90>
    a734:	e51b3008 	ldr	r3, [fp, #-8]
    a738:	e50b300c 	str	r3, [fp, #-12]
    a73c:	e51b3008 	ldr	r3, [fp, #-8]
    a740:	e5933004 	ldr	r3, [r3, #4]
    a744:	e50b3008 	str	r3, [fp, #-8]
    a748:	e51b3008 	ldr	r3, [fp, #-8]
    a74c:	e3530000 	cmp	r3, #0
    a750:	0a000005 	beq	a76c <tpl_insert_time_obj+0xb4>
    a754:	e51b3008 	ldr	r3, [fp, #-8]
    a758:	e5932010 	ldr	r2, [r3, #16]
    a75c:	e51b3018 	ldr	r3, [fp, #-24]
    a760:	e5933010 	ldr	r3, [r3, #16]
    a764:	e1520003 	cmp	r2, r3
    a768:	9afffff1 	bls	a734 <tpl_insert_time_obj+0x7c>
    a76c:	e51b3018 	ldr	r3, [fp, #-24]
    a770:	e51b2008 	ldr	r2, [fp, #-8]
    a774:	e5832004 	str	r2, [r3, #4]
    a778:	e51b3018 	ldr	r3, [fp, #-24]
    a77c:	e51b200c 	ldr	r2, [fp, #-12]
    a780:	e5832008 	str	r2, [r3, #8]
    a784:	e51b3008 	ldr	r3, [fp, #-8]
    a788:	e3530000 	cmp	r3, #0
    a78c:	0a000002 	beq	a79c <tpl_insert_time_obj+0xe4>
    a790:	e51b3008 	ldr	r3, [fp, #-8]
    a794:	e51b2018 	ldr	r2, [fp, #-24]
    a798:	e5832008 	str	r2, [r3, #8]
    a79c:	e51b300c 	ldr	r3, [fp, #-12]
    a7a0:	e3530000 	cmp	r3, #0
    a7a4:	0a000003 	beq	a7b8 <tpl_insert_time_obj+0x100>
    a7a8:	e51b300c 	ldr	r3, [fp, #-12]
    a7ac:	e51b2018 	ldr	r2, [fp, #-24]
    a7b0:	e5832004 	str	r2, [r3, #4]
    a7b4:	ea000002 	b	a7c4 <tpl_insert_time_obj+0x10c>
    a7b8:	e51b3010 	ldr	r3, [fp, #-16]
    a7bc:	e51b2018 	ldr	r2, [fp, #-24]
    a7c0:	e5832014 	str	r2, [r3, #20]
    a7c4:	e51b3010 	ldr	r3, [fp, #-16]
    a7c8:	e5933018 	ldr	r3, [r3, #24]
    a7cc:	e5932010 	ldr	r2, [r3, #16]
    a7d0:	e51b3010 	ldr	r3, [fp, #-16]
    a7d4:	e5933010 	ldr	r3, [r3, #16]
    a7d8:	e1520003 	cmp	r2, r3
    a7dc:	2a000010 	bcs	a824 <tpl_insert_time_obj+0x16c>
    a7e0:	e51b3018 	ldr	r3, [fp, #-24]
    a7e4:	e5932010 	ldr	r2, [r3, #16]
    a7e8:	e51b3010 	ldr	r3, [fp, #-16]
    a7ec:	e5933010 	ldr	r3, [r3, #16]
    a7f0:	e1520003 	cmp	r2, r3
    a7f4:	8a000006 	bhi	a814 <tpl_insert_time_obj+0x15c>
    a7f8:	e51b3018 	ldr	r3, [fp, #-24]
    a7fc:	e5932010 	ldr	r2, [r3, #16]
    a800:	e51b3010 	ldr	r3, [fp, #-16]
    a804:	e5933018 	ldr	r3, [r3, #24]
    a808:	e5933010 	ldr	r3, [r3, #16]
    a80c:	e1520003 	cmp	r2, r3
    a810:	2a000013 	bcs	a864 <tpl_insert_time_obj+0x1ac>
    a814:	e51b3010 	ldr	r3, [fp, #-16]
    a818:	e51b2018 	ldr	r2, [fp, #-24]
    a81c:	e5832018 	str	r2, [r3, #24]
    a820:	ea00000f 	b	a864 <tpl_insert_time_obj+0x1ac>
    a824:	e51b3018 	ldr	r3, [fp, #-24]
    a828:	e5932010 	ldr	r2, [r3, #16]
    a82c:	e51b3010 	ldr	r3, [fp, #-16]
    a830:	e5933010 	ldr	r3, [r3, #16]
    a834:	e1520003 	cmp	r2, r3
    a838:	9a000009 	bls	a864 <tpl_insert_time_obj+0x1ac>
    a83c:	e51b3018 	ldr	r3, [fp, #-24]
    a840:	e5932010 	ldr	r2, [r3, #16]
    a844:	e51b3010 	ldr	r3, [fp, #-16]
    a848:	e5933018 	ldr	r3, [r3, #24]
    a84c:	e5933010 	ldr	r3, [r3, #16]
    a850:	e1520003 	cmp	r2, r3
    a854:	2a000002 	bcs	a864 <tpl_insert_time_obj+0x1ac>
    a858:	e51b3010 	ldr	r3, [fp, #-16]
    a85c:	e51b2018 	ldr	r2, [fp, #-24]
    a860:	e5832018 	str	r2, [r3, #24]
    a864:	e24bd000 	sub	sp, fp, #0
    a868:	e49db004 	pop	{fp}		; (ldr fp, [sp], #4)
    a86c:	e12fff1e 	bx	lr

0000a870 <tpl_remove_time_obj>:
    a870:	e52db004 	push	{fp}		; (str fp, [sp, #-4]!)
    a874:	e28db000 	add	fp, sp, #0
    a878:	e24dd014 	sub	sp, sp, #20
    a87c:	e50b0010 	str	r0, [fp, #-16]
    a880:	e51b3010 	ldr	r3, [fp, #-16]
    a884:	e5933000 	ldr	r3, [r3]
    a888:	e5933000 	ldr	r3, [r3]
    a88c:	e50b3008 	str	r3, [fp, #-8]
    a890:	e51b3008 	ldr	r3, [fp, #-8]
    a894:	e5932014 	ldr	r2, [r3, #20]
    a898:	e51b3010 	ldr	r3, [fp, #-16]
    a89c:	e1520003 	cmp	r2, r3
    a8a0:	1a000003 	bne	a8b4 <tpl_remove_time_obj+0x44>
    a8a4:	e51b3010 	ldr	r3, [fp, #-16]
    a8a8:	e5932004 	ldr	r2, [r3, #4]
    a8ac:	e51b3008 	ldr	r3, [fp, #-8]
    a8b0:	e5832014 	str	r2, [r3, #20]
    a8b4:	e51b3008 	ldr	r3, [fp, #-8]
    a8b8:	e5932018 	ldr	r2, [r3, #24]
    a8bc:	e51b3010 	ldr	r3, [fp, #-16]
    a8c0:	e1520003 	cmp	r2, r3
    a8c4:	1a000003 	bne	a8d8 <tpl_remove_time_obj+0x68>
    a8c8:	e51b3010 	ldr	r3, [fp, #-16]
    a8cc:	e5932004 	ldr	r2, [r3, #4]
    a8d0:	e51b3008 	ldr	r3, [fp, #-8]
    a8d4:	e5832018 	str	r2, [r3, #24]
    a8d8:	e51b3010 	ldr	r3, [fp, #-16]
    a8dc:	e5933004 	ldr	r3, [r3, #4]
    a8e0:	e3530000 	cmp	r3, #0
    a8e4:	0a000004 	beq	a8fc <tpl_remove_time_obj+0x8c>
    a8e8:	e51b3010 	ldr	r3, [fp, #-16]
    a8ec:	e5933004 	ldr	r3, [r3, #4]
    a8f0:	e51b2010 	ldr	r2, [fp, #-16]
    a8f4:	e5922008 	ldr	r2, [r2, #8]
    a8f8:	e5832008 	str	r2, [r3, #8]
    a8fc:	e51b3010 	ldr	r3, [fp, #-16]
    a900:	e5933008 	ldr	r3, [r3, #8]
    a904:	e3530000 	cmp	r3, #0
    a908:	0a000004 	beq	a920 <tpl_remove_time_obj+0xb0>
    a90c:	e51b3010 	ldr	r3, [fp, #-16]
    a910:	e5933008 	ldr	r3, [r3, #8]
    a914:	e51b2010 	ldr	r2, [fp, #-16]
    a918:	e5922004 	ldr	r2, [r2, #4]
    a91c:	e5832004 	str	r2, [r3, #4]
    a920:	e51b3008 	ldr	r3, [fp, #-8]
    a924:	e5933018 	ldr	r3, [r3, #24]
    a928:	e3530000 	cmp	r3, #0
    a92c:	1a000003 	bne	a940 <tpl_remove_time_obj+0xd0>
    a930:	e51b3008 	ldr	r3, [fp, #-8]
    a934:	e5932014 	ldr	r2, [r3, #20]
    a938:	e51b3008 	ldr	r3, [fp, #-8]
    a93c:	e5832018 	str	r2, [r3, #24]
    a940:	e24bd000 	sub	sp, fp, #0
    a944:	e49db004 	pop	{fp}		; (ldr fp, [sp], #4)
    a948:	e12fff1e 	bx	lr

0000a94c <tpl_remove_timeobj_set>:
    a94c:	e52db004 	push	{fp}		; (str fp, [sp, #-4]!)
    a950:	e28db000 	add	fp, sp, #0
    a954:	e24dd02c 	sub	sp, sp, #44	; 0x2c
    a958:	e50b0028 	str	r0, [fp, #-40]	; 0x28
    a95c:	e51b3028 	ldr	r3, [fp, #-40]	; 0x28
    a960:	e5933018 	ldr	r3, [r3, #24]
    a964:	e50b3010 	str	r3, [fp, #-16]
    a968:	e3a03000 	mov	r3, #0
    a96c:	e50b3008 	str	r3, [fp, #-8]
    a970:	e51b3010 	ldr	r3, [fp, #-16]
    a974:	e3530000 	cmp	r3, #0
    a978:	0a000043 	beq	aa8c <tpl_remove_timeobj_set+0x140>
    a97c:	e51b3010 	ldr	r3, [fp, #-16]
    a980:	e50b300c 	str	r3, [fp, #-12]
    a984:	e51b3010 	ldr	r3, [fp, #-16]
    a988:	e5933010 	ldr	r3, [r3, #16]
    a98c:	e50b3014 	str	r3, [fp, #-20]
    a990:	e3a03000 	mov	r3, #0
    a994:	e54b3015 	strb	r3, [fp, #-21]
    a998:	e3a03001 	mov	r3, #1
    a99c:	e54b3015 	strb	r3, [fp, #-21]
    a9a0:	e51b300c 	ldr	r3, [fp, #-12]
    a9a4:	e50b301c 	str	r3, [fp, #-28]
    a9a8:	e51b300c 	ldr	r3, [fp, #-12]
    a9ac:	e5933004 	ldr	r3, [r3, #4]
    a9b0:	e50b300c 	str	r3, [fp, #-12]
    a9b4:	e51b300c 	ldr	r3, [fp, #-12]
    a9b8:	e3530000 	cmp	r3, #0
    a9bc:	0a000004 	beq	a9d4 <tpl_remove_timeobj_set+0x88>
    a9c0:	e51b300c 	ldr	r3, [fp, #-12]
    a9c4:	e5932010 	ldr	r2, [r3, #16]
    a9c8:	e51b3014 	ldr	r3, [fp, #-20]
    a9cc:	e1520003 	cmp	r2, r3
    a9d0:	0afffff0 	beq	a998 <tpl_remove_timeobj_set+0x4c>
    a9d4:	e51b3010 	ldr	r3, [fp, #-16]
    a9d8:	e5933008 	ldr	r3, [r3, #8]
    a9dc:	e50b300c 	str	r3, [fp, #-12]
    a9e0:	e51b301c 	ldr	r3, [fp, #-28]
    a9e4:	e5933004 	ldr	r3, [r3, #4]
    a9e8:	e50b3020 	str	r3, [fp, #-32]
    a9ec:	e51b300c 	ldr	r3, [fp, #-12]
    a9f0:	e3530000 	cmp	r3, #0
    a9f4:	0a000002 	beq	aa04 <tpl_remove_timeobj_set+0xb8>
    a9f8:	e51b300c 	ldr	r3, [fp, #-12]
    a9fc:	e51b2020 	ldr	r2, [fp, #-32]
    aa00:	e5832004 	str	r2, [r3, #4]
    aa04:	e51b3020 	ldr	r3, [fp, #-32]
    aa08:	e3530000 	cmp	r3, #0
    aa0c:	0a000002 	beq	aa1c <tpl_remove_timeobj_set+0xd0>
    aa10:	e51b3020 	ldr	r3, [fp, #-32]
    aa14:	e51b200c 	ldr	r2, [fp, #-12]
    aa18:	e5832008 	str	r2, [r3, #8]
    aa1c:	e51b3028 	ldr	r3, [fp, #-40]	; 0x28
    aa20:	e5932014 	ldr	r2, [r3, #20]
    aa24:	e51b3010 	ldr	r3, [fp, #-16]
    aa28:	e1520003 	cmp	r2, r3
    aa2c:	1a000002 	bne	aa3c <tpl_remove_timeobj_set+0xf0>
    aa30:	e51b3028 	ldr	r3, [fp, #-40]	; 0x28
    aa34:	e51b2020 	ldr	r2, [fp, #-32]
    aa38:	e5832014 	str	r2, [r3, #20]
    aa3c:	e55b3015 	ldrb	r3, [fp, #-21]
    aa40:	e3530001 	cmp	r3, #1
    aa44:	1a000002 	bne	aa54 <tpl_remove_timeobj_set+0x108>
    aa48:	e51b3028 	ldr	r3, [fp, #-40]	; 0x28
    aa4c:	e5933018 	ldr	r3, [r3, #24]
    aa50:	e50b3008 	str	r3, [fp, #-8]
    aa54:	e51b3020 	ldr	r3, [fp, #-32]
    aa58:	e3530000 	cmp	r3, #0
    aa5c:	0a000003 	beq	aa70 <tpl_remove_timeobj_set+0x124>
    aa60:	e51b3028 	ldr	r3, [fp, #-40]	; 0x28
    aa64:	e51b2020 	ldr	r2, [fp, #-32]
    aa68:	e5832018 	str	r2, [r3, #24]
    aa6c:	ea000003 	b	aa80 <tpl_remove_timeobj_set+0x134>
    aa70:	e51b3028 	ldr	r3, [fp, #-40]	; 0x28
    aa74:	e5932014 	ldr	r2, [r3, #20]
    aa78:	e51b3028 	ldr	r3, [fp, #-40]	; 0x28
    aa7c:	e5832018 	str	r2, [r3, #24]
    aa80:	e51b301c 	ldr	r3, [fp, #-28]
    aa84:	e3a02000 	mov	r2, #0
    aa88:	e5832004 	str	r2, [r3, #4]
    aa8c:	e51b3008 	ldr	r3, [fp, #-8]
    aa90:	e1a00003 	mov	r0, r3
    aa94:	e24bd000 	sub	sp, fp, #0
    aa98:	e49db004 	pop	{fp}		; (ldr fp, [sp], #4)
    aa9c:	e12fff1e 	bx	lr

0000aaa0 <tpl_counter_tick>:
    aaa0:	e92d4800 	push	{fp, lr}
    aaa4:	e28db004 	add	fp, sp, #4
    aaa8:	e24dd020 	sub	sp, sp, #32
    aaac:	e50b0020 	str	r0, [fp, #-32]
    aab0:	e3093363 	movw	r3, #37731	; 0x9363
    aab4:	e3403000 	movt	r3, #0
    aab8:	e5d33000 	ldrb	r3, [r3]
    aabc:	e3530000 	cmp	r3, #0
    aac0:	0a00005d 	beq	ac3c <tpl_counter_tick+0x19c>
    aac4:	e51b3020 	ldr	r3, [fp, #-32]
    aac8:	e593300c 	ldr	r3, [r3, #12]
    aacc:	e2832001 	add	r2, r3, #1
    aad0:	e51b3020 	ldr	r3, [fp, #-32]
    aad4:	e583200c 	str	r2, [r3, #12]
    aad8:	e51b3020 	ldr	r3, [fp, #-32]
    aadc:	e593200c 	ldr	r2, [r3, #12]
    aae0:	e51b3020 	ldr	r3, [fp, #-32]
    aae4:	e5933000 	ldr	r3, [r3]
    aae8:	e1520003 	cmp	r2, r3
    aaec:	1a000052 	bne	ac3c <tpl_counter_tick+0x19c>
    aaf0:	e51b3020 	ldr	r3, [fp, #-32]
    aaf4:	e5933010 	ldr	r3, [r3, #16]
    aaf8:	e50b300c 	str	r3, [fp, #-12]
    aafc:	e51b300c 	ldr	r3, [fp, #-12]
    ab00:	e2833001 	add	r3, r3, #1
    ab04:	e50b300c 	str	r3, [fp, #-12]
    ab08:	e51b3020 	ldr	r3, [fp, #-32]
    ab0c:	e5932004 	ldr	r2, [r3, #4]
    ab10:	e51b300c 	ldr	r3, [fp, #-12]
    ab14:	e1520003 	cmp	r2, r3
    ab18:	2a000001 	bcs	ab24 <tpl_counter_tick+0x84>
    ab1c:	e3a03000 	mov	r3, #0
    ab20:	e50b300c 	str	r3, [fp, #-12]
    ab24:	e51b3020 	ldr	r3, [fp, #-32]
    ab28:	e51b200c 	ldr	r2, [fp, #-12]
    ab2c:	e5832010 	str	r2, [r3, #16]
    ab30:	e51b3020 	ldr	r3, [fp, #-32]
    ab34:	e3a02000 	mov	r2, #0
    ab38:	e583200c 	str	r2, [r3, #12]
    ab3c:	e51b3020 	ldr	r3, [fp, #-32]
    ab40:	e5933018 	ldr	r3, [r3, #24]
    ab44:	e50b3008 	str	r3, [fp, #-8]
    ab48:	e51b3008 	ldr	r3, [fp, #-8]
    ab4c:	e3530000 	cmp	r3, #0
    ab50:	0a000039 	beq	ac3c <tpl_counter_tick+0x19c>
    ab54:	e51b3008 	ldr	r3, [fp, #-8]
    ab58:	e5932010 	ldr	r2, [r3, #16]
    ab5c:	e51b300c 	ldr	r3, [fp, #-12]
    ab60:	e1520003 	cmp	r2, r3
    ab64:	1a000034 	bne	ac3c <tpl_counter_tick+0x19c>
    ab68:	e51b0020 	ldr	r0, [fp, #-32]
    ab6c:	ebffff76 	bl	a94c <tpl_remove_timeobj_set>
    ab70:	e50b0014 	str	r0, [fp, #-20]
    ab74:	e51b3014 	ldr	r3, [fp, #-20]
    ab78:	e3530000 	cmp	r3, #0
    ab7c:	0a00002e 	beq	ac3c <tpl_counter_tick+0x19c>
    ab80:	e51b3014 	ldr	r3, [fp, #-20]
    ab84:	e50b3008 	str	r3, [fp, #-8]
    ab88:	e51b3008 	ldr	r3, [fp, #-8]
    ab8c:	e5933004 	ldr	r3, [r3, #4]
    ab90:	e50b3018 	str	r3, [fp, #-24]
    ab94:	e51b3008 	ldr	r3, [fp, #-8]
    ab98:	e5933000 	ldr	r3, [r3]
    ab9c:	e5933004 	ldr	r3, [r3, #4]
    aba0:	e50b301c 	str	r3, [fp, #-28]
    aba4:	e51b301c 	ldr	r3, [fp, #-28]
    aba8:	e51b0008 	ldr	r0, [fp, #-8]
    abac:	e12fff33 	blx	r3
    abb0:	e51b3008 	ldr	r3, [fp, #-8]
    abb4:	e593300c 	ldr	r3, [r3, #12]
    abb8:	e3530000 	cmp	r3, #0
    abbc:	0a000016 	beq	ac1c <tpl_counter_tick+0x17c>
    abc0:	e51b3008 	ldr	r3, [fp, #-8]
    abc4:	e5932010 	ldr	r2, [r3, #16]
    abc8:	e51b3008 	ldr	r3, [fp, #-8]
    abcc:	e593300c 	ldr	r3, [r3, #12]
    abd0:	e0823003 	add	r3, r2, r3
    abd4:	e50b3010 	str	r3, [fp, #-16]
    abd8:	e51b3020 	ldr	r3, [fp, #-32]
    abdc:	e5932004 	ldr	r2, [r3, #4]
    abe0:	e51b3010 	ldr	r3, [fp, #-16]
    abe4:	e1520003 	cmp	r2, r3
    abe8:	2a000005 	bcs	ac04 <tpl_counter_tick+0x164>
    abec:	e51b3020 	ldr	r3, [fp, #-32]
    abf0:	e5933004 	ldr	r3, [r3, #4]
    abf4:	e51b2010 	ldr	r2, [fp, #-16]
    abf8:	e0633002 	rsb	r3, r3, r2
    abfc:	e2433001 	sub	r3, r3, #1
    ac00:	e50b3010 	str	r3, [fp, #-16]
    ac04:	e51b3008 	ldr	r3, [fp, #-8]
    ac08:	e51b2010 	ldr	r2, [fp, #-16]
    ac0c:	e5832010 	str	r2, [r3, #16]
    ac10:	e51b0008 	ldr	r0, [fp, #-8]
    ac14:	ebfffea7 	bl	a6b8 <tpl_insert_time_obj>
    ac18:	ea000002 	b	ac28 <tpl_counter_tick+0x188>
    ac1c:	e51b3008 	ldr	r3, [fp, #-8]
    ac20:	e3a02000 	mov	r2, #0
    ac24:	e5c32014 	strb	r2, [r3, #20]
    ac28:	e51b3018 	ldr	r3, [fp, #-24]
    ac2c:	e50b3008 	str	r3, [fp, #-8]
    ac30:	e51b3008 	ldr	r3, [fp, #-8]
    ac34:	e3530000 	cmp	r3, #0
    ac38:	1affffd2 	bne	ab88 <tpl_counter_tick+0xe8>
    ac3c:	e24bd004 	sub	sp, fp, #4
    ac40:	e8bd8800 	pop	{fp, pc}

0000ac44 <tpl_action_callback>:
    ac44:	e92d4800 	push	{fp, lr}
    ac48:	e28db004 	add	fp, sp, #4
    ac4c:	e24dd008 	sub	sp, sp, #8
    ac50:	e50b0008 	str	r0, [fp, #-8]
    ac54:	e51b3008 	ldr	r3, [fp, #-8]
    ac58:	e5933004 	ldr	r3, [r3, #4]
    ac5c:	e12fff33 	blx	r3
    ac60:	e24bd004 	sub	sp, fp, #4
    ac64:	e8bd8800 	pop	{fp, pc}

0000ac68 <tpl_action_activate_task>:
    ac68:	e92d4800 	push	{fp, lr}
    ac6c:	e28db004 	add	fp, sp, #4
    ac70:	e24dd010 	sub	sp, sp, #16
    ac74:	e50b0010 	str	r0, [fp, #-16]
    ac78:	e3a03000 	mov	r3, #0
    ac7c:	e54b3005 	strb	r3, [fp, #-5]
    ac80:	e51b3010 	ldr	r3, [fp, #-16]
    ac84:	e5d33004 	ldrb	r3, [r3, #4]
    ac88:	e6af3073 	sxtb	r3, r3
    ac8c:	e1a00003 	mov	r0, r3
    ac90:	ebfffd9d 	bl	a30c <tpl_activate_task>
    ac94:	e1a03000 	mov	r3, r0
    ac98:	e54b3005 	strb	r3, [fp, #-5]
    ac9c:	e24bd004 	sub	sp, fp, #4
    aca0:	e8bd8800 	pop	{fp, pc}

0000aca4 <tpl_get_active_application_mode_service>:
    aca4:	e92d4800 	push	{fp, lr}
    aca8:	e28db004 	add	fp, sp, #4
    acac:	e24dd008 	sub	sp, sp, #8
    acb0:	e3a03000 	mov	r3, #0
    acb4:	e54b3005 	strb	r3, [fp, #-5]
    acb8:	eb000033 	bl	ad8c <tpl_get_interrupt_lock_status>
    acbc:	e1a03000 	mov	r3, r0
    acc0:	e3530000 	cmp	r3, #0
    acc4:	0a000001 	beq	acd0 <tpl_get_active_application_mode_service+0x2c>
    acc8:	e3a03013 	mov	r3, #19
    accc:	e54b3005 	strb	r3, [fp, #-5]
    acd0:	e3093364 	movw	r3, #37732	; 0x9364
    acd4:	e3403000 	movt	r3, #0
    acd8:	e5d33000 	ldrb	r3, [r3]
    acdc:	e54b3006 	strb	r3, [fp, #-6]
    ace0:	e55b3006 	ldrb	r3, [fp, #-6]
    ace4:	e6af3073 	sxtb	r3, r3
    ace8:	e1a00003 	mov	r0, r3
    acec:	e24bd004 	sub	sp, fp, #4
    acf0:	e8bd8800 	pop	{fp, pc}

0000acf4 <tpl_start_os_service>:
    acf4:	e92d4800 	push	{fp, lr}
    acf8:	e28db004 	add	fp, sp, #4
    acfc:	e24dd010 	sub	sp, sp, #16
    ad00:	e1a03000 	mov	r3, r0
    ad04:	e54b300d 	strb	r3, [fp, #-13]
    ad08:	e3a03000 	mov	r3, #0
    ad0c:	e54b3005 	strb	r3, [fp, #-5]
    ad10:	e55b3005 	ldrb	r3, [fp, #-5]
    ad14:	e3530000 	cmp	r3, #0
    ad18:	1a000005 	bne	ad34 <tpl_start_os_service+0x40>
    ad1c:	ebfffc23 	bl	9db0 <tpl_current_os_state>
    ad20:	e1a03000 	mov	r3, r0
    ad24:	e3530000 	cmp	r3, #0
    ad28:	0a000001 	beq	ad34 <tpl_start_os_service+0x40>
    ad2c:	e3a03007 	mov	r3, #7
    ad30:	e54b3005 	strb	r3, [fp, #-5]
    ad34:	e55b3005 	ldrb	r3, [fp, #-5]
    ad38:	e3530000 	cmp	r3, #0
    ad3c:	1a000008 	bne	ad64 <tpl_start_os_service+0x70>
    ad40:	e3093364 	movw	r3, #37732	; 0x9364
    ad44:	e3403000 	movt	r3, #0
    ad48:	e55b200d 	ldrb	r2, [fp, #-13]
    ad4c:	e5c32000 	strb	r2, [r3]
    ad50:	e15b30dd 	ldrsb	r3, [fp, #-13]
    ad54:	e1a00003 	mov	r0, r3
    ad58:	ebfffdd3 	bl	a4ac <tpl_init_os>
    ad5c:	ebfffe4c 	bl	a694 <tpl_enable_counters>
    ad60:	ebfffd61 	bl	a2ec <tpl_start_scheduling>
    ad64:	e24bd004 	sub	sp, fp, #4
    ad68:	e8bd8800 	pop	{fp, pc}

0000ad6c <tpl_shutdown_os_service>:
    ad6c:	e92d4800 	push	{fp, lr}
    ad70:	e28db004 	add	fp, sp, #4
    ad74:	e24dd008 	sub	sp, sp, #8
    ad78:	e1a03000 	mov	r3, r0
    ad7c:	e54b3005 	strb	r3, [fp, #-5]
    ad80:	eb0005a8 	bl	c428 <tpl_shutdown>
    ad84:	e24bd004 	sub	sp, fp, #4
    ad88:	e8bd8800 	pop	{fp, pc}

0000ad8c <tpl_get_interrupt_lock_status>:
    ad8c:	e52db004 	push	{fp}		; (str fp, [sp, #-4]!)
    ad90:	e28db000 	add	fp, sp, #0
    ad94:	e24dd00c 	sub	sp, sp, #12
    ad98:	e309336c 	movw	r3, #37740	; 0x936c
    ad9c:	e3403000 	movt	r3, #0
    ada0:	e5d33000 	ldrb	r3, [r3]
    ada4:	e3530001 	cmp	r3, #1
    ada8:	0a000009 	beq	add4 <tpl_get_interrupt_lock_status+0x48>
    adac:	e3093374 	movw	r3, #37748	; 0x9374
    adb0:	e3403000 	movt	r3, #0
    adb4:	e5933000 	ldr	r3, [r3]
    adb8:	e3530000 	cmp	r3, #0
    adbc:	1a000004 	bne	add4 <tpl_get_interrupt_lock_status+0x48>
    adc0:	e3093370 	movw	r3, #37744	; 0x9370
    adc4:	e3403000 	movt	r3, #0
    adc8:	e5933000 	ldr	r3, [r3]
    adcc:	e3530000 	cmp	r3, #0
    add0:	0a000002 	beq	ade0 <tpl_get_interrupt_lock_status+0x54>
    add4:	e3a03001 	mov	r3, #1
    add8:	e54b3005 	strb	r3, [fp, #-5]
    addc:	ea000001 	b	ade8 <tpl_get_interrupt_lock_status+0x5c>
    ade0:	e3a03000 	mov	r3, #0
    ade4:	e54b3005 	strb	r3, [fp, #-5]
    ade8:	e55b3005 	ldrb	r3, [fp, #-5]
    adec:	e1a00003 	mov	r0, r3
    adf0:	e24bd000 	sub	sp, fp, #0
    adf4:	e49db004 	pop	{fp}		; (ldr fp, [sp], #4)
    adf8:	e12fff1e 	bx	lr

0000adfc <tpl_reset_interrupt_lock_status>:
    adfc:	e52db004 	push	{fp}		; (str fp, [sp, #-4]!)
    ae00:	e28db000 	add	fp, sp, #0
    ae04:	e309336c 	movw	r3, #37740	; 0x936c
    ae08:	e3403000 	movt	r3, #0
    ae0c:	e3a02000 	mov	r2, #0
    ae10:	e5c32000 	strb	r2, [r3]
    ae14:	e3093370 	movw	r3, #37744	; 0x9370
    ae18:	e3403000 	movt	r3, #0
    ae1c:	e3a02000 	mov	r2, #0
    ae20:	e5832000 	str	r2, [r3]
    ae24:	e3093374 	movw	r3, #37748	; 0x9374
    ae28:	e3403000 	movt	r3, #0
    ae2c:	e3a02000 	mov	r2, #0
    ae30:	e5832000 	str	r2, [r3]
    ae34:	e3093378 	movw	r3, #37752	; 0x9378
    ae38:	e3403000 	movt	r3, #0
    ae3c:	e5932000 	ldr	r2, [r3]
    ae40:	e3093368 	movw	r3, #37736	; 0x9368
    ae44:	e3403000 	movt	r3, #0
    ae48:	e5832000 	str	r2, [r3]
    ae4c:	e24bd000 	sub	sp, fp, #0
    ae50:	e49db004 	pop	{fp}		; (ldr fp, [sp], #4)
    ae54:	e12fff1e 	bx	lr

0000ae58 <tpl_suspend_all_interrupts_service>:
    ae58:	e92d4800 	push	{fp, lr}
    ae5c:	e28db004 	add	fp, sp, #4
    ae60:	eb000521 	bl	c2ec <tpl_disable_interrupts>
    ae64:	e3093368 	movw	r3, #37736	; 0x9368
    ae68:	e3403000 	movt	r3, #0
    ae6c:	e5933000 	ldr	r3, [r3]
    ae70:	e2832001 	add	r2, r3, #1
    ae74:	e3093368 	movw	r3, #37736	; 0x9368
    ae78:	e3403000 	movt	r3, #0
    ae7c:	e5832000 	str	r2, [r3]
    ae80:	e3093370 	movw	r3, #37744	; 0x9370
    ae84:	e3403000 	movt	r3, #0
    ae88:	e5933000 	ldr	r3, [r3]
    ae8c:	e2832001 	add	r2, r3, #1
    ae90:	e3093370 	movw	r3, #37744	; 0x9370
    ae94:	e3403000 	movt	r3, #0
    ae98:	e5832000 	str	r2, [r3]
    ae9c:	e8bd8800 	pop	{fp, pc}

0000aea0 <tpl_resume_all_interrupts_service>:
    aea0:	e92d4800 	push	{fp, lr}
    aea4:	e28db004 	add	fp, sp, #4
    aea8:	e3093370 	movw	r3, #37744	; 0x9370
    aeac:	e3403000 	movt	r3, #0
    aeb0:	e5933000 	ldr	r3, [r3]
    aeb4:	e3530000 	cmp	r3, #0
    aeb8:	0a000013 	beq	af0c <tpl_resume_all_interrupts_service+0x6c>
    aebc:	e3093368 	movw	r3, #37736	; 0x9368
    aec0:	e3403000 	movt	r3, #0
    aec4:	e5933000 	ldr	r3, [r3]
    aec8:	e2432001 	sub	r2, r3, #1
    aecc:	e3093368 	movw	r3, #37736	; 0x9368
    aed0:	e3403000 	movt	r3, #0
    aed4:	e5832000 	str	r2, [r3]
    aed8:	e3093370 	movw	r3, #37744	; 0x9370
    aedc:	e3403000 	movt	r3, #0
    aee0:	e5933000 	ldr	r3, [r3]
    aee4:	e2432001 	sub	r2, r3, #1
    aee8:	e3093370 	movw	r3, #37744	; 0x9370
    aeec:	e3403000 	movt	r3, #0
    aef0:	e5832000 	str	r2, [r3]
    aef4:	e3093368 	movw	r3, #37736	; 0x9368
    aef8:	e3403000 	movt	r3, #0
    aefc:	e5933000 	ldr	r3, [r3]
    af00:	e3530000 	cmp	r3, #0
    af04:	1a000000 	bne	af0c <tpl_resume_all_interrupts_service+0x6c>
    af08:	eb0004ef 	bl	c2cc <tpl_enable_interrupts>
    af0c:	e8bd8800 	pop	{fp, pc}

0000af10 <tpl_disable_all_interrupts_service>:
    af10:	e92d4800 	push	{fp, lr}
    af14:	e28db004 	add	fp, sp, #4
    af18:	e3093370 	movw	r3, #37744	; 0x9370
    af1c:	e3403000 	movt	r3, #0
    af20:	e5933000 	ldr	r3, [r3]
    af24:	e3530000 	cmp	r3, #0
    af28:	1a000009 	bne	af54 <tpl_disable_all_interrupts_service+0x44>
    af2c:	e3093374 	movw	r3, #37748	; 0x9374
    af30:	e3403000 	movt	r3, #0
    af34:	e5933000 	ldr	r3, [r3]
    af38:	e3530000 	cmp	r3, #0
    af3c:	1a000004 	bne	af54 <tpl_disable_all_interrupts_service+0x44>
    af40:	eb0004e9 	bl	c2ec <tpl_disable_interrupts>
    af44:	e309336c 	movw	r3, #37740	; 0x936c
    af48:	e3403000 	movt	r3, #0
    af4c:	e3a02001 	mov	r2, #1
    af50:	e5c32000 	strb	r2, [r3]
    af54:	e8bd8800 	pop	{fp, pc}

0000af58 <tpl_enable_all_interrupts_service>:
    af58:	e92d4800 	push	{fp, lr}
    af5c:	e28db004 	add	fp, sp, #4
    af60:	e309336c 	movw	r3, #37740	; 0x936c
    af64:	e3403000 	movt	r3, #0
    af68:	e5d33000 	ldrb	r3, [r3]
    af6c:	e3530000 	cmp	r3, #0
    af70:	0a000004 	beq	af88 <tpl_enable_all_interrupts_service+0x30>
    af74:	e309336c 	movw	r3, #37740	; 0x936c
    af78:	e3403000 	movt	r3, #0
    af7c:	e3a02000 	mov	r2, #0
    af80:	e5c32000 	strb	r2, [r3]
    af84:	eb0004d0 	bl	c2cc <tpl_enable_interrupts>
    af88:	e8bd8800 	pop	{fp, pc}

0000af8c <tpl_suspend_os_interrupts_service>:
    af8c:	e92d4800 	push	{fp, lr}
    af90:	e28db004 	add	fp, sp, #4
    af94:	eb0004d4 	bl	c2ec <tpl_disable_interrupts>
    af98:	e3093368 	movw	r3, #37736	; 0x9368
    af9c:	e3403000 	movt	r3, #0
    afa0:	e5933000 	ldr	r3, [r3]
    afa4:	e2832001 	add	r2, r3, #1
    afa8:	e3093368 	movw	r3, #37736	; 0x9368
    afac:	e3403000 	movt	r3, #0
    afb0:	e5832000 	str	r2, [r3]
    afb4:	e3093374 	movw	r3, #37748	; 0x9374
    afb8:	e3403000 	movt	r3, #0
    afbc:	e5933000 	ldr	r3, [r3]
    afc0:	e2832001 	add	r2, r3, #1
    afc4:	e3093374 	movw	r3, #37748	; 0x9374
    afc8:	e3403000 	movt	r3, #0
    afcc:	e5832000 	str	r2, [r3]
    afd0:	e8bd8800 	pop	{fp, pc}

0000afd4 <tpl_resume_os_interrupts_service>:
    afd4:	e92d4800 	push	{fp, lr}
    afd8:	e28db004 	add	fp, sp, #4
    afdc:	e3093374 	movw	r3, #37748	; 0x9374
    afe0:	e3403000 	movt	r3, #0
    afe4:	e5933000 	ldr	r3, [r3]
    afe8:	e3530000 	cmp	r3, #0
    afec:	0a000013 	beq	b040 <tpl_resume_os_interrupts_service+0x6c>
    aff0:	e3093368 	movw	r3, #37736	; 0x9368
    aff4:	e3403000 	movt	r3, #0
    aff8:	e5933000 	ldr	r3, [r3]
    affc:	e2432001 	sub	r2, r3, #1
    b000:	e3093368 	movw	r3, #37736	; 0x9368
    b004:	e3403000 	movt	r3, #0
    b008:	e5832000 	str	r2, [r3]
    b00c:	e3093374 	movw	r3, #37748	; 0x9374
    b010:	e3403000 	movt	r3, #0
    b014:	e5933000 	ldr	r3, [r3]
    b018:	e2432001 	sub	r2, r3, #1
    b01c:	e3093374 	movw	r3, #37748	; 0x9374
    b020:	e3403000 	movt	r3, #0
    b024:	e5832000 	str	r2, [r3]
    b028:	e3093368 	movw	r3, #37736	; 0x9368
    b02c:	e3403000 	movt	r3, #0
    b030:	e5933000 	ldr	r3, [r3]
    b034:	e3530000 	cmp	r3, #0
    b038:	1a000000 	bne	b040 <tpl_resume_os_interrupts_service+0x6c>
    b03c:	eb0004a2 	bl	c2cc <tpl_enable_interrupts>
    b040:	e8bd8800 	pop	{fp, pc}

0000b044 <tpl_terminate_isr2_service>:
    b044:	e92d4800 	push	{fp, lr}
    b048:	e28db004 	add	fp, sp, #4
    b04c:	e24dd008 	sub	sp, sp, #8
    b050:	e3a03000 	mov	r3, #0
    b054:	e54b3005 	strb	r3, [fp, #-5]
    b058:	ebffff4b 	bl	ad8c <tpl_get_interrupt_lock_status>
    b05c:	e1a03000 	mov	r3, r0
    b060:	e3530000 	cmp	r3, #0
    b064:	0a000001 	beq	b070 <tpl_terminate_isr2_service+0x2c>
    b068:	e3a03013 	mov	r3, #19
    b06c:	e54b3005 	strb	r3, [fp, #-5]
    b070:	e55b3005 	ldrb	r3, [fp, #-5]
    b074:	e3530000 	cmp	r3, #0
    b078:	1a000001 	bne	b084 <tpl_terminate_isr2_service+0x40>
    b07c:	e3a03002 	mov	r3, #2
    b080:	e54b3005 	strb	r3, [fp, #-5]
    b084:	e55b3005 	ldrb	r3, [fp, #-5]
    b088:	e3530000 	cmp	r3, #0
    b08c:	1a000007 	bne	b0b0 <tpl_terminate_isr2_service+0x6c>
    b090:	e3093588 	movw	r3, #38280	; 0x9588
    b094:	e3403000 	movt	r3, #0
    b098:	e5933008 	ldr	r3, [r3, #8]
    b09c:	e5933000 	ldr	r3, [r3]
    b0a0:	e3530000 	cmp	r3, #0
    b0a4:	0a000001 	beq	b0b0 <tpl_terminate_isr2_service+0x6c>
    b0a8:	e3a03006 	mov	r3, #6
    b0ac:	e54b3005 	strb	r3, [fp, #-5]
    b0b0:	e55b3005 	ldrb	r3, [fp, #-5]
    b0b4:	e1a00003 	mov	r0, r3
    b0b8:	e24bd004 	sub	sp, fp, #4
    b0bc:	e8bd8800 	pop	{fp, pc}

0000b0c0 <tpl_null_it>:
    b0c0:	e52db004 	push	{fp}		; (str fp, [sp, #-4]!)
    b0c4:	e28db000 	add	fp, sp, #0
    b0c8:	e24dd00c 	sub	sp, sp, #12
    b0cc:	e50b0008 	str	r0, [fp, #-8]
    b0d0:	e24bd000 	sub	sp, fp, #0
    b0d4:	e49db004 	pop	{fp}		; (ldr fp, [sp], #4)
    b0d8:	e12fff1e 	bx	lr

0000b0dc <tpl_activate_task_service>:
    b0dc:	e92d4800 	push	{fp, lr}
    b0e0:	e28db004 	add	fp, sp, #4
    b0e4:	e24dd010 	sub	sp, sp, #16
    b0e8:	e1a03000 	mov	r3, r0
    b0ec:	e54b300d 	strb	r3, [fp, #-13]
    b0f0:	e3a03000 	mov	r3, #0
    b0f4:	e54b3005 	strb	r3, [fp, #-5]
    b0f8:	ebffff23 	bl	ad8c <tpl_get_interrupt_lock_status>
    b0fc:	e1a03000 	mov	r3, r0
    b100:	e3530000 	cmp	r3, #0
    b104:	0a000001 	beq	b110 <tpl_activate_task_service+0x34>
    b108:	e3a03013 	mov	r3, #19
    b10c:	e54b3005 	strb	r3, [fp, #-5]
    b110:	e55b3005 	ldrb	r3, [fp, #-5]
    b114:	e3530000 	cmp	r3, #0
    b118:	1a000007 	bne	b13c <tpl_activate_task_service+0x60>
    b11c:	e15b30dd 	ldrsb	r3, [fp, #-13]
    b120:	e3530000 	cmp	r3, #0
    b124:	ca000002 	bgt	b134 <tpl_activate_task_service+0x58>
    b128:	e15b30dd 	ldrsb	r3, [fp, #-13]
    b12c:	e3530000 	cmp	r3, #0
    b130:	aa000001 	bge	b13c <tpl_activate_task_service+0x60>
    b134:	e3a03003 	mov	r3, #3
    b138:	e54b3005 	strb	r3, [fp, #-5]
    b13c:	e55b3005 	ldrb	r3, [fp, #-5]
    b140:	e3530000 	cmp	r3, #0
    b144:	1a00000a 	bne	b174 <tpl_activate_task_service+0x98>
    b148:	e15b30dd 	ldrsb	r3, [fp, #-13]
    b14c:	e1a00003 	mov	r0, r3
    b150:	ebfffc6d 	bl	a30c <tpl_activate_task>
    b154:	e1a03000 	mov	r3, r0
    b158:	e54b3005 	strb	r3, [fp, #-5]
    b15c:	e3093588 	movw	r3, #38280	; 0x9588
    b160:	e3403000 	movt	r3, #0
    b164:	e5d33019 	ldrb	r3, [r3, #25]
    b168:	e3530000 	cmp	r3, #0
    b16c:	0a000000 	beq	b174 <tpl_activate_task_service+0x98>
    b170:	ebfffc11 	bl	a1bc <tpl_schedule_from_running>
    b174:	e55b3005 	ldrb	r3, [fp, #-5]
    b178:	e1a00003 	mov	r0, r3
    b17c:	e24bd004 	sub	sp, fp, #4
    b180:	e8bd8800 	pop	{fp, pc}

0000b184 <tpl_terminate_task_service>:
    b184:	e92d4800 	push	{fp, lr}
    b188:	e28db004 	add	fp, sp, #4
    b18c:	e24dd008 	sub	sp, sp, #8
    b190:	e3a03000 	mov	r3, #0
    b194:	e54b3005 	strb	r3, [fp, #-5]
    b198:	ebfffefb 	bl	ad8c <tpl_get_interrupt_lock_status>
    b19c:	e1a03000 	mov	r3, r0
    b1a0:	e3530000 	cmp	r3, #0
    b1a4:	0a000001 	beq	b1b0 <tpl_terminate_task_service+0x2c>
    b1a8:	e3a03013 	mov	r3, #19
    b1ac:	e54b3005 	strb	r3, [fp, #-5]
    b1b0:	e55b3005 	ldrb	r3, [fp, #-5]
    b1b4:	e3530000 	cmp	r3, #0
    b1b8:	1a000005 	bne	b1d4 <tpl_terminate_task_service+0x50>
    b1bc:	ebfffafb 	bl	9db0 <tpl_current_os_state>
    b1c0:	e1a03000 	mov	r3, r0
    b1c4:	e3530001 	cmp	r3, #1
    b1c8:	0a000001 	beq	b1d4 <tpl_terminate_task_service+0x50>
    b1cc:	e3a03002 	mov	r3, #2
    b1d0:	e54b3005 	strb	r3, [fp, #-5]
    b1d4:	e55b3005 	ldrb	r3, [fp, #-5]
    b1d8:	e3530000 	cmp	r3, #0
    b1dc:	1a000007 	bne	b200 <tpl_terminate_task_service+0x7c>
    b1e0:	e3093588 	movw	r3, #38280	; 0x9588
    b1e4:	e3403000 	movt	r3, #0
    b1e8:	e5933008 	ldr	r3, [r3, #8]
    b1ec:	e5933000 	ldr	r3, [r3]
    b1f0:	e3530000 	cmp	r3, #0
    b1f4:	0a000001 	beq	b200 <tpl_terminate_task_service+0x7c>
    b1f8:	e3a03006 	mov	r3, #6
    b1fc:	e54b3005 	strb	r3, [fp, #-5]
    b200:	e55b3005 	ldrb	r3, [fp, #-5]
    b204:	e3530000 	cmp	r3, #0
    b208:	1a00000c 	bne	b240 <tpl_terminate_task_service+0xbc>
    b20c:	e3093588 	movw	r3, #38280	; 0x9588
    b210:	e3403000 	movt	r3, #0
    b214:	e5933008 	ldr	r3, [r3, #8]
    b218:	e5d32004 	ldrb	r2, [r3, #4]
    b21c:	e2422001 	sub	r2, r2, #1
    b220:	e6ef2072 	uxtb	r2, r2
    b224:	e5c32004 	strb	r2, [r3, #4]
    b228:	ebfffc00 	bl	a230 <tpl_terminate>
    b22c:	ebfffbb4 	bl	a104 <tpl_start>
    b230:	e3093588 	movw	r3, #38280	; 0x9588
    b234:	e3403000 	movt	r3, #0
    b238:	e3a02001 	mov	r2, #1
    b23c:	e5c32018 	strb	r2, [r3, #24]
    b240:	e55b3005 	ldrb	r3, [fp, #-5]
    b244:	e1a00003 	mov	r0, r3
    b248:	e24bd004 	sub	sp, fp, #4
    b24c:	e8bd8800 	pop	{fp, pc}

0000b250 <tpl_chain_task_service>:
    b250:	e92d4800 	push	{fp, lr}
    b254:	e28db004 	add	fp, sp, #4
    b258:	e24dd010 	sub	sp, sp, #16
    b25c:	e1a03000 	mov	r3, r0
    b260:	e54b300d 	strb	r3, [fp, #-13]
    b264:	e3a03000 	mov	r3, #0
    b268:	e54b3005 	strb	r3, [fp, #-5]
    b26c:	ebfffec6 	bl	ad8c <tpl_get_interrupt_lock_status>
    b270:	e1a03000 	mov	r3, r0
    b274:	e3530000 	cmp	r3, #0
    b278:	0a000001 	beq	b284 <tpl_chain_task_service+0x34>
    b27c:	e3a03013 	mov	r3, #19
    b280:	e54b3005 	strb	r3, [fp, #-5]
    b284:	e55b3005 	ldrb	r3, [fp, #-5]
    b288:	e3530000 	cmp	r3, #0
    b28c:	1a000005 	bne	b2a8 <tpl_chain_task_service+0x58>
    b290:	ebfffac6 	bl	9db0 <tpl_current_os_state>
    b294:	e1a03000 	mov	r3, r0
    b298:	e3530001 	cmp	r3, #1
    b29c:	0a000001 	beq	b2a8 <tpl_chain_task_service+0x58>
    b2a0:	e3a03002 	mov	r3, #2
    b2a4:	e54b3005 	strb	r3, [fp, #-5]
    b2a8:	e55b3005 	ldrb	r3, [fp, #-5]
    b2ac:	e3530000 	cmp	r3, #0
    b2b0:	1a000007 	bne	b2d4 <tpl_chain_task_service+0x84>
    b2b4:	e15b30dd 	ldrsb	r3, [fp, #-13]
    b2b8:	e3530000 	cmp	r3, #0
    b2bc:	ca000002 	bgt	b2cc <tpl_chain_task_service+0x7c>
    b2c0:	e15b30dd 	ldrsb	r3, [fp, #-13]
    b2c4:	e3530000 	cmp	r3, #0
    b2c8:	aa000001 	bge	b2d4 <tpl_chain_task_service+0x84>
    b2cc:	e3a03003 	mov	r3, #3
    b2d0:	e54b3005 	strb	r3, [fp, #-5]
    b2d4:	e55b3005 	ldrb	r3, [fp, #-5]
    b2d8:	e3530000 	cmp	r3, #0
    b2dc:	1a000007 	bne	b300 <tpl_chain_task_service+0xb0>
    b2e0:	e3093588 	movw	r3, #38280	; 0x9588
    b2e4:	e3403000 	movt	r3, #0
    b2e8:	e5933008 	ldr	r3, [r3, #8]
    b2ec:	e5933000 	ldr	r3, [r3]
    b2f0:	e3530000 	cmp	r3, #0
    b2f4:	0a000001 	beq	b300 <tpl_chain_task_service+0xb0>
    b2f8:	e3a03006 	mov	r3, #6
    b2fc:	e54b3005 	strb	r3, [fp, #-5]
    b300:	e55b3005 	ldrb	r3, [fp, #-5]
    b304:	e3530000 	cmp	r3, #0
    b308:	1a00001c 	bne	b380 <tpl_chain_task_service+0x130>
    b30c:	e3093588 	movw	r3, #38280	; 0x9588
    b310:	e3403000 	movt	r3, #0
    b314:	e5933008 	ldr	r3, [r3, #8]
    b318:	e5d32004 	ldrb	r2, [r3, #4]
    b31c:	e2422001 	sub	r2, r2, #1
    b320:	e6ef2072 	uxtb	r2, r2
    b324:	e5c32004 	strb	r2, [r3, #4]
    b328:	e15b30dd 	ldrsb	r3, [fp, #-13]
    b32c:	e1a00003 	mov	r0, r3
    b330:	ebfffbf5 	bl	a30c <tpl_activate_task>
    b334:	e1a03000 	mov	r3, r0
    b338:	e54b3005 	strb	r3, [fp, #-5]
    b33c:	e55b3005 	ldrb	r3, [fp, #-5]
    b340:	e3530000 	cmp	r3, #0
    b344:	1a000006 	bne	b364 <tpl_chain_task_service+0x114>
    b348:	ebfffbb8 	bl	a230 <tpl_terminate>
    b34c:	ebfffb6c 	bl	a104 <tpl_start>
    b350:	e3093588 	movw	r3, #38280	; 0x9588
    b354:	e3403000 	movt	r3, #0
    b358:	e3a02001 	mov	r2, #1
    b35c:	e5c32018 	strb	r2, [r3, #24]
    b360:	ea000006 	b	b380 <tpl_chain_task_service+0x130>
    b364:	e3093588 	movw	r3, #38280	; 0x9588
    b368:	e3403000 	movt	r3, #0
    b36c:	e5933008 	ldr	r3, [r3, #8]
    b370:	e5d32004 	ldrb	r2, [r3, #4]
    b374:	e2822001 	add	r2, r2, #1
    b378:	e6ef2072 	uxtb	r2, r2
    b37c:	e5c32004 	strb	r2, [r3, #4]
    b380:	e55b3005 	ldrb	r3, [fp, #-5]
    b384:	e1a00003 	mov	r0, r3
    b388:	e24bd004 	sub	sp, fp, #4
    b38c:	e8bd8800 	pop	{fp, pc}

0000b390 <tpl_schedule_service>:
    b390:	e92d4800 	push	{fp, lr}
    b394:	e28db004 	add	fp, sp, #4
    b398:	e24dd008 	sub	sp, sp, #8
    b39c:	e3a03000 	mov	r3, #0
    b3a0:	e54b3005 	strb	r3, [fp, #-5]
    b3a4:	ebfffe78 	bl	ad8c <tpl_get_interrupt_lock_status>
    b3a8:	e1a03000 	mov	r3, r0
    b3ac:	e3530000 	cmp	r3, #0
    b3b0:	0a000001 	beq	b3bc <tpl_schedule_service+0x2c>
    b3b4:	e3a03013 	mov	r3, #19
    b3b8:	e54b3005 	strb	r3, [fp, #-5]
    b3bc:	e55b3005 	ldrb	r3, [fp, #-5]
    b3c0:	e3530000 	cmp	r3, #0
    b3c4:	1a000005 	bne	b3e0 <tpl_schedule_service+0x50>
    b3c8:	ebfffa78 	bl	9db0 <tpl_current_os_state>
    b3cc:	e1a03000 	mov	r3, r0
    b3d0:	e3530001 	cmp	r3, #1
    b3d4:	0a000001 	beq	b3e0 <tpl_schedule_service+0x50>
    b3d8:	e3a03002 	mov	r3, #2
    b3dc:	e54b3005 	strb	r3, [fp, #-5]
    b3e0:	e55b3005 	ldrb	r3, [fp, #-5]
    b3e4:	e3530000 	cmp	r3, #0
    b3e8:	1a000007 	bne	b40c <tpl_schedule_service+0x7c>
    b3ec:	e3093588 	movw	r3, #38280	; 0x9588
    b3f0:	e3403000 	movt	r3, #0
    b3f4:	e5933008 	ldr	r3, [r3, #8]
    b3f8:	e5933000 	ldr	r3, [r3]
    b3fc:	e3530000 	cmp	r3, #0
    b400:	0a000001 	beq	b40c <tpl_schedule_service+0x7c>
    b404:	e3a03006 	mov	r3, #6
    b408:	e54b3005 	strb	r3, [fp, #-5]
    b40c:	e55b3005 	ldrb	r3, [fp, #-5]
    b410:	e3530000 	cmp	r3, #0
    b414:	1a000016 	bne	b474 <tpl_schedule_service+0xe4>
    b418:	e3093588 	movw	r3, #38280	; 0x9588
    b41c:	e3403000 	movt	r3, #0
    b420:	e5933010 	ldr	r3, [r3, #16]
    b424:	e6ef3073 	uxtb	r3, r3
    b428:	e6af3073 	sxtb	r3, r3
    b42c:	e1a00003 	mov	r0, r3
    b430:	ebfffab8 	bl	9f18 <tpl_release_internal_resource>
    b434:	ebfffb60 	bl	a1bc <tpl_schedule_from_running>
    b438:	e3093588 	movw	r3, #38280	; 0x9588
    b43c:	e3403000 	movt	r3, #0
    b440:	e5932010 	ldr	r2, [r3, #16]
    b444:	e3093588 	movw	r3, #38280	; 0x9588
    b448:	e3403000 	movt	r3, #0
    b44c:	e5933014 	ldr	r3, [r3, #20]
    b450:	e1520003 	cmp	r2, r3
    b454:	1a000006 	bne	b474 <tpl_schedule_service+0xe4>
    b458:	e3093588 	movw	r3, #38280	; 0x9588
    b45c:	e3403000 	movt	r3, #0
    b460:	e5933010 	ldr	r3, [r3, #16]
    b464:	e6ef3073 	uxtb	r3, r3
    b468:	e6af3073 	sxtb	r3, r3
    b46c:	e1a00003 	mov	r0, r3
    b470:	ebfffa77 	bl	9e54 <tpl_get_internal_resource>
    b474:	e55b3005 	ldrb	r3, [fp, #-5]
    b478:	e1a00003 	mov	r0, r3
    b47c:	e24bd004 	sub	sp, fp, #4
    b480:	e8bd8800 	pop	{fp, pc}

0000b484 <tpl_get_task_id_service>:
    b484:	e92d4800 	push	{fp, lr}
    b488:	e28db004 	add	fp, sp, #4
    b48c:	e24dd010 	sub	sp, sp, #16
    b490:	e50b0010 	str	r0, [fp, #-16]
    b494:	e3a03000 	mov	r3, #0
    b498:	e54b3005 	strb	r3, [fp, #-5]
    b49c:	ebfffe3a 	bl	ad8c <tpl_get_interrupt_lock_status>
    b4a0:	e1a03000 	mov	r3, r0
    b4a4:	e3530000 	cmp	r3, #0
    b4a8:	0a000001 	beq	b4b4 <tpl_get_task_id_service+0x30>
    b4ac:	e3a03013 	mov	r3, #19
    b4b0:	e54b3005 	strb	r3, [fp, #-5]
    b4b4:	e55b3005 	ldrb	r3, [fp, #-5]
    b4b8:	e3530000 	cmp	r3, #0
    b4bc:	1a000010 	bne	b504 <tpl_get_task_id_service+0x80>
    b4c0:	e3093588 	movw	r3, #38280	; 0x9588
    b4c4:	e3403000 	movt	r3, #0
    b4c8:	e5933010 	ldr	r3, [r3, #16]
    b4cc:	e3530000 	cmp	r3, #0
    b4d0:	ca000006 	bgt	b4f0 <tpl_get_task_id_service+0x6c>
    b4d4:	e3093588 	movw	r3, #38280	; 0x9588
    b4d8:	e3403000 	movt	r3, #0
    b4dc:	e5933010 	ldr	r3, [r3, #16]
    b4e0:	e6ef2073 	uxtb	r2, r3
    b4e4:	e51b3010 	ldr	r3, [fp, #-16]
    b4e8:	e5c32000 	strb	r2, [r3]
    b4ec:	ea000004 	b	b504 <tpl_get_task_id_service+0x80>
    b4f0:	e309303d 	movw	r3, #36925	; 0x903d
    b4f4:	e3403000 	movt	r3, #0
    b4f8:	e5d32000 	ldrb	r2, [r3]
    b4fc:	e51b3010 	ldr	r3, [fp, #-16]
    b500:	e5c32000 	strb	r2, [r3]
    b504:	e55b3005 	ldrb	r3, [fp, #-5]
    b508:	e1a00003 	mov	r0, r3
    b50c:	e24bd004 	sub	sp, fp, #4
    b510:	e8bd8800 	pop	{fp, pc}

0000b514 <tpl_get_task_state_service>:
    b514:	e92d4800 	push	{fp, lr}
    b518:	e28db004 	add	fp, sp, #4
    b51c:	e24dd010 	sub	sp, sp, #16
    b520:	e1a03000 	mov	r3, r0
    b524:	e50b1014 	str	r1, [fp, #-20]
    b528:	e54b300d 	strb	r3, [fp, #-13]
    b52c:	e3a03000 	mov	r3, #0
    b530:	e54b3005 	strb	r3, [fp, #-5]
    b534:	ebfffe14 	bl	ad8c <tpl_get_interrupt_lock_status>
    b538:	e1a03000 	mov	r3, r0
    b53c:	e3530000 	cmp	r3, #0
    b540:	0a000001 	beq	b54c <tpl_get_task_state_service+0x38>
    b544:	e3a03013 	mov	r3, #19
    b548:	e54b3005 	strb	r3, [fp, #-5]
    b54c:	e55b3005 	ldrb	r3, [fp, #-5]
    b550:	e3530000 	cmp	r3, #0
    b554:	1a000007 	bne	b578 <tpl_get_task_state_service+0x64>
    b558:	e15b30dd 	ldrsb	r3, [fp, #-13]
    b55c:	e3530000 	cmp	r3, #0
    b560:	ca000002 	bgt	b570 <tpl_get_task_state_service+0x5c>
    b564:	e15b30dd 	ldrsb	r3, [fp, #-13]
    b568:	e3530000 	cmp	r3, #0
    b56c:	aa000001 	bge	b578 <tpl_get_task_state_service+0x64>
    b570:	e3a03003 	mov	r3, #3
    b574:	e54b3005 	strb	r3, [fp, #-5]
    b578:	e55b3005 	ldrb	r3, [fp, #-5]
    b57c:	e3530000 	cmp	r3, #0
    b580:	1a000008 	bne	b5a8 <tpl_get_task_state_service+0x94>
    b584:	e15b20dd 	ldrsb	r2, [fp, #-13]
    b588:	e3093128 	movw	r3, #37160	; 0x9128
    b58c:	e3403000 	movt	r3, #0
    b590:	e7933102 	ldr	r3, [r3, r2, lsl #2]
    b594:	e5d33006 	ldrb	r3, [r3, #6]
    b598:	e2033003 	and	r3, r3, #3
    b59c:	e6ef2073 	uxtb	r2, r3
    b5a0:	e51b3014 	ldr	r3, [fp, #-20]
    b5a4:	e5c32000 	strb	r2, [r3]
    b5a8:	e55b3005 	ldrb	r3, [fp, #-5]
    b5ac:	e1a00003 	mov	r0, r3
    b5b0:	e24bd004 	sub	sp, fp, #4
    b5b4:	e8bd8800 	pop	{fp, pc}

0000b5b8 <tpl_release_all_resources>:
    b5b8:	e52db004 	push	{fp}		; (str fp, [sp, #-4]!)
    b5bc:	e28db000 	add	fp, sp, #0
    b5c0:	e24dd014 	sub	sp, sp, #20
    b5c4:	e1a03000 	mov	r3, r0
    b5c8:	e54b300d 	strb	r3, [fp, #-13]
    b5cc:	e15b20dd 	ldrsb	r2, [fp, #-13]
    b5d0:	e3093128 	movw	r3, #37160	; 0x9128
    b5d4:	e3403000 	movt	r3, #0
    b5d8:	e7933102 	ldr	r3, [r3, r2, lsl #2]
    b5dc:	e5933000 	ldr	r3, [r3]
    b5e0:	e50b3008 	str	r3, [fp, #-8]
    b5e4:	e51b3008 	ldr	r3, [fp, #-8]
    b5e8:	e3530000 	cmp	r3, #0
    b5ec:	0a000015 	beq	b648 <tpl_release_all_resources+0x90>
    b5f0:	e15b20dd 	ldrsb	r2, [fp, #-13]
    b5f4:	e3093128 	movw	r3, #37160	; 0x9128
    b5f8:	e3403000 	movt	r3, #0
    b5fc:	e7933102 	ldr	r3, [r3, r2, lsl #2]
    b600:	e3a02000 	mov	r2, #0
    b604:	e5832000 	str	r2, [r3]
    b608:	e51b3008 	ldr	r3, [fp, #-8]
    b60c:	e5933004 	ldr	r3, [r3, #4]
    b610:	e50b300c 	str	r3, [fp, #-12]
    b614:	e309303d 	movw	r3, #36925	; 0x903d
    b618:	e3403000 	movt	r3, #0
    b61c:	e5d32000 	ldrb	r2, [r3]
    b620:	e51b3008 	ldr	r3, [fp, #-8]
    b624:	e5c32002 	strb	r2, [r3, #2]
    b628:	e51b3008 	ldr	r3, [fp, #-8]
    b62c:	e3a02000 	mov	r2, #0
    b630:	e5832004 	str	r2, [r3, #4]
    b634:	e51b300c 	ldr	r3, [fp, #-12]
    b638:	e50b3008 	str	r3, [fp, #-8]
    b63c:	e51b3008 	ldr	r3, [fp, #-8]
    b640:	e3530000 	cmp	r3, #0
    b644:	1affffef 	bne	b608 <tpl_release_all_resources+0x50>
    b648:	e24bd000 	sub	sp, fp, #0
    b64c:	e49db004 	pop	{fp}		; (ldr fp, [sp], #4)
    b650:	e12fff1e 	bx	lr

0000b654 <tpl_get_resource_service>:
    b654:	e92d4800 	push	{fp, lr}
    b658:	e28db004 	add	fp, sp, #4
    b65c:	e24dd010 	sub	sp, sp, #16
    b660:	e1a03000 	mov	r3, r0
    b664:	e54b300d 	strb	r3, [fp, #-13]
    b668:	e3a03000 	mov	r3, #0
    b66c:	e54b3005 	strb	r3, [fp, #-5]
    b670:	ebfffdc5 	bl	ad8c <tpl_get_interrupt_lock_status>
    b674:	e1a03000 	mov	r3, r0
    b678:	e3530000 	cmp	r3, #0
    b67c:	0a000001 	beq	b688 <tpl_get_resource_service+0x34>
    b680:	e3a03013 	mov	r3, #19
    b684:	e54b3005 	strb	r3, [fp, #-5]
    b688:	e55b3005 	ldrb	r3, [fp, #-5]
    b68c:	e3530000 	cmp	r3, #0
    b690:	1a000004 	bne	b6a8 <tpl_get_resource_service+0x54>
    b694:	e55b300d 	ldrb	r3, [fp, #-13]
    b698:	e3530000 	cmp	r3, #0
    b69c:	0a000001 	beq	b6a8 <tpl_get_resource_service+0x54>
    b6a0:	e3a03003 	mov	r3, #3
    b6a4:	e54b3005 	strb	r3, [fp, #-5]
    b6a8:	e55b3005 	ldrb	r3, [fp, #-5]
    b6ac:	e3530000 	cmp	r3, #0
    b6b0:	1a000051 	bne	b7fc <tpl_get_resource_service+0x1a8>
    b6b4:	e55b200d 	ldrb	r2, [fp, #-13]
    b6b8:	e3093044 	movw	r3, #36932	; 0x9044
    b6bc:	e3403000 	movt	r3, #0
    b6c0:	e7933102 	ldr	r3, [r3, r2, lsl #2]
    b6c4:	e50b300c 	str	r3, [fp, #-12]
    b6c8:	e55b3005 	ldrb	r3, [fp, #-5]
    b6cc:	e3530000 	cmp	r3, #0
    b6d0:	1a000014 	bne	b728 <tpl_get_resource_service+0xd4>
    b6d4:	e51b300c 	ldr	r3, [fp, #-12]
    b6d8:	e5d32002 	ldrb	r2, [r3, #2]
    b6dc:	e309303d 	movw	r3, #36925	; 0x903d
    b6e0:	e3403000 	movt	r3, #0
    b6e4:	e5d33000 	ldrb	r3, [r3]
    b6e8:	e6af2072 	sxtb	r2, r2
    b6ec:	e6af3073 	sxtb	r3, r3
    b6f0:	e1520003 	cmp	r2, r3
    b6f4:	1a000009 	bne	b720 <tpl_get_resource_service+0xcc>
    b6f8:	e3093588 	movw	r3, #38280	; 0x9588
    b6fc:	e3403000 	movt	r3, #0
    b700:	e5933000 	ldr	r3, [r3]
    b704:	e5d32015 	ldrb	r2, [r3, #21]
    b708:	e51b300c 	ldr	r3, [fp, #-12]
    b70c:	e5d33000 	ldrb	r3, [r3]
    b710:	e6af2072 	sxtb	r2, r2
    b714:	e6af3073 	sxtb	r3, r3
    b718:	e1520003 	cmp	r2, r3
    b71c:	da000001 	ble	b728 <tpl_get_resource_service+0xd4>
    b720:	e3a03001 	mov	r3, #1
    b724:	e54b3005 	strb	r3, [fp, #-5]
    b728:	e55b3005 	ldrb	r3, [fp, #-5]
    b72c:	e3530000 	cmp	r3, #0
    b730:	1a000031 	bne	b7fc <tpl_get_resource_service+0x1a8>
    b734:	e3093588 	movw	r3, #38280	; 0x9588
    b738:	e3403000 	movt	r3, #0
    b73c:	e5933010 	ldr	r3, [r3, #16]
    b740:	e6ef2073 	uxtb	r2, r3
    b744:	e51b300c 	ldr	r3, [fp, #-12]
    b748:	e5c32002 	strb	r2, [r3, #2]
    b74c:	e3093588 	movw	r3, #38280	; 0x9588
    b750:	e3403000 	movt	r3, #0
    b754:	e5933008 	ldr	r3, [r3, #8]
    b758:	e5932000 	ldr	r2, [r3]
    b75c:	e51b300c 	ldr	r3, [fp, #-12]
    b760:	e5832004 	str	r2, [r3, #4]
    b764:	e3093588 	movw	r3, #38280	; 0x9588
    b768:	e3403000 	movt	r3, #0
    b76c:	e5933008 	ldr	r3, [r3, #8]
    b770:	e51b200c 	ldr	r2, [fp, #-12]
    b774:	e5832000 	str	r2, [r3]
    b778:	e3093588 	movw	r3, #38280	; 0x9588
    b77c:	e3403000 	movt	r3, #0
    b780:	e5933008 	ldr	r3, [r3, #8]
    b784:	e5d32005 	ldrb	r2, [r3, #5]
    b788:	e51b300c 	ldr	r3, [fp, #-12]
    b78c:	e5c32001 	strb	r2, [r3, #1]
    b790:	e3093588 	movw	r3, #38280	; 0x9588
    b794:	e3403000 	movt	r3, #0
    b798:	e5933008 	ldr	r3, [r3, #8]
    b79c:	e5d32005 	ldrb	r2, [r3, #5]
    b7a0:	e51b300c 	ldr	r3, [fp, #-12]
    b7a4:	e5d33000 	ldrb	r3, [r3]
    b7a8:	e6af2072 	sxtb	r2, r2
    b7ac:	e6af3073 	sxtb	r3, r3
    b7b0:	e1520003 	cmp	r2, r3
    b7b4:	aa000010 	bge	b7fc <tpl_get_resource_service+0x1a8>
    b7b8:	e51b300c 	ldr	r3, [fp, #-12]
    b7bc:	e5d33000 	ldrb	r3, [r3]
    b7c0:	e6af2073 	sxtb	r2, r3
    b7c4:	e3093584 	movw	r3, #38276	; 0x9584
    b7c8:	e3403000 	movt	r3, #0
    b7cc:	e7d33002 	ldrb	r3, [r3, r2]
    b7d0:	e2433001 	sub	r3, r3, #1
    b7d4:	e6ef1073 	uxtb	r1, r3
    b7d8:	e3093584 	movw	r3, #38276	; 0x9584
    b7dc:	e3403000 	movt	r3, #0
    b7e0:	e7c31002 	strb	r1, [r3, r2]
    b7e4:	e3093588 	movw	r3, #38280	; 0x9588
    b7e8:	e3403000 	movt	r3, #0
    b7ec:	e5933008 	ldr	r3, [r3, #8]
    b7f0:	e51b200c 	ldr	r2, [fp, #-12]
    b7f4:	e5d22000 	ldrb	r2, [r2]
    b7f8:	e5c32005 	strb	r2, [r3, #5]
    b7fc:	e55b3005 	ldrb	r3, [fp, #-5]
    b800:	e1a00003 	mov	r0, r3
    b804:	e24bd004 	sub	sp, fp, #4
    b808:	e8bd8800 	pop	{fp, pc}

0000b80c <tpl_release_resource_service>:
    b80c:	e92d4800 	push	{fp, lr}
    b810:	e28db004 	add	fp, sp, #4
    b814:	e24dd010 	sub	sp, sp, #16
    b818:	e1a03000 	mov	r3, r0
    b81c:	e54b300d 	strb	r3, [fp, #-13]
    b820:	e3a03000 	mov	r3, #0
    b824:	e54b3005 	strb	r3, [fp, #-5]
    b828:	ebfffd57 	bl	ad8c <tpl_get_interrupt_lock_status>
    b82c:	e1a03000 	mov	r3, r0
    b830:	e3530000 	cmp	r3, #0
    b834:	0a000001 	beq	b840 <tpl_release_resource_service+0x34>
    b838:	e3a03013 	mov	r3, #19
    b83c:	e54b3005 	strb	r3, [fp, #-5]
    b840:	e55b3005 	ldrb	r3, [fp, #-5]
    b844:	e3530000 	cmp	r3, #0
    b848:	1a000004 	bne	b860 <tpl_release_resource_service+0x54>
    b84c:	e55b300d 	ldrb	r3, [fp, #-13]
    b850:	e3530000 	cmp	r3, #0
    b854:	0a000001 	beq	b860 <tpl_release_resource_service+0x54>
    b858:	e3a03003 	mov	r3, #3
    b85c:	e54b3005 	strb	r3, [fp, #-5]
    b860:	e55b3005 	ldrb	r3, [fp, #-5]
    b864:	e3530000 	cmp	r3, #0
    b868:	1a000037 	bne	b94c <tpl_release_resource_service+0x140>
    b86c:	e55b200d 	ldrb	r2, [fp, #-13]
    b870:	e3093044 	movw	r3, #36932	; 0x9044
    b874:	e3403000 	movt	r3, #0
    b878:	e7933102 	ldr	r3, [r3, r2, lsl #2]
    b87c:	e50b300c 	str	r3, [fp, #-12]
    b880:	e55b3005 	ldrb	r3, [fp, #-5]
    b884:	e3530000 	cmp	r3, #0
    b888:	1a00000b 	bne	b8bc <tpl_release_resource_service+0xb0>
    b88c:	e3093588 	movw	r3, #38280	; 0x9588
    b890:	e3403000 	movt	r3, #0
    b894:	e5933000 	ldr	r3, [r3]
    b898:	e5d32015 	ldrb	r2, [r3, #21]
    b89c:	e51b300c 	ldr	r3, [fp, #-12]
    b8a0:	e5d33000 	ldrb	r3, [r3]
    b8a4:	e6af2072 	sxtb	r2, r2
    b8a8:	e6af3073 	sxtb	r3, r3
    b8ac:	e1520003 	cmp	r2, r3
    b8b0:	da000001 	ble	b8bc <tpl_release_resource_service+0xb0>
    b8b4:	e3a03001 	mov	r3, #1
    b8b8:	e54b3005 	strb	r3, [fp, #-5]
    b8bc:	e55b3005 	ldrb	r3, [fp, #-5]
    b8c0:	e3530000 	cmp	r3, #0
    b8c4:	1a000008 	bne	b8ec <tpl_release_resource_service+0xe0>
    b8c8:	e3093588 	movw	r3, #38280	; 0x9588
    b8cc:	e3403000 	movt	r3, #0
    b8d0:	e5933008 	ldr	r3, [r3, #8]
    b8d4:	e5932000 	ldr	r2, [r3]
    b8d8:	e51b300c 	ldr	r3, [fp, #-12]
    b8dc:	e1520003 	cmp	r2, r3
    b8e0:	0a000001 	beq	b8ec <tpl_release_resource_service+0xe0>
    b8e4:	e3a03005 	mov	r3, #5
    b8e8:	e54b3005 	strb	r3, [fp, #-5]
    b8ec:	e55b3005 	ldrb	r3, [fp, #-5]
    b8f0:	e3530000 	cmp	r3, #0
    b8f4:	1a000014 	bne	b94c <tpl_release_resource_service+0x140>
    b8f8:	e3093588 	movw	r3, #38280	; 0x9588
    b8fc:	e3403000 	movt	r3, #0
    b900:	e5933008 	ldr	r3, [r3, #8]
    b904:	e51b200c 	ldr	r2, [fp, #-12]
    b908:	e5d22001 	ldrb	r2, [r2, #1]
    b90c:	e5c32005 	strb	r2, [r3, #5]
    b910:	e3093588 	movw	r3, #38280	; 0x9588
    b914:	e3403000 	movt	r3, #0
    b918:	e5933008 	ldr	r3, [r3, #8]
    b91c:	e51b200c 	ldr	r2, [fp, #-12]
    b920:	e5922004 	ldr	r2, [r2, #4]
    b924:	e5832000 	str	r2, [r3]
    b928:	e51b300c 	ldr	r3, [fp, #-12]
    b92c:	e3a02000 	mov	r2, #0
    b930:	e5832004 	str	r2, [r3, #4]
    b934:	e309303d 	movw	r3, #36925	; 0x903d
    b938:	e3403000 	movt	r3, #0
    b93c:	e5d32000 	ldrb	r2, [r3]
    b940:	e51b300c 	ldr	r3, [fp, #-12]
    b944:	e5c32002 	strb	r2, [r3, #2]
    b948:	ebfffa1b 	bl	a1bc <tpl_schedule_from_running>
    b94c:	e55b3005 	ldrb	r3, [fp, #-5]
    b950:	e1a00003 	mov	r0, r3
    b954:	e24bd004 	sub	sp, fp, #4
    b958:	e8bd8800 	pop	{fp, pc}

0000b95c <tpl_raise_alarm>:
    b95c:	e92d4800 	push	{fp, lr}
    b960:	e28db004 	add	fp, sp, #4
    b964:	e24dd010 	sub	sp, sp, #16
    b968:	e50b0010 	str	r0, [fp, #-16]
    b96c:	e51b3010 	ldr	r3, [fp, #-16]
    b970:	e5933000 	ldr	r3, [r3]
    b974:	e50b3008 	str	r3, [fp, #-8]
    b978:	e51b3008 	ldr	r3, [fp, #-8]
    b97c:	e5933008 	ldr	r3, [r3, #8]
    b980:	e50b300c 	str	r3, [fp, #-12]
    b984:	e51b300c 	ldr	r3, [fp, #-12]
    b988:	e5933000 	ldr	r3, [r3]
    b98c:	e51b000c 	ldr	r0, [fp, #-12]
    b990:	e12fff33 	blx	r3
    b994:	e24bd004 	sub	sp, fp, #4
    b998:	e8bd8800 	pop	{fp, pc}

0000b99c <tpl_get_alarm_base_service>:
    b99c:	e92d4800 	push	{fp, lr}
    b9a0:	e28db004 	add	fp, sp, #4
    b9a4:	e24dd010 	sub	sp, sp, #16
    b9a8:	e1a03000 	mov	r3, r0
    b9ac:	e50b1014 	str	r1, [fp, #-20]
    b9b0:	e54b300d 	strb	r3, [fp, #-13]
    b9b4:	e3a03000 	mov	r3, #0
    b9b8:	e54b3005 	strb	r3, [fp, #-5]
    b9bc:	ebfffcf2 	bl	ad8c <tpl_get_interrupt_lock_status>
    b9c0:	e1a03000 	mov	r3, r0
    b9c4:	e3530000 	cmp	r3, #0
    b9c8:	0a000001 	beq	b9d4 <tpl_get_alarm_base_service+0x38>
    b9cc:	e3a03013 	mov	r3, #19
    b9d0:	e54b3005 	strb	r3, [fp, #-5]
    b9d4:	e55b3005 	ldrb	r3, [fp, #-5]
    b9d8:	e3530000 	cmp	r3, #0
    b9dc:	1a000004 	bne	b9f4 <tpl_get_alarm_base_service+0x58>
    b9e0:	e55b300d 	ldrb	r3, [fp, #-13]
    b9e4:	e3530000 	cmp	r3, #0
    b9e8:	0a000001 	beq	b9f4 <tpl_get_alarm_base_service+0x58>
    b9ec:	e3a03003 	mov	r3, #3
    b9f0:	e54b3005 	strb	r3, [fp, #-5]
    b9f4:	e55b3005 	ldrb	r3, [fp, #-5]
    b9f8:	e3530000 	cmp	r3, #0
    b9fc:	1a000016 	bne	ba5c <tpl_get_alarm_base_service+0xc0>
    ba00:	e55b200d 	ldrb	r2, [fp, #-13]
    ba04:	e3093144 	movw	r3, #37188	; 0x9144
    ba08:	e3403000 	movt	r3, #0
    ba0c:	e7933102 	ldr	r3, [r3, r2, lsl #2]
    ba10:	e50b300c 	str	r3, [fp, #-12]
    ba14:	e51b300c 	ldr	r3, [fp, #-12]
    ba18:	e5933000 	ldr	r3, [r3]
    ba1c:	e5933000 	ldr	r3, [r3]
    ba20:	e5932000 	ldr	r2, [r3]
    ba24:	e51b3014 	ldr	r3, [fp, #-20]
    ba28:	e5832004 	str	r2, [r3, #4]
    ba2c:	e51b300c 	ldr	r3, [fp, #-12]
    ba30:	e5933000 	ldr	r3, [r3]
    ba34:	e5933000 	ldr	r3, [r3]
    ba38:	e5932004 	ldr	r2, [r3, #4]
    ba3c:	e51b3014 	ldr	r3, [fp, #-20]
    ba40:	e5832000 	str	r2, [r3]
    ba44:	e51b300c 	ldr	r3, [fp, #-12]
    ba48:	e5933000 	ldr	r3, [r3]
    ba4c:	e5933000 	ldr	r3, [r3]
    ba50:	e5932008 	ldr	r2, [r3, #8]
    ba54:	e51b3014 	ldr	r3, [fp, #-20]
    ba58:	e5832008 	str	r2, [r3, #8]
    ba5c:	e55b3005 	ldrb	r3, [fp, #-5]
    ba60:	e1a00003 	mov	r0, r3
    ba64:	e24bd004 	sub	sp, fp, #4
    ba68:	e8bd8800 	pop	{fp, pc}

0000ba6c <tpl_get_alarm_service>:
    ba6c:	e92d4800 	push	{fp, lr}
    ba70:	e28db004 	add	fp, sp, #4
    ba74:	e24dd018 	sub	sp, sp, #24
    ba78:	e1a03000 	mov	r3, r0
    ba7c:	e50b101c 	str	r1, [fp, #-28]
    ba80:	e54b3015 	strb	r3, [fp, #-21]
    ba84:	e3a03000 	mov	r3, #0
    ba88:	e54b3005 	strb	r3, [fp, #-5]
    ba8c:	ebfffcbe 	bl	ad8c <tpl_get_interrupt_lock_status>
    ba90:	e1a03000 	mov	r3, r0
    ba94:	e3530000 	cmp	r3, #0
    ba98:	0a000001 	beq	baa4 <tpl_get_alarm_service+0x38>
    ba9c:	e3a03013 	mov	r3, #19
    baa0:	e54b3005 	strb	r3, [fp, #-5]
    baa4:	e55b3005 	ldrb	r3, [fp, #-5]
    baa8:	e3530000 	cmp	r3, #0
    baac:	1a000004 	bne	bac4 <tpl_get_alarm_service+0x58>
    bab0:	e55b3015 	ldrb	r3, [fp, #-21]
    bab4:	e3530000 	cmp	r3, #0
    bab8:	0a000001 	beq	bac4 <tpl_get_alarm_service+0x58>
    babc:	e3a03003 	mov	r3, #3
    bac0:	e54b3005 	strb	r3, [fp, #-5]
    bac4:	e55b3005 	ldrb	r3, [fp, #-5]
    bac8:	e3530000 	cmp	r3, #0
    bacc:	1a000023 	bne	bb60 <tpl_get_alarm_service+0xf4>
    bad0:	e55b2015 	ldrb	r2, [fp, #-21]
    bad4:	e3093144 	movw	r3, #37188	; 0x9144
    bad8:	e3403000 	movt	r3, #0
    badc:	e7933102 	ldr	r3, [r3, r2, lsl #2]
    bae0:	e50b3010 	str	r3, [fp, #-16]
    bae4:	e51b3010 	ldr	r3, [fp, #-16]
    bae8:	e5d33014 	ldrb	r3, [r3, #20]
    baec:	e3530001 	cmp	r3, #1
    baf0:	1a000018 	bne	bb58 <tpl_get_alarm_service+0xec>
    baf4:	e51b3010 	ldr	r3, [fp, #-16]
    baf8:	e5933010 	ldr	r3, [r3, #16]
    bafc:	e50b300c 	str	r3, [fp, #-12]
    bb00:	e51b3010 	ldr	r3, [fp, #-16]
    bb04:	e5933000 	ldr	r3, [r3]
    bb08:	e5933000 	ldr	r3, [r3]
    bb0c:	e5933010 	ldr	r3, [r3, #16]
    bb10:	e50b3014 	str	r3, [fp, #-20]
    bb14:	e51b200c 	ldr	r2, [fp, #-12]
    bb18:	e51b3014 	ldr	r3, [fp, #-20]
    bb1c:	e1520003 	cmp	r2, r3
    bb20:	2a000006 	bcs	bb40 <tpl_get_alarm_service+0xd4>
    bb24:	e51b3010 	ldr	r3, [fp, #-16]
    bb28:	e5933000 	ldr	r3, [r3]
    bb2c:	e5933000 	ldr	r3, [r3]
    bb30:	e5933004 	ldr	r3, [r3, #4]
    bb34:	e51b200c 	ldr	r2, [fp, #-12]
    bb38:	e0823003 	add	r3, r2, r3
    bb3c:	e50b300c 	str	r3, [fp, #-12]
    bb40:	e51b200c 	ldr	r2, [fp, #-12]
    bb44:	e51b3014 	ldr	r3, [fp, #-20]
    bb48:	e0632002 	rsb	r2, r3, r2
    bb4c:	e51b301c 	ldr	r3, [fp, #-28]
    bb50:	e5832000 	str	r2, [r3]
    bb54:	ea000001 	b	bb60 <tpl_get_alarm_service+0xf4>
    bb58:	e3a03005 	mov	r3, #5
    bb5c:	e54b3005 	strb	r3, [fp, #-5]
    bb60:	e55b3005 	ldrb	r3, [fp, #-5]
    bb64:	e1a00003 	mov	r0, r3
    bb68:	e24bd004 	sub	sp, fp, #4
    bb6c:	e8bd8800 	pop	{fp, pc}

0000bb70 <tpl_set_rel_alarm_service>:
    bb70:	e92d4800 	push	{fp, lr}
    bb74:	e28db004 	add	fp, sp, #4
    bb78:	e24dd020 	sub	sp, sp, #32
    bb7c:	e1a03000 	mov	r3, r0
    bb80:	e50b101c 	str	r1, [fp, #-28]
    bb84:	e50b2020 	str	r2, [fp, #-32]
    bb88:	e54b3015 	strb	r3, [fp, #-21]
    bb8c:	e3a03000 	mov	r3, #0
    bb90:	e54b3005 	strb	r3, [fp, #-5]
    bb94:	ebfffc7c 	bl	ad8c <tpl_get_interrupt_lock_status>
    bb98:	e1a03000 	mov	r3, r0
    bb9c:	e3530000 	cmp	r3, #0
    bba0:	0a000001 	beq	bbac <tpl_set_rel_alarm_service+0x3c>
    bba4:	e3a03013 	mov	r3, #19
    bba8:	e54b3005 	strb	r3, [fp, #-5]
    bbac:	e55b3005 	ldrb	r3, [fp, #-5]
    bbb0:	e3530000 	cmp	r3, #0
    bbb4:	1a000004 	bne	bbcc <tpl_set_rel_alarm_service+0x5c>
    bbb8:	e55b3015 	ldrb	r3, [fp, #-21]
    bbbc:	e3530000 	cmp	r3, #0
    bbc0:	0a000001 	beq	bbcc <tpl_set_rel_alarm_service+0x5c>
    bbc4:	e3a03003 	mov	r3, #3
    bbc8:	e54b3005 	strb	r3, [fp, #-5]
    bbcc:	e55b3005 	ldrb	r3, [fp, #-5]
    bbd0:	e3530000 	cmp	r3, #0
    bbd4:	1a00000b 	bne	bc08 <tpl_set_rel_alarm_service+0x98>
    bbd8:	e55b2015 	ldrb	r2, [fp, #-21]
    bbdc:	e3093144 	movw	r3, #37188	; 0x9144
    bbe0:	e3403000 	movt	r3, #0
    bbe4:	e7933102 	ldr	r3, [r3, r2, lsl #2]
    bbe8:	e5933000 	ldr	r3, [r3]
    bbec:	e5933000 	ldr	r3, [r3]
    bbf0:	e5932004 	ldr	r2, [r3, #4]
    bbf4:	e51b301c 	ldr	r3, [fp, #-28]
    bbf8:	e1520003 	cmp	r2, r3
    bbfc:	2a000001 	bcs	bc08 <tpl_set_rel_alarm_service+0x98>
    bc00:	e3a03008 	mov	r3, #8
    bc04:	e54b3005 	strb	r3, [fp, #-5]
    bc08:	e55b3005 	ldrb	r3, [fp, #-5]
    bc0c:	e3530000 	cmp	r3, #0
    bc10:	1a000018 	bne	bc78 <tpl_set_rel_alarm_service+0x108>
    bc14:	e51b3020 	ldr	r3, [fp, #-32]
    bc18:	e3530000 	cmp	r3, #0
    bc1c:	0a000015 	beq	bc78 <tpl_set_rel_alarm_service+0x108>
    bc20:	e55b2015 	ldrb	r2, [fp, #-21]
    bc24:	e3093144 	movw	r3, #37188	; 0x9144
    bc28:	e3403000 	movt	r3, #0
    bc2c:	e7933102 	ldr	r3, [r3, r2, lsl #2]
    bc30:	e5933000 	ldr	r3, [r3]
    bc34:	e5933000 	ldr	r3, [r3]
    bc38:	e5932004 	ldr	r2, [r3, #4]
    bc3c:	e51b3020 	ldr	r3, [fp, #-32]
    bc40:	e1520003 	cmp	r2, r3
    bc44:	3a000009 	bcc	bc70 <tpl_set_rel_alarm_service+0x100>
    bc48:	e55b2015 	ldrb	r2, [fp, #-21]
    bc4c:	e3093144 	movw	r3, #37188	; 0x9144
    bc50:	e3403000 	movt	r3, #0
    bc54:	e7933102 	ldr	r3, [r3, r2, lsl #2]
    bc58:	e5933000 	ldr	r3, [r3]
    bc5c:	e5933000 	ldr	r3, [r3]
    bc60:	e5932008 	ldr	r2, [r3, #8]
    bc64:	e51b3020 	ldr	r3, [fp, #-32]
    bc68:	e1520003 	cmp	r2, r3
    bc6c:	9a000001 	bls	bc78 <tpl_set_rel_alarm_service+0x108>
    bc70:	e3a03008 	mov	r3, #8
    bc74:	e54b3005 	strb	r3, [fp, #-5]
    bc78:	e55b3005 	ldrb	r3, [fp, #-5]
    bc7c:	e3530000 	cmp	r3, #0
    bc80:	1a00002a 	bne	bd30 <tpl_set_rel_alarm_service+0x1c0>
    bc84:	e55b2015 	ldrb	r2, [fp, #-21]
    bc88:	e3093144 	movw	r3, #37188	; 0x9144
    bc8c:	e3403000 	movt	r3, #0
    bc90:	e7933102 	ldr	r3, [r3, r2, lsl #2]
    bc94:	e50b3010 	str	r3, [fp, #-16]
    bc98:	e51b3010 	ldr	r3, [fp, #-16]
    bc9c:	e5d33014 	ldrb	r3, [r3, #20]
    bca0:	e3530000 	cmp	r3, #0
    bca4:	1a00001f 	bne	bd28 <tpl_set_rel_alarm_service+0x1b8>
    bca8:	e51b3010 	ldr	r3, [fp, #-16]
    bcac:	e5933000 	ldr	r3, [r3]
    bcb0:	e5933000 	ldr	r3, [r3]
    bcb4:	e50b3014 	str	r3, [fp, #-20]
    bcb8:	e51b3014 	ldr	r3, [fp, #-20]
    bcbc:	e5932010 	ldr	r2, [r3, #16]
    bcc0:	e51b301c 	ldr	r3, [fp, #-28]
    bcc4:	e0823003 	add	r3, r2, r3
    bcc8:	e50b300c 	str	r3, [fp, #-12]
    bccc:	e51b3014 	ldr	r3, [fp, #-20]
    bcd0:	e5932004 	ldr	r2, [r3, #4]
    bcd4:	e51b300c 	ldr	r3, [fp, #-12]
    bcd8:	e1520003 	cmp	r2, r3
    bcdc:	2a000005 	bcs	bcf8 <tpl_set_rel_alarm_service+0x188>
    bce0:	e51b3014 	ldr	r3, [fp, #-20]
    bce4:	e5933004 	ldr	r3, [r3, #4]
    bce8:	e51b200c 	ldr	r2, [fp, #-12]
    bcec:	e0633002 	rsb	r3, r3, r2
    bcf0:	e2433001 	sub	r3, r3, #1
    bcf4:	e50b300c 	str	r3, [fp, #-12]
    bcf8:	e51b3010 	ldr	r3, [fp, #-16]
    bcfc:	e51b200c 	ldr	r2, [fp, #-12]
    bd00:	e5832010 	str	r2, [r3, #16]
    bd04:	e51b3010 	ldr	r3, [fp, #-16]
    bd08:	e51b2020 	ldr	r2, [fp, #-32]
    bd0c:	e583200c 	str	r2, [r3, #12]
    bd10:	e51b3010 	ldr	r3, [fp, #-16]
    bd14:	e3a02001 	mov	r2, #1
    bd18:	e5c32014 	strb	r2, [r3, #20]
    bd1c:	e51b0010 	ldr	r0, [fp, #-16]
    bd20:	ebfffa64 	bl	a6b8 <tpl_insert_time_obj>
    bd24:	ea000001 	b	bd30 <tpl_set_rel_alarm_service+0x1c0>
    bd28:	e3a03007 	mov	r3, #7
    bd2c:	e54b3005 	strb	r3, [fp, #-5]
    bd30:	e55b3005 	ldrb	r3, [fp, #-5]
    bd34:	e1a00003 	mov	r0, r3
    bd38:	e24bd004 	sub	sp, fp, #4
    bd3c:	e8bd8800 	pop	{fp, pc}

0000bd40 <tpl_set_abs_alarm_service>:
    bd40:	e92d4800 	push	{fp, lr}
    bd44:	e28db004 	add	fp, sp, #4
    bd48:	e24dd018 	sub	sp, sp, #24
    bd4c:	e1a03000 	mov	r3, r0
    bd50:	e50b1014 	str	r1, [fp, #-20]
    bd54:	e50b2018 	str	r2, [fp, #-24]
    bd58:	e54b300d 	strb	r3, [fp, #-13]
    bd5c:	e3a03000 	mov	r3, #0
    bd60:	e54b3005 	strb	r3, [fp, #-5]
    bd64:	ebfffc08 	bl	ad8c <tpl_get_interrupt_lock_status>
    bd68:	e1a03000 	mov	r3, r0
    bd6c:	e3530000 	cmp	r3, #0
    bd70:	0a000001 	beq	bd7c <tpl_set_abs_alarm_service+0x3c>
    bd74:	e3a03013 	mov	r3, #19
    bd78:	e54b3005 	strb	r3, [fp, #-5]
    bd7c:	e55b3005 	ldrb	r3, [fp, #-5]
    bd80:	e3530000 	cmp	r3, #0
    bd84:	1a000004 	bne	bd9c <tpl_set_abs_alarm_service+0x5c>
    bd88:	e55b300d 	ldrb	r3, [fp, #-13]
    bd8c:	e3530000 	cmp	r3, #0
    bd90:	0a000001 	beq	bd9c <tpl_set_abs_alarm_service+0x5c>
    bd94:	e3a03003 	mov	r3, #3
    bd98:	e54b3005 	strb	r3, [fp, #-5]
    bd9c:	e55b3005 	ldrb	r3, [fp, #-5]
    bda0:	e3530000 	cmp	r3, #0
    bda4:	1a00000b 	bne	bdd8 <tpl_set_abs_alarm_service+0x98>
    bda8:	e55b200d 	ldrb	r2, [fp, #-13]
    bdac:	e3093144 	movw	r3, #37188	; 0x9144
    bdb0:	e3403000 	movt	r3, #0
    bdb4:	e7933102 	ldr	r3, [r3, r2, lsl #2]
    bdb8:	e5933000 	ldr	r3, [r3]
    bdbc:	e5933000 	ldr	r3, [r3]
    bdc0:	e5932004 	ldr	r2, [r3, #4]
    bdc4:	e51b3014 	ldr	r3, [fp, #-20]
    bdc8:	e1520003 	cmp	r2, r3
    bdcc:	2a000001 	bcs	bdd8 <tpl_set_abs_alarm_service+0x98>
    bdd0:	e3a03008 	mov	r3, #8
    bdd4:	e54b3005 	strb	r3, [fp, #-5]
    bdd8:	e55b3005 	ldrb	r3, [fp, #-5]
    bddc:	e3530000 	cmp	r3, #0
    bde0:	1a000018 	bne	be48 <tpl_set_abs_alarm_service+0x108>
    bde4:	e51b3018 	ldr	r3, [fp, #-24]
    bde8:	e3530000 	cmp	r3, #0
    bdec:	0a000015 	beq	be48 <tpl_set_abs_alarm_service+0x108>
    bdf0:	e55b200d 	ldrb	r2, [fp, #-13]
    bdf4:	e3093144 	movw	r3, #37188	; 0x9144
    bdf8:	e3403000 	movt	r3, #0
    bdfc:	e7933102 	ldr	r3, [r3, r2, lsl #2]
    be00:	e5933000 	ldr	r3, [r3]
    be04:	e5933000 	ldr	r3, [r3]
    be08:	e5932004 	ldr	r2, [r3, #4]
    be0c:	e51b3018 	ldr	r3, [fp, #-24]
    be10:	e1520003 	cmp	r2, r3
    be14:	3a000009 	bcc	be40 <tpl_set_abs_alarm_service+0x100>
    be18:	e55b200d 	ldrb	r2, [fp, #-13]
    be1c:	e3093144 	movw	r3, #37188	; 0x9144
    be20:	e3403000 	movt	r3, #0
    be24:	e7933102 	ldr	r3, [r3, r2, lsl #2]
    be28:	e5933000 	ldr	r3, [r3]
    be2c:	e5933000 	ldr	r3, [r3]
    be30:	e5932008 	ldr	r2, [r3, #8]
    be34:	e51b3018 	ldr	r3, [fp, #-24]
    be38:	e1520003 	cmp	r2, r3
    be3c:	9a000001 	bls	be48 <tpl_set_abs_alarm_service+0x108>
    be40:	e3a03008 	mov	r3, #8
    be44:	e54b3005 	strb	r3, [fp, #-5]
    be48:	e55b3005 	ldrb	r3, [fp, #-5]
    be4c:	e3530000 	cmp	r3, #0
    be50:	1a000016 	bne	beb0 <tpl_set_abs_alarm_service+0x170>
    be54:	e55b200d 	ldrb	r2, [fp, #-13]
    be58:	e3093144 	movw	r3, #37188	; 0x9144
    be5c:	e3403000 	movt	r3, #0
    be60:	e7933102 	ldr	r3, [r3, r2, lsl #2]
    be64:	e50b300c 	str	r3, [fp, #-12]
    be68:	e51b300c 	ldr	r3, [fp, #-12]
    be6c:	e5d33014 	ldrb	r3, [r3, #20]
    be70:	e3530000 	cmp	r3, #0
    be74:	1a00000b 	bne	bea8 <tpl_set_abs_alarm_service+0x168>
    be78:	e51b300c 	ldr	r3, [fp, #-12]
    be7c:	e51b2014 	ldr	r2, [fp, #-20]
    be80:	e5832010 	str	r2, [r3, #16]
    be84:	e51b300c 	ldr	r3, [fp, #-12]
    be88:	e51b2018 	ldr	r2, [fp, #-24]
    be8c:	e583200c 	str	r2, [r3, #12]
    be90:	e51b300c 	ldr	r3, [fp, #-12]
    be94:	e3a02001 	mov	r2, #1
    be98:	e5c32014 	strb	r2, [r3, #20]
    be9c:	e51b000c 	ldr	r0, [fp, #-12]
    bea0:	ebfffa04 	bl	a6b8 <tpl_insert_time_obj>
    bea4:	ea000001 	b	beb0 <tpl_set_abs_alarm_service+0x170>
    bea8:	e3a03007 	mov	r3, #7
    beac:	e54b3005 	strb	r3, [fp, #-5]
    beb0:	e55b3005 	ldrb	r3, [fp, #-5]
    beb4:	e1a00003 	mov	r0, r3
    beb8:	e24bd004 	sub	sp, fp, #4
    bebc:	e8bd8800 	pop	{fp, pc}

0000bec0 <tpl_cancel_alarm_service>:
    bec0:	e92d4800 	push	{fp, lr}
    bec4:	e28db004 	add	fp, sp, #4
    bec8:	e24dd010 	sub	sp, sp, #16
    becc:	e1a03000 	mov	r3, r0
    bed0:	e54b300d 	strb	r3, [fp, #-13]
    bed4:	e3a03000 	mov	r3, #0
    bed8:	e54b3005 	strb	r3, [fp, #-5]
    bedc:	ebfffbaa 	bl	ad8c <tpl_get_interrupt_lock_status>
    bee0:	e1a03000 	mov	r3, r0
    bee4:	e3530000 	cmp	r3, #0
    bee8:	0a000001 	beq	bef4 <tpl_cancel_alarm_service+0x34>
    beec:	e3a03013 	mov	r3, #19
    bef0:	e54b3005 	strb	r3, [fp, #-5]
    bef4:	e55b3005 	ldrb	r3, [fp, #-5]
    bef8:	e3530000 	cmp	r3, #0
    befc:	1a000004 	bne	bf14 <tpl_cancel_alarm_service+0x54>
    bf00:	e55b300d 	ldrb	r3, [fp, #-13]
    bf04:	e3530000 	cmp	r3, #0
    bf08:	0a000001 	beq	bf14 <tpl_cancel_alarm_service+0x54>
    bf0c:	e3a03003 	mov	r3, #3
    bf10:	e54b3005 	strb	r3, [fp, #-5]
    bf14:	e55b3005 	ldrb	r3, [fp, #-5]
    bf18:	e3530000 	cmp	r3, #0
    bf1c:	1a000010 	bne	bf64 <tpl_cancel_alarm_service+0xa4>
    bf20:	e55b200d 	ldrb	r2, [fp, #-13]
    bf24:	e3093144 	movw	r3, #37188	; 0x9144
    bf28:	e3403000 	movt	r3, #0
    bf2c:	e7933102 	ldr	r3, [r3, r2, lsl #2]
    bf30:	e50b300c 	str	r3, [fp, #-12]
    bf34:	e51b300c 	ldr	r3, [fp, #-12]
    bf38:	e5d33014 	ldrb	r3, [r3, #20]
    bf3c:	e3530001 	cmp	r3, #1
    bf40:	1a000005 	bne	bf5c <tpl_cancel_alarm_service+0x9c>
    bf44:	e51b000c 	ldr	r0, [fp, #-12]
    bf48:	ebfffa48 	bl	a870 <tpl_remove_time_obj>
    bf4c:	e51b300c 	ldr	r3, [fp, #-12]
    bf50:	e3a02000 	mov	r2, #0
    bf54:	e5c32014 	strb	r2, [r3, #20]
    bf58:	ea000001 	b	bf64 <tpl_cancel_alarm_service+0xa4>
    bf5c:	e3a03005 	mov	r3, #5
    bf60:	e54b3005 	strb	r3, [fp, #-5]
    bf64:	e55b3005 	ldrb	r3, [fp, #-5]
    bf68:	e1a00003 	mov	r0, r3
    bf6c:	e24bd004 	sub	sp, fp, #4
    bf70:	e8bd8800 	pop	{fp, pc}

0000bf74 <assert_failed>:
    bf74:	e52db004 	push	{fp}		; (str fp, [sp, #-4]!)
    bf78:	e28db000 	add	fp, sp, #0
    bf7c:	e24dd00c 	sub	sp, sp, #12
    bf80:	e50b0008 	str	r0, [fp, #-8]
    bf84:	e50b100c 	str	r1, [fp, #-12]
    bf88:	e24bd000 	sub	sp, fp, #0
    bf8c:	e49db004 	pop	{fp}		; (ldr fp, [sp], #4)
    bf90:	e12fff1e 	bx	lr

0000bf94 <PreTaskHook>:
    bf94:	e92d4800 	push	{fp, lr}
    bf98:	e28db004 	add	fp, sp, #4
    bf9c:	e24dd008 	sub	sp, sp, #8
    bfa0:	e3a03000 	mov	r3, #0
    bfa4:	e54b3005 	strb	r3, [fp, #-5]
    bfa8:	e24b3005 	sub	r3, fp, #5
    bfac:	e1a00003 	mov	r0, r3
    bfb0:	eb0001da 	bl	c720 <GetTaskID>
    bfb4:	e24bd004 	sub	sp, fp, #4
    bfb8:	e8bd8800 	pop	{fp, pc}

0000bfbc <PostTaskHook>:
    bfbc:	e92d4800 	push	{fp, lr}
    bfc0:	e28db004 	add	fp, sp, #4
    bfc4:	e24dd008 	sub	sp, sp, #8
    bfc8:	e3a03000 	mov	r3, #0
    bfcc:	e54b3005 	strb	r3, [fp, #-5]
    bfd0:	e24b3005 	sub	r3, fp, #5
    bfd4:	e1a00003 	mov	r0, r3
    bfd8:	eb0001d0 	bl	c720 <GetTaskID>
    bfdc:	e24bd004 	sub	sp, fp, #4
    bfe0:	e8bd8800 	pop	{fp, pc}

0000bfe4 <tpl_tick_it_timer1>:
    bfe4:	e92d4800 	push	{fp, lr}
    bfe8:	e28db004 	add	fp, sp, #4
    bfec:	e3090384 	movw	r0, #37764	; 0x9384
    bff0:	e3400000 	movt	r0, #0
    bff4:	ebfffaa9 	bl	aaa0 <tpl_counter_tick>
    bff8:	e3093588 	movw	r3, #38280	; 0x9588
    bffc:	e3403000 	movt	r3, #0
    c000:	e5d33019 	ldrb	r3, [r3, #25]
    c004:	e3530000 	cmp	r3, #0
    c008:	0a000000 	beq	c010 <tpl_tick_it_timer1+0x2c>
    c00c:	ebfff86a 	bl	a1bc <tpl_schedule_from_running>
    c010:	e8bd8800 	pop	{fp, pc}

0000c014 <tpl_interrupt_source_0>:
    c014:	e92d4800 	push	{fp, lr}
    c018:	e28db004 	add	fp, sp, #4
    c01c:	ebfffff0 	bl	bfe4 <tpl_tick_it_timer1>
    c020:	e8bd8800 	pop	{fp, pc}

0000c024 <tpl_primary_irq_handler>:
    c024:	e92d5fff 	push	{r0, r1, r2, r3, r4, r5, r6, r7, r8, r9, sl, fp, ip, lr}
    c028:	ebfff2f5 	bl	8c04 <trace_in>
    c02c:	e8bd5fff 	pop	{r0, r1, r2, r3, r4, r5, r6, r7, r8, r9, sl, fp, ip, lr}
    c030:	e92d5fff 	push	{r0, r1, r2, r3, r4, r5, r6, r7, r8, r9, sl, fp, ip, lr}
    c034:	ebfff271 	bl	8a00 <trace_regs>
    c038:	e8bd5fff 	pop	{r0, r1, r2, r3, r4, r5, r6, r7, r8, r9, sl, fp, ip, lr}
    c03c:	e24ee004 	sub	lr, lr, #4
    c040:	e92d5a0f 	push	{r0, r1, r2, r3, r9, fp, ip, lr}
    c044:	e59f10e4 	ldr	r1, [pc, #228]	; c130 <irq_no_context_switch+0x30>
    c048:	e5912000 	ldr	r2, [r1]
    c04c:	e2822001 	add	r2, r2, #1
    c050:	e5812000 	str	r2, [r1]
    c054:	e59f10d8 	ldr	r1, [pc, #216]	; c134 <irq_no_context_switch+0x34>
    c058:	e3a02000 	mov	r2, #0
    c05c:	e5c12018 	strb	r2, [r1, #24]
    c060:	ebfff20c 	bl	8898 <tpl_arm_subarch_irq_handler>

0000c064 <context_switch_swi>:
    c064:	e59f10c8 	ldr	r1, [pc, #200]	; c134 <irq_no_context_switch+0x34>
    c068:	e59f20c4 	ldr	r2, [pc, #196]	; c134 <irq_no_context_switch+0x34>
    c06c:	e3a00000 	mov	r0, #0
    c070:	e5d12018 	ldrb	r2, [r1, #24]
    c074:	e3520000 	cmp	r2, #0
    c078:	0a000020 	beq	c100 <irq_no_context_switch>
    c07c:	e3a00001 	mov	r0, #1
    c080:	e5d12018 	ldrb	r2, [r1, #24]
    c084:	e3120002 	tst	r2, #2
    c088:	0a00000d 	beq	c0c4 <skip_save_context_irq>
    c08c:	e5912000 	ldr	r2, [r1]
    c090:	e5922000 	ldr	r2, [r2]
    c094:	e2822010 	add	r2, r2, #16
    c098:	e8c27ff0 	stmia	r2, {r4, r5, r6, r7, r8, r9, sl, fp, ip, sp, lr}^
    c09c:	e2422010 	sub	r2, r2, #16
    c0a0:	e14f4000 	mrs	r4, SPSR
    c0a4:	e5824040 	str	r4, [r2, #64]	; 0x40
    c0a8:	e8bd5af0 	pop	{r4, r5, r6, r7, r9, fp, ip, lr}
    c0ac:	e88200f0 	stm	r2, {r4, r5, r6, r7}
    c0b0:	e5829024 	str	r9, [r2, #36]	; 0x24
    c0b4:	e582b02c 	str	fp, [r2, #44]	; 0x2c
    c0b8:	e582c030 	str	ip, [r2, #48]	; 0x30
    c0bc:	e582e03c 	str	lr, [r2, #60]	; 0x3c
    c0c0:	ea000000 	b	c0c8 <call_tpl_run_elected>

0000c0c4 <skip_save_context_irq>:
    c0c4:	e28dd020 	add	sp, sp, #32

0000c0c8 <call_tpl_run_elected>:
    c0c8:	ebfff7c8 	bl	9ff0 <tpl_run_elected>
    c0cc:	e59f305c 	ldr	r3, [pc, #92]	; c130 <irq_no_context_switch+0x30>
    c0d0:	e5932000 	ldr	r2, [r3]
    c0d4:	e2422001 	sub	r2, r2, #1
    c0d8:	e5832000 	str	r2, [r3]
    c0dc:	e59f1050 	ldr	r1, [pc, #80]	; c134 <irq_no_context_switch+0x34>
    c0e0:	e591e000 	ldr	lr, [r1]
    c0e4:	e59ee000 	ldr	lr, [lr]
    c0e8:	e59e0040 	ldr	r0, [lr, #64]	; 0x40
    c0ec:	e169f000 	msr	SPSR_fc, r0
    c0f0:	e8de7fff 	ldm	lr, {r0, r1, r2, r3, r4, r5, r6, r7, r8, r9, sl, fp, ip, sp, lr}^
    c0f4:	eaffffff 	b	c0f8 <flush_pipeline>

0000c0f8 <flush_pipeline>:
    c0f8:	e59ee03c 	ldr	lr, [lr, #60]	; 0x3c
    c0fc:	e1b0f00e 	movs	pc, lr

0000c100 <irq_no_context_switch>:
    c100:	e59f3028 	ldr	r3, [pc, #40]	; c130 <irq_no_context_switch+0x30>
    c104:	e5932000 	ldr	r2, [r3]
    c108:	e2422001 	sub	r2, r2, #1
    c10c:	e5832000 	str	r2, [r3]
    c110:	e8bd5a0f 	pop	{r0, r1, r2, r3, r9, fp, ip, lr}
    c114:	e92d5fff 	push	{r0, r1, r2, r3, r4, r5, r6, r7, r8, r9, sl, fp, ip, lr}
    c118:	ebfff238 	bl	8a00 <trace_regs>
    c11c:	e8bd5fff 	pop	{r0, r1, r2, r3, r4, r5, r6, r7, r8, r9, sl, fp, ip, lr}
    c120:	e92d5fff 	push	{r0, r1, r2, r3, r4, r5, r6, r7, r8, r9, sl, fp, ip, lr}
    c124:	ebfff2bc 	bl	8c1c <trace_out>
    c128:	e8bd5fff 	pop	{r0, r1, r2, r3, r4, r5, r6, r7, r8, r9, sl, fp, ip, lr}
    c12c:	e25ef004 	subs	pc, lr, #4
    c130:	000096b0 			; <UNDEFINED> instruction: 0x000096b0
    c134:	00009588 	andeq	r9, r0, r8, lsl #11

0000c138 <tpl_primary_syscall_handler>:
    c138:	e92d5fff 	push	{r0, r1, r2, r3, r4, r5, r6, r7, r8, r9, sl, fp, ip, lr}
    c13c:	ebfff1ef 	bl	8900 <trace_1>
    c140:	e8bd5fff 	pop	{r0, r1, r2, r3, r4, r5, r6, r7, r8, r9, sl, fp, ip, lr}
    c144:	e321f093 	msr	CPSR_c, #147	; 0x93
    c148:	e92d4007 	push	{r0, r1, r2, lr}
    c14c:	e14f1000 	mrs	r1, SPSR
    c150:	e92d0002 	stmfd	sp!, {r1}
    c154:	e59f1110 	ldr	r1, [pc, #272]	; c26c <swi_skip_kernel_exit+0x10>
    c158:	e5912000 	ldr	r2, [r1]
    c15c:	e2822001 	add	r2, r2, #1
    c160:	e5812000 	str	r2, [r1]
    c164:	e3520001 	cmp	r2, #1
    c168:	8a000002 	bhi	c178 <skip_kernel_enter>
    c16c:	e59f10fc 	ldr	r1, [pc, #252]	; c270 <swi_skip_kernel_exit+0x14>
    c170:	e3a02000 	mov	r2, #0
    c174:	e5c12018 	strb	r2, [r1, #24]

0000c178 <skip_kernel_enter>:
    c178:	e3530018 	cmp	r3, #24
    c17c:	2a000032 	bcs	c24c <invalid_service_id>
    c180:	e59f10ec 	ldr	r1, [pc, #236]	; c274 <swi_skip_kernel_exit+0x18>
    c184:	e7913103 	ldr	r3, [r1, r3, lsl #2]
    c188:	e28dd004 	add	sp, sp, #4
    c18c:	e89d0007 	ldm	sp, {r0, r1, r2}
    c190:	e24dd004 	sub	sp, sp, #4
    c194:	e1a0e00f 	mov	lr, pc
    c198:	e12fff13 	bx	r3
    c19c:	e28dd004 	add	sp, sp, #4
    c1a0:	e88d0003 	stm	sp, {r0, r1}
    c1a4:	e24dd004 	sub	sp, sp, #4
    c1a8:	e59f20c0 	ldr	r2, [pc, #192]	; c270 <swi_skip_kernel_exit+0x14>
    c1ac:	e5d22018 	ldrb	r2, [r2, #24]
    c1b0:	e3520000 	cmp	r2, #0
    c1b4:	0a000024 	beq	c24c <invalid_service_id>
    c1b8:	e59f20ac 	ldr	r2, [pc, #172]	; c26c <swi_skip_kernel_exit+0x10>
    c1bc:	e5922000 	ldr	r2, [r2]
    c1c0:	e3520001 	cmp	r2, #1
    c1c4:	8a000024 	bhi	c25c <swi_skip_kernel_exit>

0000c1c8 <context_switch_swi>:
    c1c8:	e59f10a0 	ldr	r1, [pc, #160]	; c270 <swi_skip_kernel_exit+0x14>
    c1cc:	e3a00000 	mov	r0, #0
    c1d0:	e5d12018 	ldrb	r2, [r1, #24]
    c1d4:	e3120002 	tst	r2, #2
    c1d8:	0a00000c 	beq	c210 <skip_save_context_swi>
    c1dc:	e3a00001 	mov	r0, #1

0000c1e0 <save_context_swi>:
    c1e0:	e5912000 	ldr	r2, [r1]
    c1e4:	e5922000 	ldr	r2, [r2]
    c1e8:	e2822010 	add	r2, r2, #16
    c1ec:	e8c27ff0 	stmia	r2, {r4, r5, r6, r7, r8, r9, sl, fp, ip, sp, lr}^
    c1f0:	e2422010 	sub	r2, r2, #16
    c1f4:	e8bd0010 	ldmfd	sp!, {r4}
    c1f8:	e5824040 	str	r4, [r2, #64]	; 0x40
    c1fc:	e8bd0070 	pop	{r4, r5, r6}
    c200:	e8820070 	stm	r2, {r4, r5, r6}
    c204:	e8bd0010 	ldmfd	sp!, {r4}
    c208:	e582403c 	str	r4, [r2, #60]	; 0x3c
    c20c:	ea000000 	b	c214 <call_tpl_run_elected>

0000c210 <skip_save_context_swi>:
    c210:	e28dd014 	add	sp, sp, #20

0000c214 <call_tpl_run_elected>:
    c214:	ebfff775 	bl	9ff0 <tpl_run_elected>
    c218:	e59f304c 	ldr	r3, [pc, #76]	; c26c <swi_skip_kernel_exit+0x10>
    c21c:	e5932000 	ldr	r2, [r3]
    c220:	e2422001 	sub	r2, r2, #1
    c224:	e5832000 	str	r2, [r3]
    c228:	e59f1040 	ldr	r1, [pc, #64]	; c270 <swi_skip_kernel_exit+0x14>
    c22c:	e591e000 	ldr	lr, [r1]
    c230:	e59ee000 	ldr	lr, [lr]
    c234:	e59e0040 	ldr	r0, [lr, #64]	; 0x40
    c238:	e169f000 	msr	SPSR_fc, r0
    c23c:	e8de7fff 	ldm	lr, {r0, r1, r2, r3, r4, r5, r6, r7, r8, r9, sl, fp, ip, sp, lr}^
    c240:	eaffffff 	b	c244 <flush_pipeline>

0000c244 <flush_pipeline>:
    c244:	e59ee03c 	ldr	lr, [lr, #60]	; 0x3c
    c248:	e1b0f00e 	movs	pc, lr

0000c24c <invalid_service_id>:
    c24c:	e59f3018 	ldr	r3, [pc, #24]	; c26c <swi_skip_kernel_exit+0x10>
    c250:	e5932000 	ldr	r2, [r3]
    c254:	e2422001 	sub	r2, r2, #1
    c258:	e5832000 	str	r2, [r3]

0000c25c <swi_skip_kernel_exit>:
    c25c:	e8bd0008 	ldmfd	sp!, {r3}
    c260:	e169f003 	msr	SPSR_fc, r3
    c264:	e8bd4007 	pop	{r0, r1, r2, lr}
    c268:	e1b0f00e 	movs	pc, lr
    c26c:	000096b0 			; <UNDEFINED> instruction: 0x000096b0
    c270:	00009588 	andeq	r9, r0, r8, lsl #11
    c274:	00009148 	andeq	r9, r0, r8, asr #2

0000c278 <tpl_exit_trusted_function_service>:
    c278:	e3a00010 	mov	r0, #16
    c27c:	e1a0f00e 	mov	pc, lr

0000c280 <tpl_init_machine_generic>:
    c280:	e52db004 	push	{fp}		; (str fp, [sp, #-4]!)
    c284:	e28db000 	add	fp, sp, #0
    c288:	e30936b0 	movw	r3, #38576	; 0x96b0
    c28c:	e3403000 	movt	r3, #0
    c290:	e3a02000 	mov	r2, #0
    c294:	e5832000 	str	r2, [r3]
    c298:	e24bd000 	sub	sp, fp, #0
    c29c:	e49db004 	pop	{fp}		; (ldr fp, [sp], #4)
    c2a0:	e12fff1e 	bx	lr

0000c2a4 <tpl_get_task_lock>:
    c2a4:	e52db004 	push	{fp}		; (str fp, [sp, #-4]!)
    c2a8:	e28db000 	add	fp, sp, #0
    c2ac:	e24bd000 	sub	sp, fp, #0
    c2b0:	e49db004 	pop	{fp}		; (ldr fp, [sp], #4)
    c2b4:	e12fff1e 	bx	lr

0000c2b8 <tpl_release_task_lock>:
    c2b8:	e52db004 	push	{fp}		; (str fp, [sp, #-4]!)
    c2bc:	e28db000 	add	fp, sp, #0
    c2c0:	e24bd000 	sub	sp, fp, #0
    c2c4:	e49db004 	pop	{fp}		; (ldr fp, [sp], #4)
    c2c8:	e12fff1e 	bx	lr

0000c2cc <tpl_enable_interrupts>:
    c2cc:	e52db004 	push	{fp}		; (str fp, [sp, #-4]!)
    c2d0:	e28db000 	add	fp, sp, #0
    c2d4:	e14f0000 	mrs	r0, SPSR
    c2d8:	e3c000c0 	bic	r0, r0, #192	; 0xc0
    c2dc:	e169f000 	msr	SPSR_fc, r0
    c2e0:	e24bd000 	sub	sp, fp, #0
    c2e4:	e49db004 	pop	{fp}		; (ldr fp, [sp], #4)
    c2e8:	e12fff1e 	bx	lr

0000c2ec <tpl_disable_interrupts>:
    c2ec:	e52db004 	push	{fp}		; (str fp, [sp, #-4]!)
    c2f0:	e28db000 	add	fp, sp, #0
    c2f4:	e10f0000 	mrs	r0, CPSR
    c2f8:	e38000c0 	orr	r0, r0, #192	; 0xc0
    c2fc:	e129f000 	msr	CPSR_fc, r0
    c300:	e14f0000 	mrs	r0, SPSR
    c304:	e38000c0 	orr	r0, r0, #192	; 0xc0
    c308:	e169f000 	msr	SPSR_fc, r0
    c30c:	e24bd000 	sub	sp, fp, #0
    c310:	e49db004 	pop	{fp}		; (ldr fp, [sp], #4)
    c314:	e12fff1e 	bx	lr

0000c318 <tpl_init_context>:
    c318:	e52db004 	push	{fp}		; (str fp, [sp, #-4]!)
    c31c:	e28db000 	add	fp, sp, #0
    c320:	e24dd014 	sub	sp, sp, #20
    c324:	e1a03000 	mov	r3, r0
    c328:	e54b300d 	strb	r3, [fp, #-13]
    c32c:	e15b20dd 	ldrsb	r2, [fp, #-13]
    c330:	e3093120 	movw	r3, #37152	; 0x9120
    c334:	e3403000 	movt	r3, #0
    c338:	e7933102 	ldr	r3, [r3, r2, lsl #2]
    c33c:	e50b3008 	str	r3, [fp, #-8]
    c340:	e51b3008 	ldr	r3, [fp, #-8]
    c344:	e5933000 	ldr	r3, [r3]
    c348:	e50b300c 	str	r3, [fp, #-12]
    c34c:	e51b3008 	ldr	r3, [fp, #-8]
    c350:	e593300c 	ldr	r3, [r3, #12]
    c354:	e1a02003 	mov	r2, r3
    c358:	e51b300c 	ldr	r3, [fp, #-12]
    c35c:	e583203c 	str	r2, [r3, #60]	; 0x3c
    c360:	e51b3008 	ldr	r3, [fp, #-8]
    c364:	e5933004 	ldr	r3, [r3, #4]
    c368:	e1a02003 	mov	r2, r3
    c36c:	e51b3008 	ldr	r3, [fp, #-8]
    c370:	e5933008 	ldr	r3, [r3, #8]
    c374:	e0822003 	add	r2, r2, r3
    c378:	e51b300c 	ldr	r3, [fp, #-12]
    c37c:	e5832034 	str	r2, [r3, #52]	; 0x34
    c380:	e51b300c 	ldr	r3, [fp, #-12]
    c384:	e3a0201f 	mov	r2, #31
    c388:	e5832040 	str	r2, [r3, #64]	; 0x40
    c38c:	e51b3008 	ldr	r3, [fp, #-8]
    c390:	e5d33017 	ldrb	r3, [r3, #23]
    c394:	e3530002 	cmp	r3, #2
    c398:	1a000002 	bne	c3a8 <tpl_init_context+0x90>
    c39c:	e30c36bc 	movw	r3, #50876	; 0xc6bc
    c3a0:	e3403000 	movt	r3, #0
    c3a4:	ea000001 	b	c3b0 <tpl_init_context+0x98>
    c3a8:	e30c3748 	movw	r3, #51016	; 0xc748
    c3ac:	e3403000 	movt	r3, #0
    c3b0:	e51b200c 	ldr	r2, [fp, #-12]
    c3b4:	e5823038 	str	r3, [r2, #56]	; 0x38
    c3b8:	e24bd000 	sub	sp, fp, #0
    c3bc:	e49db004 	pop	{fp}		; (ldr fp, [sp], #4)
    c3c0:	e12fff1e 	bx	lr

0000c3c4 <tpl_check_stack_footprint>:
    c3c4:	e52db004 	push	{fp}		; (str fp, [sp, #-4]!)
    c3c8:	e28db000 	add	fp, sp, #0
    c3cc:	e24dd014 	sub	sp, sp, #20
    c3d0:	e1a03000 	mov	r3, r0
    c3d4:	e54b300d 	strb	r3, [fp, #-13]
    c3d8:	e3a03000 	mov	r3, #0
    c3dc:	e54b3005 	strb	r3, [fp, #-5]
    c3e0:	e55b3005 	ldrb	r3, [fp, #-5]
    c3e4:	e1a00003 	mov	r0, r3
    c3e8:	e24bd000 	sub	sp, fp, #0
    c3ec:	e49db004 	pop	{fp}		; (ldr fp, [sp], #4)
    c3f0:	e12fff1e 	bx	lr

0000c3f4 <tpl_sleep>:
    c3f4:	eafffffe 	b	c3f4 <tpl_sleep>

0000c3f8 <tpl_init_machine>:
    c3f8:	e92d4800 	push	{fp, lr}
    c3fc:	e28db004 	add	fp, sp, #4
    c400:	ebffff9e 	bl	c280 <tpl_init_machine_generic>
    c404:	ebffefaf 	bl	82c8 <enable_irq>
    c408:	e3090250 	movw	r0, #37456	; 0x9250
    c40c:	e3400000 	movt	r0, #0
    c410:	ebfff2ae 	bl	8ed0 <uart_write_string>
    c414:	ebffefdd 	bl	8390 <GETISR>
    c418:	e1a03000 	mov	r3, r0
    c41c:	e1a00003 	mov	r0, r3
    c420:	ebfff2f4 	bl	8ff8 <hexstring>
    c424:	e8bd8800 	pop	{fp, pc}

0000c428 <tpl_shutdown>:
    c428:	e52db004 	push	{fp}		; (str fp, [sp, #-4]!)
    c42c:	e28db000 	add	fp, sp, #0
    c430:	e10f0000 	mrs	r0, CPSR
    c434:	e3800040 	orr	r0, r0, #64	; 0x40
    c438:	e121f000 	msr	CPSR_c, r0
    c43c:	e10f0000 	mrs	r0, CPSR
    c440:	e3800080 	orr	r0, r0, #128	; 0x80
    c444:	e121f000 	msr	CPSR_c, r0
    c448:	eafffffe 	b	c448 <tpl_shutdown+0x20>

0000c44c <primary_undefined_instruction_handler_etiq>:
    c44c:	e92d0001 	stmfd	sp!, {r0}
    c450:	e10f0000 	mrs	r0, CPSR
    c454:	e38000c0 	orr	r0, r0, #192	; 0xc0
    c458:	e121f000 	msr	CPSR_c, r0
    c45c:	e8bd0001 	ldmfd	sp!, {r0}
    c460:	e92d0007 	push	{r0, r1, r2}
    c464:	e24e0004 	sub	r0, lr, #4
    c468:	e59f1150 	ldr	r1, [pc, #336]	; c5c0 <tpl_primary_fiq_handler+0x4>
    c46c:	e5810000 	str	r0, [r1]
    c470:	e14f0000 	mrs	r0, SPSR
    c474:	e59f1148 	ldr	r1, [pc, #328]	; c5c4 <tpl_primary_fiq_handler+0x8>
    c478:	e5810000 	str	r0, [r1]
    c47c:	e10f0000 	mrs	r0, CPSR
    c480:	e14f1000 	mrs	r1, SPSR
    c484:	e201101f 	and	r1, r1, #31
    c488:	e3c0201f 	bic	r2, r0, #31
    c48c:	e1822001 	orr	r2, r2, r1
    c490:	e129f002 	msr	CPSR_fc, r2
    c494:	e59f112c 	ldr	r1, [pc, #300]	; c5c8 <tpl_primary_fiq_handler+0xc>
    c498:	e581d000 	str	sp, [r1]
    c49c:	e129f000 	msr	CPSR_fc, r0
    c4a0:	e8bd0007 	pop	{r0, r1, r2}
    c4a4:	eafffffe 	b	c4a4 <primary_undefined_instruction_handler_etiq+0x58>

0000c4a8 <primary_prefetch_abort_handler>:
    c4a8:	e92d0001 	stmfd	sp!, {r0}
    c4ac:	e10f0000 	mrs	r0, CPSR
    c4b0:	e38000c0 	orr	r0, r0, #192	; 0xc0
    c4b4:	e121f000 	msr	CPSR_c, r0
    c4b8:	e8bd0001 	ldmfd	sp!, {r0}
    c4bc:	e92d0007 	push	{r0, r1, r2}
    c4c0:	e24e0004 	sub	r0, lr, #4
    c4c4:	e59f10f4 	ldr	r1, [pc, #244]	; c5c0 <tpl_primary_fiq_handler+0x4>
    c4c8:	e5810000 	str	r0, [r1]
    c4cc:	e14f0000 	mrs	r0, SPSR
    c4d0:	e59f10ec 	ldr	r1, [pc, #236]	; c5c4 <tpl_primary_fiq_handler+0x8>
    c4d4:	e5810000 	str	r0, [r1]
    c4d8:	e10f0000 	mrs	r0, CPSR
    c4dc:	e14f1000 	mrs	r1, SPSR
    c4e0:	e201101f 	and	r1, r1, #31
    c4e4:	e3c0201f 	bic	r2, r0, #31
    c4e8:	e1822001 	orr	r2, r2, r1
    c4ec:	e129f002 	msr	CPSR_fc, r2
    c4f0:	e59f10d0 	ldr	r1, [pc, #208]	; c5c8 <tpl_primary_fiq_handler+0xc>
    c4f4:	e581d000 	str	sp, [r1]
    c4f8:	e129f000 	msr	CPSR_fc, r0
    c4fc:	e8bd0007 	pop	{r0, r1, r2}
    c500:	eafffffe 	b	c500 <primary_prefetch_abort_handler+0x58>

0000c504 <primary_data_abort_handler>:
    c504:	e92d0001 	stmfd	sp!, {r0}
    c508:	e10f0000 	mrs	r0, CPSR
    c50c:	e38000c0 	orr	r0, r0, #192	; 0xc0
    c510:	e121f000 	msr	CPSR_c, r0
    c514:	e8bd0001 	ldmfd	sp!, {r0}
    c518:	e92d0007 	push	{r0, r1, r2}
    c51c:	e24e0008 	sub	r0, lr, #8
    c520:	e59f1098 	ldr	r1, [pc, #152]	; c5c0 <tpl_primary_fiq_handler+0x4>
    c524:	e5810000 	str	r0, [r1]
    c528:	e14f0000 	mrs	r0, SPSR
    c52c:	e59f1090 	ldr	r1, [pc, #144]	; c5c4 <tpl_primary_fiq_handler+0x8>
    c530:	e5810000 	str	r0, [r1]
    c534:	e10f0000 	mrs	r0, CPSR
    c538:	e14f1000 	mrs	r1, SPSR
    c53c:	e201101f 	and	r1, r1, #31
    c540:	e3c0201f 	bic	r2, r0, #31
    c544:	e1822001 	orr	r2, r2, r1
    c548:	e129f002 	msr	CPSR_fc, r2
    c54c:	e59f1074 	ldr	r1, [pc, #116]	; c5c8 <tpl_primary_fiq_handler+0xc>
    c550:	e581d000 	str	sp, [r1]
    c554:	e129f000 	msr	CPSR_fc, r0
    c558:	e8bd0007 	pop	{r0, r1, r2}
    c55c:	eafffffe 	b	c55c <primary_data_abort_handler+0x58>

0000c560 <primary_unused_handler>:
    c560:	e92d0001 	stmfd	sp!, {r0}
    c564:	e10f0000 	mrs	r0, CPSR
    c568:	e38000c0 	orr	r0, r0, #192	; 0xc0
    c56c:	e121f000 	msr	CPSR_c, r0
    c570:	e8bd0001 	ldmfd	sp!, {r0}
    c574:	e92d0007 	push	{r0, r1, r2}
    c578:	e24e0004 	sub	r0, lr, #4
    c57c:	e59f103c 	ldr	r1, [pc, #60]	; c5c0 <tpl_primary_fiq_handler+0x4>
    c580:	e5810000 	str	r0, [r1]
    c584:	e14f0000 	mrs	r0, SPSR
    c588:	e59f1034 	ldr	r1, [pc, #52]	; c5c4 <tpl_primary_fiq_handler+0x8>
    c58c:	e5810000 	str	r0, [r1]
    c590:	e10f0000 	mrs	r0, CPSR
    c594:	e14f1000 	mrs	r1, SPSR
    c598:	e201101f 	and	r1, r1, #31
    c59c:	e3c0201f 	bic	r2, r0, #31
    c5a0:	e1822001 	orr	r2, r2, r1
    c5a4:	e129f002 	msr	CPSR_fc, r2
    c5a8:	e59f1018 	ldr	r1, [pc, #24]	; c5c8 <tpl_primary_fiq_handler+0xc>
    c5ac:	e581d000 	str	sp, [r1]
    c5b0:	e129f000 	msr	CPSR_fc, r0
    c5b4:	e8bd0007 	pop	{r0, r1, r2}
    c5b8:	eafffffe 	b	c5b8 <primary_unused_handler+0x58>

0000c5bc <tpl_primary_fiq_handler>:
    c5bc:	e25ef004 	subs	pc, lr, #4
    c5c0:	000096b4 			; <UNDEFINED> instruction: 0x000096b4
    c5c4:	000096b8 			; <UNDEFINED> instruction: 0x000096b8
    c5c8:	000096bc 			; <UNDEFINED> instruction: 0x000096bc

Disassembly of section .osApiCode:

0000c5cc <StartOS>:
    c5cc:	e92d4800 	push	{fp, lr}
    c5d0:	e28db004 	add	fp, sp, #4
    c5d4:	e24dd008 	sub	sp, sp, #8
    c5d8:	e1a03000 	mov	r3, r0
    c5dc:	e54b3005 	strb	r3, [fp, #-5]
    c5e0:	ebfff5f2 	bl	9db0 <tpl_current_os_state>
    c5e4:	e1a03000 	mov	r3, r0
    c5e8:	e3530000 	cmp	r3, #0
    c5ec:	1a000000 	bne	c5f4 <StartOS+0x28>
    c5f0:	ebffff80 	bl	c3f8 <tpl_init_machine>
    c5f4:	e15b30d5 	ldrsb	r3, [fp, #-5]
    c5f8:	e1a00003 	mov	r0, r3
    c5fc:	eb000006 	bl	c61c <tpl_start_os>
    c600:	e24bd004 	sub	sp, fp, #4
    c604:	e8bd8800 	pop	{fp, pc}

0000c608 <GetActiveApplicationMode>:
    c608:	e92d4000 	stmfd	sp!, {lr}
    c60c:	e3a03000 	mov	r3, #0
    c610:	ef000000 	svc	0x00000000
    c614:	e8bd4000 	ldmfd	sp!, {lr}
    c618:	e1a0f00e 	mov	pc, lr

0000c61c <tpl_start_os>:
    c61c:	e92d4000 	stmfd	sp!, {lr}
    c620:	e3a03001 	mov	r3, #1
    c624:	ef000001 	svc	0x00000001
    c628:	e8bd4000 	ldmfd	sp!, {lr}
    c62c:	e1a0f00e 	mov	pc, lr

0000c630 <ShutdownOS>:
    c630:	e92d4000 	stmfd	sp!, {lr}
    c634:	e3a03002 	mov	r3, #2
    c638:	ef000002 	svc	0x00000002
    c63c:	e8bd4000 	ldmfd	sp!, {lr}
    c640:	e1a0f00e 	mov	pc, lr

0000c644 <EnableAllInterrupts>:
    c644:	e92d4000 	stmfd	sp!, {lr}
    c648:	e3a03003 	mov	r3, #3
    c64c:	ef000003 	svc	0x00000003
    c650:	e8bd4000 	ldmfd	sp!, {lr}
    c654:	e1a0f00e 	mov	pc, lr

0000c658 <DisableAllInterrupts>:
    c658:	e92d4000 	stmfd	sp!, {lr}
    c65c:	e3a03004 	mov	r3, #4
    c660:	ef000004 	svc	0x00000004
    c664:	e8bd4000 	ldmfd	sp!, {lr}
    c668:	e1a0f00e 	mov	pc, lr

0000c66c <ResumeAllInterrupts>:
    c66c:	e92d4000 	stmfd	sp!, {lr}
    c670:	e3a03005 	mov	r3, #5
    c674:	ef000005 	svc	0x00000005
    c678:	e8bd4000 	ldmfd	sp!, {lr}
    c67c:	e1a0f00e 	mov	pc, lr

0000c680 <SuspendAllInterrupts>:
    c680:	e92d4000 	stmfd	sp!, {lr}
    c684:	e3a03006 	mov	r3, #6
    c688:	ef000006 	svc	0x00000006
    c68c:	e8bd4000 	ldmfd	sp!, {lr}
    c690:	e1a0f00e 	mov	pc, lr

0000c694 <ResumeOSInterrupts>:
    c694:	e92d4000 	stmfd	sp!, {lr}
    c698:	e3a03007 	mov	r3, #7
    c69c:	ef000007 	svc	0x00000007
    c6a0:	e8bd4000 	ldmfd	sp!, {lr}
    c6a4:	e1a0f00e 	mov	pc, lr

0000c6a8 <SuspendOSInterrupts>:
    c6a8:	e92d4000 	stmfd	sp!, {lr}
    c6ac:	e3a03008 	mov	r3, #8
    c6b0:	ef000008 	svc	0x00000008
    c6b4:	e8bd4000 	ldmfd	sp!, {lr}
    c6b8:	e1a0f00e 	mov	pc, lr

0000c6bc <CallTerminateISR2>:
    c6bc:	e92d4000 	stmfd	sp!, {lr}
    c6c0:	e3a03009 	mov	r3, #9
    c6c4:	ef000009 	svc	0x00000009
    c6c8:	e8bd4000 	ldmfd	sp!, {lr}
    c6cc:	e1a0f00e 	mov	pc, lr

0000c6d0 <ActivateTask>:
    c6d0:	e92d4000 	stmfd	sp!, {lr}
    c6d4:	e3a0300a 	mov	r3, #10
    c6d8:	ef00000a 	svc	0x0000000a
    c6dc:	e8bd4000 	ldmfd	sp!, {lr}
    c6e0:	e1a0f00e 	mov	pc, lr

0000c6e4 <TerminateTask>:
    c6e4:	e92d4000 	stmfd	sp!, {lr}
    c6e8:	e3a0300b 	mov	r3, #11
    c6ec:	ef00000b 	svc	0x0000000b
    c6f0:	e8bd4000 	ldmfd	sp!, {lr}
    c6f4:	e1a0f00e 	mov	pc, lr

0000c6f8 <ChainTask>:
    c6f8:	e92d4000 	stmfd	sp!, {lr}
    c6fc:	e3a0300c 	mov	r3, #12
    c700:	ef00000c 	svc	0x0000000c
    c704:	e8bd4000 	ldmfd	sp!, {lr}
    c708:	e1a0f00e 	mov	pc, lr

0000c70c <Schedule>:
    c70c:	e92d4000 	stmfd	sp!, {lr}
    c710:	e3a0300d 	mov	r3, #13
    c714:	ef00000d 	svc	0x0000000d
    c718:	e8bd4000 	ldmfd	sp!, {lr}
    c71c:	e1a0f00e 	mov	pc, lr

0000c720 <GetTaskID>:
    c720:	e92d4000 	stmfd	sp!, {lr}
    c724:	e3a0300e 	mov	r3, #14
    c728:	ef00000e 	svc	0x0000000e
    c72c:	e8bd4000 	ldmfd	sp!, {lr}
    c730:	e1a0f00e 	mov	pc, lr

0000c734 <GetTaskState>:
    c734:	e92d4000 	stmfd	sp!, {lr}
    c738:	e3a0300f 	mov	r3, #15
    c73c:	ef00000f 	svc	0x0000000f
    c740:	e8bd4000 	ldmfd	sp!, {lr}
    c744:	e1a0f00e 	mov	pc, lr

0000c748 <CallTerminateTask>:
    c748:	e92d4000 	stmfd	sp!, {lr}
    c74c:	e3a03010 	mov	r3, #16
    c750:	ef000010 	svc	0x00000010
    c754:	e8bd4000 	ldmfd	sp!, {lr}
    c758:	e1a0f00e 	mov	pc, lr

0000c75c <GetResource>:
    c75c:	e92d4000 	stmfd	sp!, {lr}
    c760:	e3a03011 	mov	r3, #17
    c764:	ef000011 	svc	0x00000011
    c768:	e8bd4000 	ldmfd	sp!, {lr}
    c76c:	e1a0f00e 	mov	pc, lr

0000c770 <ReleaseResource>:
    c770:	e92d4000 	stmfd	sp!, {lr}
    c774:	e3a03012 	mov	r3, #18
    c778:	ef000012 	svc	0x00000012
    c77c:	e8bd4000 	ldmfd	sp!, {lr}
    c780:	e1a0f00e 	mov	pc, lr

0000c784 <GetAlarmBase>:
    c784:	e92d4000 	stmfd	sp!, {lr}
    c788:	e3a03013 	mov	r3, #19
    c78c:	ef000013 	svc	0x00000013
    c790:	e8bd4000 	ldmfd	sp!, {lr}
    c794:	e1a0f00e 	mov	pc, lr

0000c798 <GetAlarm>:
    c798:	e92d4000 	stmfd	sp!, {lr}
    c79c:	e3a03014 	mov	r3, #20
    c7a0:	ef000014 	svc	0x00000014
    c7a4:	e8bd4000 	ldmfd	sp!, {lr}
    c7a8:	e1a0f00e 	mov	pc, lr

0000c7ac <SetRelAlarm>:
    c7ac:	e92d4000 	stmfd	sp!, {lr}
    c7b0:	e3a03015 	mov	r3, #21
    c7b4:	ef000015 	svc	0x00000015
    c7b8:	e8bd4000 	ldmfd	sp!, {lr}
    c7bc:	e1a0f00e 	mov	pc, lr

0000c7c0 <SetAbsAlarm>:
    c7c0:	e92d4000 	stmfd	sp!, {lr}
    c7c4:	e3a03016 	mov	r3, #22
    c7c8:	ef000016 	svc	0x00000016
    c7cc:	e8bd4000 	ldmfd	sp!, {lr}
    c7d0:	e1a0f00e 	mov	pc, lr

0000c7d4 <CancelAlarm>:
    c7d4:	e92d4000 	stmfd	sp!, {lr}
    c7d8:	e3a03017 	mov	r3, #23
    c7dc:	ef000017 	svc	0x00000017
    c7e0:	e8bd4000 	ldmfd	sp!, {lr}
    c7e4:	e1a0f00e 	mov	pc, lr

Disassembly of section .Task_blinkCode:

0000c7e8 <main>:
    c7e8:	e92d4800 	push	{fp, lr}
    c7ec:	e28db004 	add	fp, sp, #4
    c7f0:	e24dd008 	sub	sp, sp, #8
    c7f4:	ebfff115 	bl	8c50 <uart_init>
    c7f8:	e3090218 	movw	r0, #37400	; 0x9218
    c7fc:	e3400000 	movt	r0, #0
    c800:	ebfff1b2 	bl	8ed0 <uart_write_string>
    c804:	e30b3224 	movw	r3, #45604	; 0xb224
    c808:	e3433f00 	movt	r3, #16128	; 0x3f00
    c80c:	e3a02001 	mov	r2, #1
    c810:	e5832000 	str	r2, [r3]
    c814:	e3a03010 	mov	r3, #16
    c818:	e3433f20 	movt	r3, #16160	; 0x3f20
    c81c:	e5933000 	ldr	r3, [r3]
    c820:	e50b3008 	str	r3, [fp, #-8]
    c824:	e51b3008 	ldr	r3, [fp, #-8]
    c828:	e3c3360e 	bic	r3, r3, #14680064	; 0xe00000
    c82c:	e50b3008 	str	r3, [fp, #-8]
    c830:	e51b3008 	ldr	r3, [fp, #-8]
    c834:	e3833602 	orr	r3, r3, #2097152	; 0x200000
    c838:	e50b3008 	str	r3, [fp, #-8]
    c83c:	e3a03010 	mov	r3, #16
    c840:	e3433f20 	movt	r3, #16160	; 0x3f20
    c844:	e51b2008 	ldr	r2, [fp, #-8]
    c848:	e5832000 	str	r2, [r3]
    c84c:	e3a0300c 	mov	r3, #12
    c850:	e3433f20 	movt	r3, #16160	; 0x3f20
    c854:	e5933000 	ldr	r3, [r3]
    c858:	e50b3008 	str	r3, [fp, #-8]
    c85c:	e51b3008 	ldr	r3, [fp, #-8]
    c860:	e3c3390e 	bic	r3, r3, #229376	; 0x38000
    c864:	e50b3008 	str	r3, [fp, #-8]
    c868:	e51b3008 	ldr	r3, [fp, #-8]
    c86c:	e3833902 	orr	r3, r3, #32768	; 0x8000
    c870:	e50b3008 	str	r3, [fp, #-8]
    c874:	e3a0300c 	mov	r3, #12
    c878:	e3433f20 	movt	r3, #16160	; 0x3f20
    c87c:	e51b2008 	ldr	r2, [fp, #-8]
    c880:	e5832000 	str	r2, [r3]
    c884:	e3a0302c 	mov	r3, #44	; 0x2c
    c888:	e3433f20 	movt	r3, #16160	; 0x3f20
    c88c:	e3a02902 	mov	r2, #32768	; 0x8000
    c890:	e5832000 	str	r2, [r3]
    c894:	e3a0302c 	mov	r3, #44	; 0x2c
    c898:	e3433f20 	movt	r3, #16160	; 0x3f20
    c89c:	e3a02008 	mov	r2, #8
    c8a0:	e5832000 	str	r2, [r3]
    c8a4:	e30b3408 	movw	r3, #46088	; 0xb408
    c8a8:	e3433f00 	movt	r3, #16128	; 0x3f00
    c8ac:	e3a0283e 	mov	r2, #4063232	; 0x3e0000
    c8b0:	e5832000 	str	r2, [r3]
    c8b4:	e3a03b2d 	mov	r3, #46080	; 0xb400
    c8b8:	e3433f00 	movt	r3, #16128	; 0x3f00
    c8bc:	e302270f 	movw	r2, #9999	; 0x270f
    c8c0:	e5832000 	str	r2, [r3]
    c8c4:	e30b3418 	movw	r3, #46104	; 0xb418
    c8c8:	e3433f00 	movt	r3, #16128	; 0x3f00
    c8cc:	e302270f 	movw	r2, #9999	; 0x270f
    c8d0:	e5832000 	str	r2, [r3]
    c8d4:	e30b341c 	movw	r3, #46108	; 0xb41c
    c8d8:	e3433f00 	movt	r3, #16128	; 0x3f00
    c8dc:	e3a020f9 	mov	r2, #249	; 0xf9
    c8e0:	e5832000 	str	r2, [r3]
    c8e4:	e30b340c 	movw	r3, #46092	; 0xb40c
    c8e8:	e3433f00 	movt	r3, #16128	; 0x3f00
    c8ec:	e3a02000 	mov	r2, #0
    c8f0:	e5832000 	str	r2, [r3]
    c8f4:	e30b3218 	movw	r3, #45592	; 0xb218
    c8f8:	e3433f00 	movt	r3, #16128	; 0x3f00
    c8fc:	e3a02001 	mov	r2, #1
    c900:	e5832000 	str	r2, [r3]
    c904:	ebffee6f 	bl	82c8 <enable_irq>
    c908:	e30901b4 	movw	r0, #37300	; 0x91b4
    c90c:	e3400000 	movt	r0, #0
    c910:	ebfff16e 	bl	8ed0 <uart_write_string>
    c914:	ebffee8d 	bl	8350 <GETSP>
    c918:	e1a03000 	mov	r3, r0
    c91c:	e1a00003 	mov	r0, r3
    c920:	ebfff1b4 	bl	8ff8 <hexstring>
    c924:	e30901bc 	movw	r0, #37308	; 0x91bc
    c928:	e3400000 	movt	r0, #0
    c92c:	ebfff167 	bl	8ed0 <uart_write_string>
    c930:	ebffee90 	bl	8378 <GETSPIRQ>
    c934:	e1a03000 	mov	r3, r0
    c938:	e1a00003 	mov	r0, r3
    c93c:	ebfff1ad 	bl	8ff8 <hexstring>
    c940:	e30901c8 	movw	r0, #37320	; 0x91c8
    c944:	e3400000 	movt	r0, #0
    c948:	ebfff160 	bl	8ed0 <uart_write_string>
    c94c:	ebffee8b 	bl	8380 <GETSPSVC>
    c950:	e1a03000 	mov	r3, r0
    c954:	e1a00003 	mov	r0, r3
    c958:	ebfff1a6 	bl	8ff8 <hexstring>
    c95c:	e30901d4 	movw	r0, #37332	; 0x91d4
    c960:	e3400000 	movt	r0, #0
    c964:	ebfff159 	bl	8ed0 <uart_write_string>
    c968:	ebffee88 	bl	8390 <GETISR>
    c96c:	e1a03000 	mov	r3, r0
    c970:	e1a00003 	mov	r0, r3
    c974:	ebfff19f 	bl	8ff8 <hexstring>
    c978:	e3090220 	movw	r0, #37408	; 0x9220
    c97c:	e3400000 	movt	r0, #0
    c980:	ebfff152 	bl	8ed0 <uart_write_string>
    c984:	ebffee83 	bl	8398 <GETVBAR>
    c988:	e1a03000 	mov	r3, r0
    c98c:	e1a00003 	mov	r0, r3
    c990:	ebfff198 	bl	8ff8 <hexstring>
    c994:	e30901dc 	movw	r0, #37340	; 0x91dc
    c998:	e3400000 	movt	r0, #0
    c99c:	ebfff14b 	bl	8ed0 <uart_write_string>
    c9a0:	ebffee78 	bl	8388 <GETCPSR>
    c9a4:	e1a03000 	mov	r3, r0
    c9a8:	e1a00003 	mov	r0, r3
    c9ac:	ebfff191 	bl	8ff8 <hexstring>
    c9b0:	e30b3408 	movw	r3, #46088	; 0xb408
    c9b4:	e3433f00 	movt	r3, #16128	; 0x3f00
    c9b8:	e3a020a2 	mov	r2, #162	; 0xa2
    c9bc:	e340203e 	movt	r2, #62	; 0x3e
    c9c0:	e5832000 	str	r2, [r3]
    c9c4:	e30b340c 	movw	r3, #46092	; 0xb40c
    c9c8:	e3433f00 	movt	r3, #16128	; 0x3f00
    c9cc:	e3a02000 	mov	r2, #0
    c9d0:	e5832000 	str	r2, [r3]
    c9d4:	e3093235 	movw	r3, #37429	; 0x9235
    c9d8:	e3403000 	movt	r3, #0
    c9dc:	e5d33000 	ldrb	r3, [r3]
    c9e0:	e6af3073 	sxtb	r3, r3
    c9e4:	e1a00003 	mov	r0, r3
    c9e8:	ebfffef7 	bl	c5cc <StartOS>
    c9ec:	e3a03000 	mov	r3, #0
    c9f0:	e1a00003 	mov	r0, r3
    c9f4:	e24bd004 	sub	sp, fp, #4
    c9f8:	e8bd8800 	pop	{fp, pc}

0000c9fc <blink_function>:
    c9fc:	e92d4800 	push	{fp, lr}
    ca00:	e28db004 	add	fp, sp, #4
    ca04:	e3090228 	movw	r0, #37416	; 0x9228
    ca08:	e3400000 	movt	r0, #0
    ca0c:	ebfff12f 	bl	8ed0 <uart_write_string>
    ca10:	ebffff33 	bl	c6e4 <TerminateTask>
    ca14:	e8bd8800 	pop	{fp, pc}

Disassembly of section .stacks:

0000ca18 <irq_stack_top>:
	...

0000ce18 <fiq_stack_top>:
	...

0000d218 <fiq_stack_bottom>:
	...

0000da18 <abt_stack_top>:
	...

0000de18 <abt_stack_bottom>:
	...

0000e218 <und_stack_bottom>:
	...

Disassembly of section .vectbl:

0000e618 <secureVectors>:
    e618:	e59ff018 	ldr	pc, [pc, #24]	; e638 <secureVectors_reset_address>
    e61c:	e59ff014 	ldr	pc, [pc, #20]	; e638 <secureVectors_reset_address>
    e620:	e59ff014 	ldr	pc, [pc, #20]	; e63c <secureVectors_swi_address>
    e624:	e59ff00c 	ldr	pc, [pc, #12]	; e638 <secureVectors_reset_address>
    e628:	e59ff008 	ldr	pc, [pc, #8]	; e638 <secureVectors_reset_address>
    e62c:	e59ff004 	ldr	pc, [pc, #4]	; e638 <secureVectors_reset_address>
    e630:	e59ff000 	ldr	pc, [pc]	; e638 <secureVectors_reset_address>
    e634:	e51ff004 	ldr	pc, [pc, #-4]	; e638 <secureVectors_reset_address>

0000e638 <secureVectors_reset_address>:
    e638:	00008260 	andeq	r8, r0, r0, ror #4

0000e63c <secureVectors_swi_address>:
    e63c:	000082b4 			; <UNDEFINED> instruction: 0x000082b4

0000e640 <vectors>:
    e640:	e59ff018 	ldr	pc, [pc, #24]	; e660 <vectors_reset_address>
    e644:	e59ff018 	ldr	pc, [pc, #24]	; e664 <vectors_undefined_address>
    e648:	e59ff018 	ldr	pc, [pc, #24]	; e668 <vectors_svc_address>
    e64c:	e59ff018 	ldr	pc, [pc, #24]	; e66c <vectors_prefetch_address>
    e650:	e59ff018 	ldr	pc, [pc, #24]	; e670 <vectors_data_address>
    e654:	e59ff018 	ldr	pc, [pc, #24]	; e674 <vectors_reserved_address>
    e658:	e59ff018 	ldr	pc, [pc, #24]	; e678 <vectors_irq_address>
    e65c:	e59ff000 	ldr	pc, [pc]	; e664 <vectors_undefined_address>

0000e660 <vectors_reset_address>:
    e660:	00008260 	andeq	r8, r0, r0, ror #4

0000e664 <vectors_undefined_address>:
    e664:	00008264 	andeq	r8, r0, r4, ror #4

0000e668 <vectors_svc_address>:
    e668:	000082d8 	ldrdeq	r8, [r0], -r8	; <UNPREDICTABLE>

0000e66c <vectors_prefetch_address>:
    e66c:	00008274 	andeq	r8, r0, r4, ror r2

0000e670 <vectors_data_address>:
    e670:	00008284 	andeq	r8, r0, r4, lsl #5

0000e674 <vectors_reserved_address>:
    e674:	00008294 	muleq	r0, r4, r2

0000e678 <vectors_irq_address>:
    e678:	0000c024 	andeq	ip, r0, r4, lsr #32

0000e67c <vectors_fiq_address>:
    e67c:	000082a4 	andeq	r8, r0, r4, lsr #5

Disassembly of section .bss:

0000e680 <__bss_start>:
	...

0005e680 <stacks>:
	...

0005e880 <__SP_fiq_>:
	...

0005ec80 <__SP_irq_>:
	...

0005ee80 <__SP_mon_>:
	...

0005f080 <__SP_und_>:
	...

0005f280 <__SP_abt_>:
	...

0005f480 <__SP_svc_>:
	...

0005f680 <__SP_hyp_>:
	...

0005fa80 <__SP_usr_>:
   5fa80:	00000000 	andeq	r0, r0, r0

Disassembly of section .debug_info:

00000000 <.debug_info>:
       0:	00000bcb 	andeq	r0, r0, fp, asr #23
       4:	00000004 	andeq	r0, r0, r4
       8:	01040000 	mrseq	r0, (UNDEF: 4)
       c:	000006ba 			; <UNDEFINED> instruction: 0x000006ba
      10:	00028d01 	andeq	r8, r2, r1, lsl #26
      14:	00057d00 	andeq	r7, r5, r0, lsl #26
	...
      24:	01ae0200 			; <UNDEFINED> instruction: 0x01ae0200
      28:	23020000 	movwcs	r0, #8192	; 0x2000
      2c:	00000030 	andeq	r0, r0, r0, lsr r0
      30:	4e080103 	adfmie	f0, f0, f3
      34:	02000004 	andeq	r0, r0, #4
      38:	000007b9 			; <UNDEFINED> instruction: 0x000007b9
      3c:	00422a02 	subeq	r2, r2, r2, lsl #20
      40:	01030000 	mrseq	r0, (UNDEF: 3)
      44:	00045006 	andeq	r5, r4, r6
      48:	000f0200 	andeq	r0, pc, r0, lsl #4
      4c:	31020000 	mrscc	r0, (UNDEF: 2)
      50:	00000054 	andeq	r0, r0, r4, asr r0
      54:	dd070203 	sfmle	f0, 4, [r7, #-12]
      58:	03000002 	movweq	r0, #2
      5c:	04a30502 	strteq	r0, [r3], #1282	; 0x502
      60:	dc020000 	stcle	0, cr0, [r2], {-0}
      64:	02000001 	andeq	r0, r0, #1
      68:	00006d3f 	andeq	r6, r0, pc, lsr sp
      6c:	07040300 	streq	r0, [r4, -r0, lsl #6]
      70:	000000ca 	andeq	r0, r0, sl, asr #1
      74:	0004fd02 	andeq	pc, r4, r2, lsl #26
      78:	7f460200 	svcvc	0x00460200
      7c:	03000000 	movweq	r0, #0
      80:	01540504 	cmpeq	r4, r4, lsl #10
      84:	08030000 	stmdaeq	r3, {}	; <UNPREDICTABLE>
      88:	0000c507 	andeq	ip, r0, r7, lsl #10
      8c:	05080300 	streq	r0, [r8, #-768]	; 0x300
      90:	0000014f 	andeq	r0, r0, pc, asr #2
      94:	00004502 	andeq	r4, r0, r2, lsl #10
      98:	25230300 	strcs	r0, [r3, #-768]!	; 0x300
      9c:	02000000 	andeq	r0, r0, #0
      a0:	000005fb 	strdeq	r0, [r0], -fp
      a4:	00372b03 	eorseq	r2, r7, r3, lsl #22
      a8:	a8020000 	stmdage	r2, {}	; <UNPREDICTABLE>
      ac:	03000007 	movweq	r0, #7
      b0:	00002533 	andeq	r2, r0, r3, lsr r5
      b4:	00b80200 	adcseq	r0, r8, r0, lsl #4
      b8:	3a030000 	bcc	c00c0 <__SP_usr_+0x60640>
      bc:	00000037 	andeq	r0, r0, r7, lsr r0
      c0:	00033902 	andeq	r3, r3, r2, lsl #18
      c4:	25410300 	strbcs	r0, [r1, #-768]	; 0x300
      c8:	02000000 	andeq	r0, r0, #0
      cc:	00000000 	andeq	r0, r0, r0
      d0:	00254903 	eoreq	r4, r5, r3, lsl #18
      d4:	1f020000 	svcne	0x00020000
      d8:	04000002 	streq	r0, [r0], #-2
      dc:	00006228 	andeq	r6, r0, r8, lsr #4
      e0:	045c0400 	ldrbeq	r0, [ip], #-1024	; 0x400
      e4:	05440000 	strbeq	r0, [r4, #-0]
      e8:	0001044e 	andeq	r0, r1, lr, asr #8
      ec:	00720500 	rsbseq	r0, r2, r0, lsl #10
      f0:	01044f05 	tsteq	r4, r5, lsl #30
      f4:	05000000 	streq	r0, [r0, #-0]
      f8:	00727370 	rsbseq	r7, r2, r0, ror r3
      fc:	00625005 	rsbeq	r5, r2, r5
     100:	00400000 	subeq	r0, r0, r0
     104:	00006206 	andeq	r6, r0, r6, lsl #4
     108:	00011400 	andeq	r1, r1, r0, lsl #8
     10c:	01140700 	tsteq	r4, r0, lsl #14
     110:	000f0000 	andeq	r0, pc, r0
     114:	5e070403 	cdppl	4, 0, cr0, cr7, cr3, {0}
     118:	02000003 	andeq	r0, r0, #3
     11c:	00000799 	muleq	r0, r9, r7
     120:	00625b05 	rsbeq	r5, r2, r5, lsl #22
     124:	67020000 	strvs	r0, [r2, -r0]
     128:	05000003 	streq	r0, [r0, #-3]
     12c:	00006260 	andeq	r6, r0, r0, ror #4
     130:	04990400 	ldreq	r0, [r9], #1024	; 0x400
     134:	05080000 	streq	r0, [r8, #-0]
     138:	00015665 	andeq	r5, r1, r5, ror #12
     13c:	10d00800 	sbcsne	r0, r0, r0, lsl #16
     140:	66050000 	strvs	r0, [r5], -r0
     144:	00000156 	andeq	r0, r0, r6, asr r1
     148:	036b0800 	cmneq	fp, #0, 16
     14c:	67050000 	strvs	r0, [r5, -r0]
     150:	00000126 	andeq	r0, r0, r6, lsr #2
     154:	04090004 	streq	r0, [r9], #-4
     158:	0000011b 	andeq	r0, r0, fp, lsl r1
     15c:	00066502 	andeq	r6, r6, r2, lsl #10
     160:	316d0500 	cmncc	sp, r0, lsl #10
     164:	02000001 	andeq	r0, r0, #1
     168:	000003a7 	andeq	r0, r0, r7, lsr #7
     16c:	01722606 	cmneq	r2, r6, lsl #12
     170:	04090000 	streq	r0, [r9], #-0
     174:	000000e1 	andeq	r0, r0, r1, ror #1
     178:	00076d02 	andeq	r6, r7, r2, lsl #26
     17c:	9f290700 	svcls	0x00290700
     180:	02000000 	andeq	r0, r0, #0
     184:	000005de 	ldrdeq	r0, [r0], -lr
     188:	00255107 	eoreq	r5, r5, r7, lsl #2
     18c:	d2020000 	andle	r0, r2, #0
     190:	07000002 	streq	r0, [r0, -r2]
     194:	00002561 	andeq	r2, r0, r1, ror #10
     198:	00160200 	andseq	r0, r6, r0, lsl #4
     19c:	74070000 	strvc	r0, [r7], #-0
     1a0:	00000025 	andeq	r0, r0, r5, lsr #32
     1a4:	00040302 	andeq	r0, r4, r2, lsl #6
     1a8:	37b50700 	ldrcc	r0, [r5, r0, lsl #14]!
     1ac:	09000000 	stmdbeq	r0, {}	; <UNPREDICTABLE>
     1b0:	0001b504 	andeq	fp, r1, r4, lsl #10
     1b4:	21020a00 	tstcs	r2, r0, lsl #20
     1b8:	08000003 	stmdaeq	r0, {r0, r1}
     1bc:	0000253a 	andeq	r2, r0, sl, lsr r5
     1c0:	03060200 	movweq	r0, #25088	; 0x6200
     1c4:	7e080000 	cdpvc	0, 0, cr0, cr8, cr0, {0}
     1c8:	00000025 	andeq	r0, r0, r5, lsr #32
     1cc:	00043c02 	andeq	r3, r4, r2, lsl #24
     1d0:	af880800 	svcge	0x00880800
     1d4:	0b000001 	bleq	1e0 <unused+0x1dc>
     1d8:	04910803 	ldreq	r0, [r1], #2051	; 0x803
     1dc:	08000002 	stmdaeq	r0, {r1}
     1e0:	00000654 	andeq	r0, r0, r4, asr r6
     1e4:	02049308 	andeq	r9, r4, #8, 6	; 0x20000000
     1e8:	08000000 	stmdaeq	r0, {}	; <UNPREDICTABLE>
     1ec:	00000087 	andeq	r0, r0, r7, lsl #1
     1f0:	00b59608 	adcseq	r9, r5, r8, lsl #12
     1f4:	08010000 	stmdaeq	r1, {}	; <UNPREDICTABLE>
     1f8:	00000205 	andeq	r0, r0, r5, lsl #4
     1fc:	01839b08 	orreq	r9, r3, r8, lsl #22
     200:	00020000 	andeq	r0, r2, r0
     204:	0000b50c 	andeq	fp, r0, ip, lsl #10
     208:	06340200 	ldrteq	r0, [r4], -r0, lsl #4
     20c:	9d080000 	stcls	0, cr0, [r8, #-0]
     210:	000001d7 	ldrdeq	r0, [r0], -r7
     214:	0000a804 	andeq	sl, r0, r4, lsl #16
     218:	a6081800 	strge	r1, [r8], -r0, lsl #16
     21c:	00000280 	andeq	r0, r0, r0, lsl #5
     220:	00061e08 	andeq	r1, r6, r8, lsl #28
     224:	67a80800 	strvs	r0, [r8, r0, lsl #16]!
     228:	00000001 	andeq	r0, r0, r1
     22c:	00135908 	andseq	r5, r3, r8, lsl #18
     230:	5caa0800 	stcpl	8, cr0, [sl]
     234:	04000001 	streq	r0, [r0], #-1
     238:	00053008 	andeq	r3, r5, r8
     23c:	80ac0800 	adchi	r0, ip, r0, lsl #16
     240:	0c000002 	stceq	0, cr0, [r0], {2}
     244:	0000ef08 	andeq	lr, r0, r8, lsl #30
     248:	85af0800 	strhi	r0, [pc, #2048]!	; a50 <unused+0xa4c>
     24c:	10000002 	andne	r0, r0, r2
     250:	00646905 	rsbeq	r6, r4, r5, lsl #18
     254:	0290b208 	addseq	fp, r0, #8, 4	; 0x80000000
     258:	08140000 	ldmdaeq	r4, {}	; <UNPREDICTABLE>
     25c:	00000068 	andeq	r0, r0, r8, rrx
     260:	0204bd08 	andeq	fp, r4, #8, 26	; 0x200
     264:	08150000 	ldmdaeq	r5, {}	; <UNPREDICTABLE>
     268:	00000270 	andeq	r0, r0, r0, ror r2
     26c:	0295bf08 	addseq	fp, r5, #8, 30
     270:	08160000 	ldmdaeq	r6, {}	; <UNPREDICTABLE>
     274:	0000030f 	andeq	r0, r0, pc, lsl #6
     278:	029ac108 	addseq	ip, sl, #8, 2
     27c:	00170000 	andseq	r0, r7, r0
     280:	0001cc0c 	andeq	ip, r1, ip, lsl #24
     284:	028a0c00 	addeq	r0, sl, #0, 24
     288:	04090000 	streq	r0, [r9], #-0
     28c:	00000209 	andeq	r0, r0, r9, lsl #4
     290:	0001780c 	andeq	r7, r1, ip, lsl #16
     294:	00c00c00 	sbceq	r0, r0, r0, lsl #24
     298:	c10c0000 	mrsgt	r0, (UNDEF: 12)
     29c:	02000001 	andeq	r0, r0, #1
     2a0:	00000249 	andeq	r0, r0, r9, asr #4
     2a4:	0214d508 	andseq	sp, r4, #8, 10	; 0x2000000
     2a8:	7f040000 	svcvc	0x00040000
     2ac:	08000001 	stmdaeq	r0, {r0}
     2b0:	02e7dd08 	rsceq	sp, r7, #8, 26	; 0x200
     2b4:	ed080000 	stc	0, cr0, [r8, #-0]
     2b8:	0800000d 	stmdaeq	r0, {r0, r2, r3}
     2bc:	000324df 	ldrdeq	r2, [r3], -pc	; <UNPREDICTABLE>
     2c0:	74080000 	strvc	r0, [r8], #-0
     2c4:	08000002 	stmdaeq	r0, {r1}
     2c8:	0000c0e5 	andeq	ip, r0, r5, ror #1
     2cc:	6d080400 	cfstrsvs	mvf0, [r8, #-0]
     2d0:	08000000 	stmdaeq	r0, {}	; <UNPREDICTABLE>
     2d4:	0000b5e7 	andeq	fp, r0, r7, ror #11
     2d8:	1f080500 	svcne	0x00080500
     2dc:	08000000 	stmdaeq	r0, {}	; <UNPREDICTABLE>
     2e0:	000199e9 	andeq	r9, r1, r9, ror #19
     2e4:	04000600 	streq	r0, [r0], #-1536	; 0x600
     2e8:	000003cf 	andeq	r0, r0, pc, asr #7
     2ec:	24290908 	strtcs	r0, [r9], #-2312	; 0x908
     2f0:	08000003 	stmdaeq	r0, {r0, r1}
     2f4:	00000654 	andeq	r0, r0, r4, asr r6
     2f8:	02042b09 	andeq	r2, r4, #9216	; 0x2400
     2fc:	08000000 	stmdaeq	r0, {}	; <UNPREDICTABLE>
     300:	00000087 	andeq	r0, r0, r7, lsl #1
     304:	00b52e09 	adcseq	r2, r5, r9, lsl #28
     308:	08010000 	stmdaeq	r1, {}	; <UNPREDICTABLE>
     30c:	00000536 	andeq	r0, r0, r6, lsr r5
     310:	009f3309 	addseq	r3, pc, r9, lsl #6
     314:	08020000 	stmdaeq	r2, {}	; <UNPREDICTABLE>
     318:	000007c6 	andeq	r0, r0, r6, asr #15
     31c:	03243b09 			; <UNDEFINED> instruction: 0x03243b09
     320:	00040000 	andeq	r0, r4, r0
     324:	02e70409 	rsceq	r0, r7, #150994944	; 0x9000000
     328:	bf020000 	svclt	0x00020000
     32c:	08000004 	stmdaeq	r0, {r2}
     330:	0002aaf3 	strdeq	sl, [r2], -r3
     334:	081c0b00 	ldmdaeq	ip, {r8, r9, fp}
     338:	0003a0f8 	strdeq	sl, [r3], -r8
     33c:	07790800 	ldrbeq	r0, [r9, -r0, lsl #16]!
     340:	fa080000 	blx	200348 <__SP_usr_+0x1a08c8>
     344:	000003a0 	andeq	r0, r0, r0, lsr #7
     348:	01fb0800 	mvnseq	r0, r0, lsl #16
     34c:	fb080000 	blx	200356 <__SP_usr_+0x1a08d6>
     350:	000003a0 	andeq	r0, r0, r0, lsr #7
     354:	03880804 	orreq	r0, r8, #4, 16	; 0x40000
     358:	fc080000 	stc2	0, cr0, [r8], {-0}
     35c:	000003ab 	andeq	r0, r0, fp, lsr #7
     360:	03560808 	cmpeq	r6, #8, 16	; 0x80000
     364:	fd080000 	stc2	0, cr0, [r8, #-0]
     368:	000003ab 	andeq	r0, r0, fp, lsr #7
     36c:	0174080c 	cmneq	r4, ip, lsl #16
     370:	fe080000 	cdp2	0, 0, cr0, cr8, cr0, {0}
     374:	00000074 	andeq	r0, r0, r4, ror r0
     378:	05510810 	ldrbeq	r0, [r1, #-2064]	; 0x810
     37c:	ff080000 			; <UNDEFINED> instruction: 0xff080000
     380:	00000074 	andeq	r0, r0, r4, ror r0
     384:	02b20d14 	adcseq	r0, r2, #20, 26	; 0x500
     388:	07080000 	streq	r0, [r8, -r0]
     38c:	00002501 	andeq	r2, r0, r1, lsl #10
     390:	880d1800 	stmdahi	sp, {fp, ip}
     394:	08000001 	stmdaeq	r0, {r0}
     398:	0183010c 	orreq	r0, r3, ip, lsl #2
     39c:	00190000 	andseq	r0, r9, r0
     3a0:	03a60409 			; <UNDEFINED> instruction: 0x03a60409
     3a4:	9f0c0000 	svcls	0x000c0000
     3a8:	09000002 	stmdbeq	r0, {r1}
     3ac:	00032a04 	andeq	r2, r3, r4, lsl #20
     3b0:	02f70e00 	rscseq	r0, r7, #0, 28
     3b4:	16080000 	strne	r0, [r8], -r0
     3b8:	00033501 	andeq	r3, r3, r1, lsl #10
     3bc:	08020f00 	stmdaeq	r2, {r8, r9, sl, fp}
     3c0:	03e0011e 	mvneq	r0, #-2147483641	; 0x80000007
     3c4:	6b100000 	blvs	4003cc <__SP_usr_+0x3a094c>
     3c8:	08007965 	stmdaeq	r0, {r0, r2, r5, r6, r8, fp, ip, sp, lr}
     3cc:	00b5011f 	adcseq	r0, r5, pc, lsl r1
     3d0:	10000000 	andne	r0, r0, r0
     3d4:	08006469 	stmdaeq	r0, {r0, r3, r5, r6, sl, sp, lr}
     3d8:	009f0120 	addseq	r0, pc, r0, lsr #2
     3dc:	00010000 	andeq	r0, r1, r0
     3e0:	0001650e 	andeq	r6, r1, lr, lsl #10
     3e4:	01210800 			; <UNDEFINED> instruction: 0x01210800
     3e8:	000003bd 			; <UNDEFINED> instruction: 0x000003bd
     3ec:	00047c02 	andeq	r7, r4, r2, lsl #24
     3f0:	8e200a00 	vmulhi.f32	s0, s0, s0
     3f4:	02000001 	andeq	r0, r0, #1
     3f8:	0000011c 	andeq	r0, r0, ip, lsl r1
     3fc:	00252f0b 	eoreq	r2, r5, fp, lsl #30
     400:	19020000 	stmdbne	r2, {}	; <UNPREDICTABLE>
     404:	0b000005 	bleq	420 <unused+0x41c>
     408:	00040d36 	andeq	r0, r4, r6, lsr sp
     40c:	13040900 	movwne	r0, #18688	; 0x4900
     410:	11000004 	tstne	r0, r4
     414:	0000041e 	andeq	r0, r0, lr, lsl r4
     418:	00041e12 	andeq	r1, r4, r2, lsl lr
     41c:	04090000 	streq	r0, [r9], #-0
     420:	00000424 	andeq	r0, r0, r4, lsr #8
     424:	00009b04 	andeq	r9, r0, r4, lsl #22
     428:	640b1800 	strvs	r1, [fp], #-2048	; 0x800
     42c:	00000479 	andeq	r0, r0, r9, ror r4
     430:	00028308 	andeq	r8, r2, r8, lsl #6
     434:	15650b00 	strbne	r0, [r5, #-2816]!	; 0xb00
     438:	00000005 	andeq	r0, r0, r5
     43c:	00081208 	andeq	r1, r8, r8, lsl #4
     440:	1e660b00 	vmulne.f64	d16, d6, d0
     444:	04000004 	streq	r0, [r0], #-4
     448:	00015d08 	andeq	r5, r1, r8, lsl #26
     44c:	1e680b00 	vmulne.f64	d16, d8, d0
     450:	08000004 	stmdaeq	r0, {r2}
     454:	0001d608 	andeq	sp, r1, r8, lsl #12
     458:	d66a0b00 	strbtle	r0, [sl], -r0, lsl #22
     45c:	0c000000 	stceq	0, cr0, [r0], {-0}
     460:	000f6c08 	andeq	r6, pc, r8, lsl #24
     464:	d66b0b00 	strbtle	r0, [fp], -r0, lsl #22
     468:	10000000 	andne	r0, r0, r0
     46c:	00001f08 	andeq	r1, r0, r8, lsl #30
     470:	f76c0b00 			; <UNDEFINED> instruction: 0xf76c0b00
     474:	14000003 	strne	r0, [r0], #-3
     478:	05e70400 	strbeq	r0, [r7, #1024]!	; 0x400
     47c:	0b080000 	bleq	200484 <__SP_usr_+0x1a0a04>
     480:	00049e43 	andeq	r9, r4, r3, asr #28
     484:	14610800 	strbtne	r0, [r1], #-2048	; 0x800
     488:	450b0000 	strmi	r0, [fp, #-0]
     48c:	000004ff 	strdeq	r0, [r0], -pc	; <UNPREDICTABLE>
     490:	02f00800 	rscseq	r0, r0, #0, 16
     494:	470b0000 	strmi	r0, [fp, -r0]
     498:	00000505 	andeq	r0, r0, r5, lsl #10
     49c:	e3040004 	movw	r0, #16388	; 0x4004
     4a0:	1c000001 	stcne	0, cr0, [r0], {1}
     4a4:	04ff800b 	ldrbteq	r8, [pc], #11	; 4ac <unused+0x4a8>
     4a8:	c0080000 	andgt	r0, r8, r0
     4ac:	0b000003 	bleq	4c0 <unused+0x4bc>
     4b0:	00052682 	andeq	r2, r5, r2, lsl #13
     4b4:	ad080000 	stcge	0, cr0, [r8, #-0]
     4b8:	0b000004 	bleq	4d0 <unused+0x4cc>
     4bc:	00052684 	andeq	r2, r5, r4, lsl #13
     4c0:	d2080400 	andle	r0, r8, #0, 8
     4c4:	0b000001 	bleq	4d0 <unused+0x4cc>
     4c8:	00052686 	andeq	r2, r5, r6, lsl #13
     4cc:	0f080800 	svceq	0x00080800
     4d0:	0b000001 	bleq	4dc <unused+0x4d8>
     4d4:	0000d688 	andeq	sp, r0, r8, lsl #13
     4d8:	b3080c00 	movwlt	r0, #35840	; 0x8c00
     4dc:	0b000003 	bleq	4f0 <unused+0x4ec>
     4e0:	0000d68a 	andeq	sp, r0, sl, lsl #13
     4e4:	ee081000 	cdp	0, 0, cr1, cr8, cr0, {0}
     4e8:	0b000003 	bleq	4fc <unused+0x4f8>
     4ec:	00052b94 	muleq	r5, r4, fp
     4f0:	12081400 	andne	r1, r8, #0, 8
     4f4:	0b000008 	bleq	51c <unused+0x518>
     4f8:	00052b96 	muleq	r5, r6, fp
     4fc:	09001800 	stmdbeq	r0, {fp, ip}
     500:	00049e04 	andeq	r9, r4, r4, lsl #28
     504:	04020c00 	streq	r0, [r2], #-3072	; 0xc00
     508:	be020000 	cdplt	0, 0, cr0, cr2, cr0, {0}
     50c:	0b000002 	bleq	51c <unused+0x518>
     510:	0004795b 	andeq	r7, r4, fp, asr r9
     514:	0a040900 	beq	10291c <__SP_usr_+0xa2e9c>
     518:	02000005 	andeq	r0, r0, #5
     51c:	0000042f 	andeq	r0, r0, pc, lsr #8
     520:	0424790b 	strteq	r7, [r4], #-2315	; 0x90b
     524:	d60c0000 	strle	r0, [ip], -r0
     528:	09000000 	stmdbeq	r0, {}	; <UNPREDICTABLE>
     52c:	00051b04 	andeq	r1, r5, r4, lsl #22
     530:	068f1300 	streq	r1, [pc], r0, lsl #6
     534:	da010000 	ble	4053c <vectors_end+0x31ebc>
     538:	0000059f 	muleq	r0, pc, r5	; <UNPREDICTABLE>
     53c:	000097ec 	andeq	r9, r0, ip, ror #15
     540:	000000e4 	andeq	r0, r0, r4, ror #1
     544:	059f9c01 	ldreq	r9, [pc, #3073]	; 114d <unused+0x1149>
     548:	f7140000 			; <UNDEFINED> instruction: 0xf7140000
     54c:	01000003 	tsteq	r0, r3
     550:	0005a6db 	ldrdeq	sl, [r5], -fp
     554:	64910200 	ldrvs	r0, [r1], #512	; 0x200
     558:	00052914 	andeq	r2, r5, r4, lsl r9
     55c:	a6dc0100 	ldrbge	r0, [ip], r0, lsl #2
     560:	02000005 	andeq	r0, r0, #5
     564:	18156091 	ldmdane	r5, {r0, r4, r7, sp, lr}
     568:	01000004 	tsteq	r0, r4
     56c:	000062df 	ldrdeq	r6, [r0], -pc	; <UNPREDICTABLE>
     570:	74910200 	ldrvc	r0, [r1], #512	; 0x200
     574:	00032e15 	andeq	r2, r3, r5, lsl lr
     578:	62e00100 	rscvs	r0, r0, #0, 2
     57c:	02000000 	andeq	r0, r0, #0
     580:	7d157091 	ldcvc	0, cr7, [r5, #-580]	; 0xfffffdbc
     584:	01000000 	mrseq	r0, (UNDEF: 0)
     588:	000062e1 	andeq	r6, r0, r1, ror #5
     58c:	6c910200 	lfmvs	f0, 4, [r1], {0}
     590:	0006a315 	andeq	sl, r6, r5, lsl r3
     594:	62e20100 	rscvs	r0, r2, #0, 2
     598:	02000000 	andeq	r0, r0, #0
     59c:	16006891 			; <UNDEFINED> instruction: 0x16006891
     5a0:	6e690504 	cdpvs	5, 6, cr0, cr9, cr4, {0}
     5a4:	ab0c0074 	blge	30077c <__SP_usr_+0x2a0cfc>
     5a8:	09000005 	stmdbeq	r0, {r0, r2}
     5ac:	0005b104 	andeq	fp, r5, r4, lsl #2
     5b0:	03e00c00 	mvneq	r0, #0, 24
     5b4:	26170000 	ldrcs	r0, [r7], -r0
     5b8:	01000006 	tsteq	r0, r6
     5bc:	0098d0fc 	ldrsheq	sp, [r8], ip
     5c0:	0000ec00 	andeq	lr, r0, r0, lsl #24
     5c4:	109c0100 	addsne	r0, ip, r0, lsl #2
     5c8:	14000006 	strne	r0, [r0], #-6
     5cc:	0000053c 	andeq	r0, r0, ip, lsr r5
     5d0:	0610fd01 	ldreq	pc, [r0], -r1, lsl #26
     5d4:	91020000 	mrsls	r0, (UNDEF: 2)
     5d8:	05d8146c 	ldrbeq	r1, [r8, #1132]	; 0x46c
     5dc:	fe010000 	cdp2	0, 0, cr0, cr1, cr0, {0}
     5e0:	00000062 	andeq	r0, r0, r2, rrx
     5e4:	18689102 	stmdane	r8!, {r1, r8, ip, pc}^
     5e8:	000000dc 	ldrdeq	r0, [r0], -ip
     5ec:	62010101 	andvs	r0, r1, #1073741824	; 0x40000000
     5f0:	02000000 	andeq	r0, r0, #0
     5f4:	f4197491 			; <UNDEFINED> instruction: 0xf4197491
     5f8:	7c000098 	stcvc	0, cr0, [r0], {152}	; 0x98
     5fc:	1a000000 	bne	604 <unused+0x600>
     600:	00706d74 	rsbseq	r6, r0, r4, ror sp
     604:	e0010b01 	and	r0, r1, r1, lsl #22
     608:	02000003 	andeq	r0, r0, #3
     60c:	00007091 	muleq	r0, r1, r0
     610:	0006150c 	andeq	r1, r6, ip, lsl #10
     614:	e0040900 	and	r0, r4, r0, lsl #18
     618:	1b000003 	blne	62c <unused+0x628>
     61c:	000001b4 			; <UNDEFINED> instruction: 0x000001b4
     620:	bc011c01 	stclt	12, cr1, [r1], {1}
     624:	58000099 	stmdapl	r0, {r0, r3, r4, r7}
     628:	01000001 	tsteq	r0, r1
     62c:	0006a09c 	muleq	r6, ip, r0
     630:	053c1c00 	ldreq	r1, [ip, #-3072]!	; 0xc00
     634:	1d010000 	stcne	0, cr0, [r1, #-0]
     638:	00061001 	andeq	r1, r6, r1
     63c:	64910200 	ldrvs	r0, [r1], #512	; 0x200
     640:	0005d81c 	andeq	sp, r5, ip, lsl r8
     644:	011e0100 	tsteq	lr, r0, lsl #2
     648:	00000062 	andeq	r0, r0, r2, rrx
     64c:	18609102 	stmdane	r0!, {r1, r8, ip, pc}^
     650:	00000371 	andeq	r0, r0, r1, ror r3
     654:	a0012101 	andge	r2, r1, r1, lsl #2
     658:	02000006 	andeq	r0, r0, #6
     65c:	68187091 	ldmdavs	r8, {r0, r4, r7, ip, sp, lr}
     660:	01000004 	tsteq	r0, r4
     664:	00620122 	rsbeq	r0, r2, r2, lsr #2
     668:	91020000 	mrsls	r0, (UNDEF: 2)
     66c:	99e41974 	stmibls	r4!, {r2, r4, r5, r6, r8, fp, ip}^
     670:	010c0000 	mrseq	r0, (UNDEF: 12)
     674:	2f180000 	svccs	0x00180000
     678:	01000001 	tsteq	r0, r1
     67c:	06a00126 	strteq	r0, [r0], r6, lsr #2
     680:	91020000 	mrsls	r0, (UNDEF: 2)
     684:	9a78196c 	bls	1e06c3c <__SP_usr_+0x1da71bc>
     688:	00700000 	rsbseq	r0, r0, r0
     68c:	741a0000 	ldrvc	r0, [sl], #-0
     690:	0100706d 	tsteq	r0, sp, rrx
     694:	05b10134 	ldreq	r0, [r1, #308]!	; 0x134
     698:	91020000 	mrsls	r0, (UNDEF: 2)
     69c:	00000068 	andeq	r0, r0, r8, rrx
     6a0:	0000620c 	andeq	r6, r0, ip, lsl #4
     6a4:	066f1b00 	strbteq	r1, [pc], -r0, lsl #22
     6a8:	4b010000 	blmi	406b0 <vectors_end+0x32030>
     6ac:	009b1401 	addseq	r1, fp, r1, lsl #8
     6b0:	0000dc00 	andeq	sp, r0, r0, lsl #24
     6b4:	f89c0100 			; <UNDEFINED> instruction: 0xf89c0100
     6b8:	1c000006 	stcne	0, cr0, [r0], {6}
     6bc:	000005ff 	strdeq	r0, [r0], -pc	; <UNPREDICTABLE>
     6c0:	f8014c01 			; <UNDEFINED> instruction: 0xf8014c01
     6c4:	02000006 	andeq	r0, r0, #6
     6c8:	d8186f91 	ldmdale	r8, {r0, r4, r7, r8, r9, sl, fp, sp, lr}
     6cc:	01000005 	tsteq	r0, r5
     6d0:	00620152 	rsbeq	r0, r2, r2, asr r1
     6d4:	91020000 	mrsls	r0, (UNDEF: 2)
     6d8:	02671874 	rsbeq	r1, r7, #116, 16	; 0x740000
     6dc:	54010000 	strpl	r0, [r1], #-0
     6e0:	0000b501 	andeq	fp, r0, r1, lsl #10
     6e4:	72910200 	addsvc	r0, r1, #0, 4
     6e8:	00026b18 	andeq	r6, r2, r8, lsl fp
     6ec:	01550100 	cmpeq	r5, r0, lsl #2
     6f0:	00000204 	andeq	r0, r0, r4, lsl #4
     6f4:	00739102 	rsbseq	r9, r3, r2, lsl #2
     6f8:	00009f0c 	andeq	r9, r0, ip, lsl #30
     6fc:	02281b00 	eoreq	r1, r8, #0, 22
     700:	75010000 	strvc	r0, [r1, #-0]
     704:	009bf001 	addseq	pc, fp, r1
     708:	0000b000 	andeq	fp, r0, r0
     70c:	419c0100 	orrsmi	r0, ip, r0, lsl #2
     710:	1c000007 	stcne	0, cr0, [r0], {7}
     714:	000005ff 	strdeq	r0, [r0], -pc	; <UNPREDICTABLE>
     718:	f8017601 			; <UNDEFINED> instruction: 0xf8017601
     71c:	02000006 	andeq	r0, r0, #6
     720:	d8186f91 	ldmdale	r8, {r0, r4, r7, r8, r9, sl, fp, sp, lr}
     724:	01000005 	tsteq	r0, r5
     728:	0062017d 	rsbeq	r0, r2, sp, ror r1
     72c:	91020000 	mrsls	r0, (UNDEF: 2)
     730:	02671874 	rsbeq	r1, r7, #116, 16	; 0x740000
     734:	7f010000 	svcvc	0x00010000
     738:	00020401 	andeq	r0, r2, r1, lsl #8
     73c:	73910200 	orrsvc	r0, r1, #0, 4
     740:	01961d00 	orrseq	r1, r6, r0, lsl #26
     744:	9d010000 	stcls	0, cr0, [r1, #-0]
     748:	0003e001 	andeq	lr, r3, r1
     74c:	009ca000 	addseq	sl, ip, r0
     750:	00004800 	andeq	r4, r0, r0, lsl #16
     754:	1e9c0100 	fmlnee	f0, f4, f0
     758:	00000783 	andeq	r0, r0, r3, lsl #15
     75c:	e001aa01 	and	sl, r1, r1, lsl #20
     760:	e8000003 	stmda	r0, {r0, r1}
     764:	c800009c 	stmdagt	r0, {r2, r3, r4, r7}
     768:	01000000 	mrseq	r0, (UNDEF: 0)
     76c:	00079f9c 	muleq	r7, ip, pc	; <UNPREDICTABLE>
     770:	03711800 	cmneq	r1, #0, 16
     774:	b3010000 	movwlt	r0, #4096	; 0x1000
     778:	0006a001 	andeq	sl, r6, r1
     77c:	74910200 	ldrvc	r0, [r1], #512	; 0x200
     780:	0005d818 	andeq	sp, r5, r8, lsl r8
     784:	01b40100 			; <UNDEFINED> instruction: 0x01b40100
     788:	00000062 	andeq	r0, r0, r2, rrx
     78c:	18709102 	ldmdane	r0!, {r1, r8, ip, pc}^
     790:	0000023a 	andeq	r0, r0, sl, lsr r2
     794:	e001b901 	and	fp, r1, r1, lsl #18
     798:	02000003 	andeq	r0, r0, #3
     79c:	1f006891 	svcne	0x00006891
     7a0:	000004c8 	andeq	r0, r0, r8, asr #9
     7a4:	b601fd01 	strlt	pc, [r1], -r1, lsl #26
     7a8:	b0000001 	andlt	r0, r0, r1
     7ac:	a400009d 	strge	r0, [r0], #-157	; 0x9d
     7b0:	01000000 	mrseq	r0, (UNDEF: 0)
     7b4:	0007c99c 	muleq	r7, ip, r9
     7b8:	001f1800 	andseq	r1, pc, r0, lsl #16
     7bc:	00010000 	andeq	r0, r1, r0
     7c0:	0001b602 	andeq	fp, r1, r2, lsl #12
     7c4:	77910200 	ldrvc	r0, [r1, r0, lsl #4]
     7c8:	01352000 	teqeq	r5, r0
     7cc:	1e010000 	cdpne	0, 0, cr0, cr1, cr0, {0}
     7d0:	009e5402 	addseq	r5, lr, r2, lsl #8
     7d4:	0000c400 	andeq	ip, r0, r0, lsl #8
     7d8:	fe9c0100 	cdp2	1, 9, cr0, cr12, cr0, {0}
     7dc:	1c000007 	stcne	0, cr0, [r0], {7}
     7e0:	00000771 	andeq	r0, r0, r1, ror r7
     7e4:	f8021f01 			; <UNDEFINED> instruction: 0xf8021f01
     7e8:	02000006 	andeq	r0, r0, #6
     7ec:	721a6f91 	andsvc	r6, sl, #580	; 0x244
     7f0:	01007a65 	tsteq	r0, r5, ror #20
     7f4:	02850224 	addeq	r0, r5, #36, 4	; 0x40000002
     7f8:	91020000 	mrsls	r0, (UNDEF: 2)
     7fc:	e3200074 			; <UNDEFINED> instruction: 0xe3200074
     800:	01000000 	mrseq	r0, (UNDEF: 0)
     804:	9f180237 	svcls	0x00180237
     808:	007c0000 	rsbseq	r0, ip, r0
     80c:	9c010000 	stcls	0, cr0, [r1], {-0}
     810:	00000833 	andeq	r0, r0, r3, lsr r8
     814:	0007711c 	andeq	r7, r7, ip, lsl r1
     818:	02380100 	eorseq	r0, r8, #0, 2
     81c:	000006f8 	strdeq	r0, [r0], -r8
     820:	1a6f9102 	bne	1be4c30 <__SP_usr_+0x1b851b0>
     824:	007a6572 	rsbseq	r6, sl, r2, ror r5
     828:	85023a01 	strhi	r3, [r2, #-2561]	; 0xa01
     82c:	02000002 	andeq	r0, r0, #2
     830:	21007491 			; <UNDEFINED> instruction: 0x21007491
     834:	00000761 	andeq	r0, r0, r1, ror #14
     838:	94024a01 	strls	r4, [r2], #-2561	; 0xa01
     83c:	5c00009f 	stcpl	0, cr0, [r0], {159}	; 0x9f
     840:	01000000 	mrseq	r0, (UNDEF: 0)
     844:	034e1e9c 	movteq	r1, #61084	; 0xee9c
     848:	6c010000 	stcvs	0, cr0, [r1], {-0}
     84c:	00087e02 	andeq	r7, r8, r2, lsl #28
     850:	009ff000 	addseq	pc, pc, r0
     854:	00011400 	andeq	r1, r1, r0, lsl #8
     858:	7e9c0100 	fmlvce	f0, f4, f0
     85c:	1c000008 	stcne	0, cr0, [r0], {8}
     860:	0000021a 	andeq	r0, r0, sl, lsl r2
     864:	89026c01 	stmdbhi	r2, {r0, sl, fp, sp, lr}
     868:	02000008 	andeq	r0, r0, #8
     86c:	1a186f91 	bne	61c6b8 <__SP_usr_+0x5bcc38>
     870:	01000006 	tsteq	r0, r6
     874:	088e0271 	stmeq	lr, {r0, r4, r5, r6, r9}
     878:	91020000 	mrsls	r0, (UNDEF: 2)
     87c:	04090074 	streq	r0, [r9], #-116	; 0x74
     880:	00000884 	andeq	r0, r0, r4, lsl #17
     884:	0001670c 	andeq	r6, r1, ip, lsl #14
     888:	01830c00 	orreq	r0, r3, r0, lsl #24
     88c:	7e0c0000 	cdpvc	0, 0, cr0, cr12, cr0, {0}
     890:	1b000008 	blne	8b8 <unused+0x8b4>
     894:	0000064a 	andeq	r0, r0, sl, asr #12
     898:	0402bd01 	streq	fp, [r2], #-3329	; 0xd01
     89c:	b80000a1 	stmdalt	r0, {r0, r5, r7}
     8a0:	01000000 	mrseq	r0, (UNDEF: 0)
     8a4:	0008b99c 	muleq	r8, ip, r9
     8a8:	023a1800 	eorseq	r1, sl, #0, 16
     8ac:	c1010000 	mrsgt	r0, (UNDEF: 1)
     8b0:	0005b102 	andeq	fp, r5, r2, lsl #2
     8b4:	74910200 	ldrvc	r0, [r1], #512	; 0x200
     8b8:	03761b00 	cmneq	r6, #0, 22
     8bc:	f6010000 			; <UNDEFINED> instruction: 0xf6010000
     8c0:	00a1bc02 	adceq	fp, r1, r2, lsl #24
     8c4:	00007400 	andeq	r7, r0, r0, lsl #8
     8c8:	df9c0100 	svcle	0x009c0100
     8cc:	18000008 	stmdane	r0, {r3}
     8d0:	000002b2 			; <UNDEFINED> instruction: 0x000002b2
     8d4:	2502fb01 	strcs	pc, [r2, #-2817]	; 0xb01
     8d8:	02000000 	andeq	r0, r0, #0
     8dc:	21007791 			; <UNDEFINED> instruction: 0x21007791
     8e0:	00000101 	andeq	r0, r0, r1, lsl #2
     8e4:	30031c01 	andcc	r1, r3, r1, lsl #24
     8e8:	6c0000a2 	stcvs	0, cr0, [r0], {162}	; 0xa2
     8ec:	01000000 	mrseq	r0, (UNDEF: 0)
     8f0:	023f219c 	eorseq	r2, pc, #156, 2	; 0x27
     8f4:	67010000 	strvs	r0, [r1, -r0]
     8f8:	00a29c03 	adceq	r9, r2, r3, lsl #24
     8fc:	00005000 	andeq	r5, r0, r0
     900:	219c0100 	orrscs	r0, ip, r0, lsl #2
     904:	00000504 	andeq	r0, r0, r4, lsl #10
     908:	ec038d01 	stc	13, cr8, [r3], {1}
     90c:	200000a2 	andcs	r0, r0, r2, lsr #1
     910:	01000000 	mrseq	r0, (UNDEF: 0)
     914:	07cf1e9c 	bfieq	r1, ip, (invalid: 29:15)
     918:	a4010000 	strge	r0, [r1], #-0
     91c:	00018e03 	andeq	r8, r1, r3, lsl #28
     920:	00a30c00 	adceq	r0, r3, r0, lsl #24
     924:	0000c400 	andeq	ip, r0, r0, lsl #8
     928:	6c9c0100 	ldfvss	f0, [ip], {0}
     92c:	1c000009 	stcne	0, cr0, [r0], {9}
     930:	00000771 	andeq	r0, r0, r1, ror r7
     934:	9003a501 	andls	sl, r3, r1, lsl #10
     938:	02000002 	andeq	r0, r0, #2
     93c:	bf186791 	svclt	0x00186791
     940:	01000007 	tsteq	r0, r7
     944:	018e03a7 	orreq	r0, lr, r7, lsr #7
     948:	91020000 	mrsls	r0, (UNDEF: 2)
     94c:	07dc1877 			; <UNDEFINED> instruction: 0x07dc1877
     950:	a8010000 	stmdage	r1, {}	; <UNPREDICTABLE>
     954:	00096c03 	andeq	r6, r9, r3, lsl #24
     958:	70910200 	addsvc	r0, r1, r0, lsl #4
     95c:	00007618 	andeq	r7, r0, r8, lsl r6
     960:	03aa0100 			; <UNDEFINED> instruction: 0x03aa0100
     964:	00000971 	andeq	r0, r0, r1, ror r9
     968:	006c9102 	rsbeq	r9, ip, r2, lsl #2
     96c:	0003ab0c 	andeq	sl, r3, ip, lsl #22
     970:	03a00c00 	moveq	r0, #0, 24
     974:	ae1b0000 	cdpge	0, 1, cr0, cr11, cr0, {0}
     978:	01000006 	tsteq	r0, r6
     97c:	a3d003f6 	bicsge	r0, r0, #-671088637	; 0xd8000003
     980:	00580000 	subseq	r0, r8, r0
     984:	9c010000 	stcls	0, cr0, [r1], {-0}
     988:	000009ab 	andeq	r0, r0, fp, lsr #19
     98c:	0007711c 	andeq	r7, r7, ip, lsl r1
     990:	03f60100 	mvnseq	r0, #0, 2
     994:	00000290 	muleq	r0, r0, r2
     998:	186f9102 	stmdane	pc!, {r1, r8, ip, pc}^	; <UNPREDICTABLE>
     99c:	000007dc 	ldrdeq	r0, [r0], -ip
     9a0:	6c03f901 	stcvs	9, cr15, [r3], {1}
     9a4:	02000009 	andeq	r0, r0, #9
     9a8:	1f007491 	svcne	0x00007491
     9ac:	0000056f 	andeq	r0, r0, pc, ror #10
     9b0:	8e040a01 	vmlahi.f32	s0, s8, s2
     9b4:	28000001 	stmdacs	r0, {r0}
     9b8:	3c0000a4 	stccc	0, cr0, [r0], {164}	; 0xa4
     9bc:	01000000 	mrseq	r0, (UNDEF: 0)
     9c0:	0009f39c 	muleq	r9, ip, r3
     9c4:	07711c00 	ldrbeq	r1, [r1, -r0, lsl #24]!
     9c8:	0b010000 	bleq	409d0 <vectors_end+0x32350>
     9cc:	00029004 	andeq	r9, r2, r4
     9d0:	6f910200 	svcvs	0x00910200
     9d4:	00020b1c 	andeq	r0, r2, ip, lsl fp
     9d8:	040c0100 	streq	r0, [ip], #-256	; 0x100
     9dc:	000009f3 	strdeq	r0, [r0], -r3
     9e0:	186e9102 	stmdane	lr!, {r1, r8, ip, pc}^
     9e4:	000007bf 			; <UNDEFINED> instruction: 0x000007bf
     9e8:	8e040e01 	cdphi	14, 0, cr0, cr4, cr1, {0}
     9ec:	02000001 	andeq	r0, r0, #1
     9f0:	0c007791 	stceq	7, cr7, [r0], {145}	; 0x91
     9f4:	000000cb 	andeq	r0, r0, fp, asr #1
     9f8:	00046e1b 	andeq	r6, r4, fp, lsl lr
     9fc:	04500100 	ldrbeq	r0, [r0], #-256	; 0x100
     a00:	0000a464 	andeq	sl, r0, r4, ror #8
     a04:	00000048 	andeq	r0, r0, r8, asr #32
     a08:	0a2d9c01 	beq	b67a14 <__SP_usr_+0xb07f94>
     a0c:	ff1c0000 			; <UNDEFINED> instruction: 0xff1c0000
     a10:	01000005 	tsteq	r0, r5
     a14:	06f80451 	usateq	r0, #24, r1, asr #8
     a18:	91020000 	mrsls	r0, (UNDEF: 2)
     a1c:	79641a6f 	stmdbvc	r4!, {r0, r1, r2, r3, r5, r6, r9, fp, ip}^
     a20:	5301006e 	movwpl	r0, #4206	; 0x106e
     a24:	00096c04 	andeq	r6, r9, r4, lsl #24
     a28:	74910200 	ldrvc	r0, [r1], #512	; 0x200
     a2c:	01ef1b00 	mvneq	r1, r0, lsl #22
     a30:	62010000 	andvs	r0, r1, #0
     a34:	00a4ac04 	adceq	sl, r4, r4, lsl #24
     a38:	00011800 	andeq	r1, r1, r0, lsl #16
     a3c:	8d9c0100 	ldfhis	f0, [ip]
     a40:	1c00000a 	stcne	0, cr0, [r0], {10}
     a44:	00000490 	muleq	r0, r0, r4
     a48:	8d046201 	sfmhi	f6, 4, [r4, #-4]
     a4c:	0200000a 	andeq	r0, r0, #10
     a50:	691a6f91 	ldmdbvs	sl, {r0, r4, r7, r8, r9, sl, fp, sp, lr}
     a54:	04650100 	strbteq	r0, [r5], #-256	; 0x100
     a58:	00000049 	andeq	r0, r0, r9, asr #32
     a5c:	18769102 	ldmdane	r6!, {r1, r8, ip, pc}^
     a60:	000001c4 	andeq	r0, r0, r4, asr #3
     a64:	92046601 	andls	r6, r4, #1048576	; 0x100000
     a68:	0200000a 	andeq	r0, r0, #10
     a6c:	bf187591 	svclt	0x00187591
     a70:	01000007 	tsteq	r0, r7
     a74:	018e0468 	orreq	r0, lr, r8, ror #8
     a78:	91020000 	mrsls	r0, (UNDEF: 2)
     a7c:	02591874 	subseq	r1, r9, #116, 16	; 0x740000
     a80:	6a010000 	bvs	40a88 <vectors_end+0x32408>
     a84:	00052b04 	andeq	r2, r5, r4, lsl #22
     a88:	70910200 	addsvc	r0, r1, r0, lsl #4
     a8c:	01a40c00 			; <UNDEFINED> instruction: 0x01a40c00
     a90:	aa0c0000 	bge	300a98 <__SP_usr_+0x2a1018>
     a94:	21000000 	mrscs	r0, (UNDEF: 0)
     a98:	00000025 	andeq	r0, r0, r5, lsr #32
     a9c:	c404b801 	strgt	fp, [r4], #-2049	; 0x801
     aa0:	580000a5 	stmdapl	r0, {r0, r2, r5, r7}
     aa4:	01000000 	mrseq	r0, (UNDEF: 0)
     aa8:	04dd1b9c 	ldrbeq	r1, [sp], #2972	; 0xb9c
     aac:	de010000 	cdple	0, 0, cr0, cr1, cr0, {0}
     ab0:	00a61c04 	adceq	r1, r6, r4, lsl #24
     ab4:	00007800 	andeq	r7, r0, r0, lsl #16
     ab8:	cf9c0100 	svcgt	0x009c0100
     abc:	1800000a 	stmdane	r0, {r1, r3}
     ac0:	000007bf 			; <UNDEFINED> instruction: 0x000007bf
     ac4:	ec04e401 	cfstrs	mvf14, [r4], {1}
     ac8:	02000003 	andeq	r0, r0, #3
     acc:	22007791 	andcs	r7, r0, #38010880	; 0x2440000
     ad0:	000001a5 	andeq	r0, r0, r5, lsr #3
     ad4:	b1012808 	tstlt	r1, r8, lsl #16
     ad8:	23000003 	movwcs	r0, #3
     adc:	00000390 	muleq	r0, r0, r3
     ae0:	02098901 	andeq	r8, r9, #16384	; 0x4000
     ae4:	03050000 	movweq	r0, #20480	; 0x5000
     ae8:	00009360 	andeq	r9, r0, r0, ror #6
     aec:	0003e006 	andeq	lr, r3, r6
     af0:	000af700 	andeq	pc, sl, r0, lsl #14
     af4:	22002400 	andcs	r2, r0, #0, 8
     af8:	00000680 	andeq	r0, r0, r0, lsl #13
     afc:	ec01be08 	stc	14, cr11, [r1], {8}
     b00:	0600000a 	streq	r0, [r0], -sl
     b04:	00000094 	muleq	r0, r4, r0
     b08:	00000b0e 	andeq	r0, r0, lr, lsl #22
     b0c:	dc220024 	stcle	0, cr0, [r2], #-144	; 0xffffff70
     b10:	08000003 	stmdaeq	r0, {r0, r1}
     b14:	0b0301dd 	bleq	c1290 <__SP_usr_+0x61810>
     b18:	a0060000 	andge	r0, r6, r0
     b1c:	2a000003 	bcs	b30 <unused+0xb2c>
     b20:	0700000b 	streq	r0, [r0, -fp]
     b24:	00000114 	andeq	r0, r0, r4, lsl r1
     b28:	54220001 	strtpl	r0, [r2], #-1
     b2c:	08000000 	stmdaeq	r0, {}	; <UNPREDICTABLE>
     b30:	0b3601ee 	bleq	d812f0 <__SP_usr_+0xd21870>
     b34:	1a0c0000 	bne	300b3c <__SP_usr_+0x2a10bc>
     b38:	0600000b 	streq	r0, [r0], -fp
     b3c:	000003ab 	andeq	r0, r0, fp, lsr #7
     b40:	00000b4b 	andeq	r0, r0, fp, asr #22
     b44:	00011407 	andeq	r1, r1, r7, lsl #8
     b48:	22000100 	andcs	r0, r0, #0, 2
     b4c:	00000607 	andeq	r0, r0, r7, lsl #12
     b50:	5701f108 	strpl	pc, [r1, -r8, lsl #2]
     b54:	0c00000b 	stceq	0, cr0, [r0], {11}
     b58:	00000b3b 	andeq	r0, r0, fp, lsr fp
     b5c:	00052b06 	andeq	r2, r5, r6, lsl #22
     b60:	000b6c00 	andeq	r6, fp, r0, lsl #24
     b64:	01140700 	tsteq	r4, r0, lsl #14
     b68:	00000000 	andeq	r0, r0, r0
     b6c:	00054125 	andeq	r4, r5, r5, lsr #2
     b70:	77290c00 	strvc	r0, [r9, -r0, lsl #24]!
     b74:	0c00000b 	stceq	0, cr0, [r0], {11}
     b78:	00000b5c 	andeq	r0, r0, ip, asr fp
     b7c:	00042223 	andeq	r2, r4, r3, lsr #4
     b80:	f83f0100 			; <UNDEFINED> instruction: 0xf83f0100
     b84:	05000006 	streq	r0, [r0, #-6]
     b88:	00903c03 	addseq	r3, r0, r3, lsl #24
     b8c:	03142300 	tsteq	r4, #0, 6
     b90:	46010000 	strmi	r0, [r1], -r0
     b94:	000006f8 	strdeq	r0, [r0], -r8
     b98:	903d0305 	eorsls	r0, sp, r5, lsl #6
     b9c:	aa060000 	bge	180ba4 <__SP_usr_+0x121124>
     ba0:	ae000000 	cdpge	0, 0, cr0, cr0, cr0, {0}
     ba4:	0700000b 	streq	r0, [r0, -fp]
     ba8:	00000114 	andeq	r0, r0, r4, lsl r1
     bac:	87250000 	strhi	r0, [r5, -r0]!
     bb0:	01000004 	tsteq	r0, r4
     bb4:	000bb960 	andeq	fp, fp, r0, ror #18
     bb8:	0b9e0c00 	bleq	fe783bc0 <__SP_usr_+0xfe724140>
     bbc:	5c250000 	stcpl	0, cr0, [r5], #-0
     bc0:	01000005 	tsteq	r0, r5
     bc4:	000bc970 	andeq	ip, fp, r0, ror r9
     bc8:	0b9e0c00 	bleq	fe783bd0 <__SP_usr_+0xfe724150>
     bcc:	98000000 	stmdals	r0, {}	; <UNPREDICTABLE>
     bd0:	04000003 	streq	r0, [r0], #-3
     bd4:	00024200 	andeq	r4, r2, r0, lsl #4
     bd8:	ba010400 	blt	41be0 <vectors_end+0x33560>
     bdc:	01000006 	tsteq	r0, r6
     be0:	00000865 	andeq	r0, r0, r5, ror #16
     be4:	0000057d 	andeq	r0, r0, sp, ror r5
     be8:	000000c8 	andeq	r0, r0, r8, asr #1
     bec:	00000000 	andeq	r0, r0, r0
     bf0:	00000315 	andeq	r0, r0, r5, lsl r3
     bf4:	0001ae02 	andeq	sl, r1, r2, lsl #28
     bf8:	30230200 	eorcc	r0, r3, r0, lsl #4
     bfc:	03000000 	movweq	r0, #0
     c00:	044e0801 	strbeq	r0, [lr], #-2049	; 0x801
     c04:	01030000 	mrseq	r0, (UNDEF: 3)
     c08:	00045006 	andeq	r5, r4, r6
     c0c:	07020300 	streq	r0, [r2, -r0, lsl #6]
     c10:	000002dd 	ldrdeq	r0, [r0], -sp
     c14:	a3050203 	movwge	r0, #20995	; 0x5203
     c18:	02000004 	andeq	r0, r0, #4
     c1c:	000001dc 	ldrdeq	r0, [r0], -ip
     c20:	00573f02 	subseq	r3, r7, r2, lsl #30
     c24:	04030000 	streq	r0, [r3], #-0
     c28:	0000ca07 	andeq	ip, r0, r7, lsl #20
     c2c:	05040300 	streq	r0, [r4, #-768]	; 0x300
     c30:	00000154 	andeq	r0, r0, r4, asr r1
     c34:	c5070803 	strgt	r0, [r7, #-2051]	; 0x803
     c38:	03000000 	movweq	r0, #0
     c3c:	014f0508 	cmpeq	pc, r8, lsl #10
     c40:	1f020000 	svcne	0x00020000
     c44:	03000002 	movweq	r0, #2
     c48:	00004c28 	andeq	r4, r0, r8, lsr #24
     c4c:	07040300 	streq	r0, [r4, -r0, lsl #6]
     c50:	0000035e 	andeq	r0, r0, lr, asr r3
     c54:	0005de02 	andeq	sp, r5, r2, lsl #28
     c58:	25510400 	ldrbcs	r0, [r1, #-1024]	; 0x400
     c5c:	02000000 	andeq	r0, r0, #0
     c60:	0000011c 	andeq	r0, r0, ip, lsl r1
     c64:	00252f05 	eoreq	r2, r5, r5, lsl #30
     c68:	19020000 	stmdbne	r2, {}	; <UNPREDICTABLE>
     c6c:	05000005 	streq	r0, [r0, #-5]
     c70:	0000a636 	andeq	sl, r0, r6, lsr r6
     c74:	ac040400 	cfstrsge	mvf0, [r4], {-0}
     c78:	05000000 	streq	r0, [r0, #-0]
     c7c:	000000b7 	strheq	r0, [r0], -r7
     c80:	0000b706 	andeq	fp, r0, r6, lsl #14
     c84:	04040000 	streq	r0, [r4], #-0
     c88:	000000bd 	strheq	r0, [r0], -sp
     c8c:	00009b07 	andeq	r9, r0, r7, lsl #22
     c90:	64051800 	strvs	r1, [r5], #-2048	; 0x800
     c94:	00000112 	andeq	r0, r0, r2, lsl r1
     c98:	00028308 	andeq	r8, r2, r8, lsl #6
     c9c:	ae650500 	cdpge	5, 6, cr0, cr5, cr0, {0}
     ca0:	00000001 	andeq	r0, r0, r1
     ca4:	00081208 	andeq	r1, r8, r8, lsl #4
     ca8:	b7660500 	strblt	r0, [r6, -r0, lsl #10]!
     cac:	04000000 	streq	r0, [r0], #-0
     cb0:	00015d08 	andeq	r5, r1, r8, lsl #26
     cb4:	b7680500 	strblt	r0, [r8, -r0, lsl #10]!
     cb8:	08000000 	stmdaeq	r0, {}	; <UNPREDICTABLE>
     cbc:	0001d608 	andeq	sp, r1, r8, lsl #12
     cc0:	736a0500 	cmnvc	sl, #0, 10
     cc4:	0c000000 	stceq	0, cr0, [r0], {-0}
     cc8:	000f6c08 	andeq	r6, pc, r8, lsl #24
     ccc:	736b0500 	cmnvc	fp, #0, 10
     cd0:	10000000 	andne	r0, r0, r0
     cd4:	00001f08 	andeq	r1, r0, r8, lsl #30
     cd8:	906c0500 	rsbls	r0, ip, r0, lsl #10
     cdc:	14000000 	strne	r0, [r0], #-0
     ce0:	05e70700 	strbeq	r0, [r7, #1792]!	; 0x700
     ce4:	05080000 	streq	r0, [r8, #-0]
     ce8:	00013743 	andeq	r3, r1, r3, asr #14
     cec:	14610800 	strbtne	r0, [r1], #-2048	; 0x800
     cf0:	45050000 	strmi	r0, [r5, #-0]
     cf4:	00000198 	muleq	r0, r8, r1
     cf8:	02f00800 	rscseq	r0, r0, #0, 16
     cfc:	47050000 	strmi	r0, [r5, -r0]
     d00:	0000019e 	muleq	r0, lr, r1
     d04:	e3070004 	movw	r0, #28676	; 0x7004
     d08:	1c000001 	stcne	0, cr0, [r0], {1}
     d0c:	01988005 	orrseq	r8, r8, r5
     d10:	c0080000 	andgt	r0, r8, r0
     d14:	05000003 	streq	r0, [r0, #-3]
     d18:	0001bf82 	andeq	fp, r1, r2, lsl #31
     d1c:	ad080000 	stcge	0, cr0, [r8, #-0]
     d20:	05000004 	streq	r0, [r0, #-4]
     d24:	0001bf84 	andeq	fp, r1, r4, lsl #31
     d28:	d2080400 	andle	r0, r8, #0, 8
     d2c:	05000001 	streq	r0, [r0, #-1]
     d30:	0001bf86 	andeq	fp, r1, r6, lsl #31
     d34:	0f080800 	svceq	0x00080800
     d38:	05000001 	streq	r0, [r0, #-1]
     d3c:	00007388 	andeq	r7, r0, r8, lsl #7
     d40:	b3080c00 	movwlt	r0, #35840	; 0x8c00
     d44:	05000003 	streq	r0, [r0, #-3]
     d48:	0000738a 	andeq	r7, r0, sl, lsl #7
     d4c:	ee081000 	cdp	0, 0, cr1, cr8, cr0, {0}
     d50:	05000003 	streq	r0, [r0, #-3]
     d54:	0001c494 	muleq	r1, r4, r4
     d58:	12081400 	andne	r1, r8, #0, 8
     d5c:	05000008 	streq	r0, [r0, #-8]
     d60:	0001c496 	muleq	r1, r6, r4
     d64:	04001800 	streq	r1, [r0], #-2048	; 0x800
     d68:	00013704 	andeq	r3, r1, r4, lsl #14
     d6c:	009b0900 	addseq	r0, fp, r0, lsl #18
     d70:	be020000 	cdplt	0, 0, cr0, cr2, cr0, {0}
     d74:	05000002 	streq	r0, [r0, #-2]
     d78:	0001125b 	andeq	r1, r1, fp, asr r2
     d7c:	a3040400 	movwge	r0, #17408	; 0x4400
     d80:	02000001 	andeq	r0, r0, #1
     d84:	0000042f 	andeq	r0, r0, pc, lsr #8
     d88:	00bd7905 	adcseq	r7, sp, r5, lsl #18
     d8c:	73090000 	movwvc	r0, #36864	; 0x9000
     d90:	04000000 	streq	r0, [r0], #-0
     d94:	0001b404 	andeq	fp, r1, r4, lsl #8
     d98:	08d50200 	ldmeq	r5, {r9}^
     d9c:	a0050000 	andge	r0, r5, r0
     da0:	00000137 	andeq	r0, r0, r7, lsr r1
     da4:	0008510a 	andeq	r5, r8, sl, lsl #2
     da8:	94320100 	ldrtls	r0, [r2], #-256	; 0x100
     dac:	240000a6 	strcs	r0, [r0], #-166	; 0xa6
     db0:	01000000 	mrseq	r0, (UNDEF: 0)
     db4:	082c0b9c 	stmdaeq	ip!, {r2, r3, r4, r7, r8, r9, fp}
     db8:	40010000 	andmi	r0, r1, r0
     dbc:	0000a6b8 			; <UNDEFINED> instruction: 0x0000a6b8
     dc0:	000001b8 			; <UNDEFINED> instruction: 0x000001b8
     dc4:	02349c01 	eorseq	r9, r4, #256	; 0x100
     dc8:	ec0c0000 	stc	0, cr0, [ip], {-0}
     dcc:	01000007 	tsteq	r0, r7
     dd0:	0001c441 	andeq	ip, r1, r1, asr #8
     dd4:	64910200 	ldrvs	r0, [r1], #512	; 0x200
     dd8:	0014610d 	andseq	r6, r4, sp, lsl #2
     ddc:	34450100 	strbcc	r0, [r5], #-256	; 0x100
     de0:	02000002 	andeq	r0, r0, #2
     de4:	400d6c91 	mulmi	sp, r1, ip
     de8:	01000008 	tsteq	r0, r8
     dec:	0001c448 	andeq	ip, r1, r8, asr #8
     df0:	74910200 	ldrvc	r0, [r1], #512	; 0x200
     df4:	00015d0d 	andeq	r5, r1, sp, lsl #26
     df8:	c44b0100 	strbgt	r0, [fp], #-256	; 0x100
     dfc:	02000001 	andeq	r0, r0, #1
     e00:	04007091 	streq	r7, [r0], #-145	; 0x91
     e04:	0001ca04 	andeq	ip, r1, r4, lsl #20
     e08:	07e10b00 	strbeq	r0, [r1, r0, lsl #22]!
     e0c:	90010000 	andls	r0, r1, r0
     e10:	0000a870 	andeq	sl, r0, r0, ror r8
     e14:	000000dc 	ldrdeq	r0, [r0], -ip
     e18:	026c9c01 	rsbeq	r9, ip, #256	; 0x100
     e1c:	ec0c0000 	stc	0, cr0, [ip], {-0}
     e20:	01000007 	tsteq	r0, r7
     e24:	0001c491 	muleq	r1, r1, r4
     e28:	6c910200 	lfmvs	f0, 4, [r1], {0}
     e2c:	0014610d 	andseq	r6, r4, sp, lsl #2
     e30:	34940100 	ldrcc	r0, [r4], #256	; 0x100
     e34:	02000002 	andeq	r0, r0, #2
     e38:	0e007491 	mcreq	4, 0, r7, cr0, cr1, {4}
     e3c:	000008a3 	andeq	r0, r0, r3, lsr #17
     e40:	01c4ba01 	biceq	fp, r4, r1, lsl #20
     e44:	a94c0000 	stmdbge	ip, {}^	; <UNPREDICTABLE>
     e48:	01540000 	cmpeq	r4, r0
     e4c:	9c010000 	stcls	0, cr0, [r1], {-0}
     e50:	00000300 	andeq	r0, r0, r0, lsl #6
     e54:	0014610c 	andseq	r6, r4, ip, lsl #2
     e58:	34bb0100 	ldrtcc	r0, [fp], #256	; 0x100
     e5c:	02000002 	andeq	r0, r0, #2
     e60:	ee0d5491 	mcr	4, 0, r5, cr13, cr1, {4}
     e64:	01000003 	tsteq	r0, r3
     e68:	0001c4bd 			; <UNDEFINED> instruction: 0x0001c4bd
     e6c:	6c910200 	lfmvs	f0, 4, [r1], {0}
     e70:	00080d0d 	andeq	r0, r8, sp, lsl #26
     e74:	c4be0100 	ldrtgt	r0, [lr], #256	; 0x100
     e78:	02000001 	andeq	r0, r0, #1
     e7c:	7c0f7491 	cfstrsvc	mvf7, [pc], {145}	; 0x91
     e80:	100000a9 	andne	r0, r0, r9, lsr #1
     e84:	0d000001 	stceq	0, cr0, [r0, #-4]
     e88:	00000805 	andeq	r0, r0, r5, lsl #16
     e8c:	01c4c201 	biceq	ip, r4, r1, lsl #4
     e90:	91020000 	mrsls	r0, (UNDEF: 2)
     e94:	084b0d60 	stmdaeq	fp, {r5, r6, r8, sl, fp}^
     e98:	c3010000 	movwgt	r0, #4096	; 0x1000
     e9c:	000001c4 	andeq	r0, r0, r4, asr #3
     ea0:	0d709102 	ldfeqp	f1, [r0, #-8]!
     ea4:	000008cf 	andeq	r0, r0, pc, asr #17
     ea8:	01c4c401 	biceq	ip, r4, r1, lsl #8
     eac:	91020000 	mrsls	r0, (UNDEF: 2)
     eb0:	0f6c0d5c 	svceq	0x006c0d5c
     eb4:	c5010000 	strgt	r0, [r1, #-0]
     eb8:	00000073 	andeq	r0, r0, r3, ror r0
     ebc:	0d689102 	stfeqp	f1, [r8, #-8]!
     ec0:	000007f5 	strdeq	r0, [r0], -r5
     ec4:	0085c601 	addeq	ip, r5, r1, lsl #12
     ec8:	91020000 	mrsls	r0, (UNDEF: 2)
     ecc:	10000067 	andne	r0, r0, r7, rrx
     ed0:	00000892 	muleq	r0, r2, r8
     ed4:	a0013601 	andge	r3, r1, r1, lsl #12
     ed8:	a40000aa 	strge	r0, [r0], #-170	; 0xaa
     edc:	01000001 	tsteq	r0, r1
     ee0:	00038a9c 	muleq	r3, ip, sl
     ee4:	14611100 	strbtne	r1, [r1], #-256	; 0x100
     ee8:	37010000 	strcc	r0, [r1, -r0]
     eec:	00023401 	andeq	r3, r2, r1, lsl #8
     ef0:	5c910200 	lfmpl	f0, 4, [r1], {0}
     ef4:	00084b12 	andeq	r4, r8, r2, lsl fp
     ef8:	01390100 	teqeq	r9, r0, lsl #2
     efc:	000001c4 	andeq	r0, r0, r4, asr #3
     f00:	12749102 	rsbsne	r9, r4, #-2147483648	; 0x80000000
     f04:	0000081a 	andeq	r0, r0, sl, lsl r8
     f08:	c4013c01 	strgt	r3, [r1], #-3073	; 0xc01
     f0c:	02000001 	andeq	r0, r0, #1
     f10:	f0126891 			; <UNDEFINED> instruction: 0xf0126891
     f14:	01000002 	tsteq	r0, r2
     f18:	009b0143 	addseq	r0, fp, r3, asr #2
     f1c:	91020000 	mrsls	r0, (UNDEF: 2)
     f20:	0f6c1260 	svceq	0x006c1260
     f24:	44010000 	strmi	r0, [r1], #-0
     f28:	00007301 	andeq	r7, r0, r1, lsl #6
     f2c:	70910200 	addsvc	r0, r1, r0, lsl #4
     f30:	0007fc12 	andeq	pc, r7, r2, lsl ip	; <UNPREDICTABLE>
     f34:	01470100 	mrseq	r0, (UNDEF: 87)
     f38:	00000073 	andeq	r0, r0, r3, ror r0
     f3c:	0f6c9102 	svceq	0x006c9102
     f40:	0000ab88 	andeq	sl, r0, r8, lsl #23
     f44:	000000a8 	andeq	r0, r0, r8, lsr #1
     f48:	00081212 	andeq	r1, r8, r2, lsl r2
     f4c:	01770100 	cmneq	r7, r0, lsl #2
     f50:	000001c4 	andeq	r0, r0, r4, asr #3
     f54:	00649102 	rsbeq	r9, r4, r2, lsl #2
     f58:	08ba0d00 	ldmeq	sl!, {r8, sl, fp}
     f5c:	2b010000 	blcs	40f64 <vectors_end+0x328e4>
     f60:	00000085 	andeq	r0, r0, r5, lsl #1
     f64:	93630305 	cmnls	r3, #335544320	; 0x14000000
     f68:	bd000000 	stclt	0, cr0, [r0, #-0]
     f6c:	04000001 	streq	r0, [r0], #-1
     f70:	00035700 	andeq	r5, r3, r0, lsl #14
     f74:	ba010400 	blt	41f7c <vectors_end+0x338fc>
     f78:	01000006 	tsteq	r0, r6
     f7c:	000008f3 	strdeq	r0, [r0], -r3
     f80:	0000057d 	andeq	r0, r0, sp, ror r5
     f84:	000000f8 	strdeq	r0, [r0], -r8
     f88:	00000000 	andeq	r0, r0, r0
     f8c:	000004a1 	andeq	r0, r0, r1, lsr #9
     f90:	0001ae02 	andeq	sl, r1, r2, lsl #28
     f94:	30230200 	eorcc	r0, r3, r0, lsl #4
     f98:	03000000 	movweq	r0, #0
     f9c:	044e0801 	strbeq	r0, [lr], #-2049	; 0x801
     fa0:	b9020000 	stmdblt	r2, {}	; <UNPREDICTABLE>
     fa4:	02000007 	andeq	r0, r0, #7
     fa8:	0000422a 	andeq	r4, r0, sl, lsr #4
     fac:	06010300 	streq	r0, [r1], -r0, lsl #6
     fb0:	00000450 	andeq	r0, r0, r0, asr r4
     fb4:	dd070203 	sfmle	f0, 4, [r7, #-12]
     fb8:	03000002 	movweq	r0, #2
     fbc:	04a30502 	strteq	r0, [r3], #1282	; 0x502
     fc0:	04030000 	streq	r0, [r3], #-0
     fc4:	0000ca07 	andeq	ip, r0, r7, lsl #20
     fc8:	05040300 	streq	r0, [r4, #-768]	; 0x300
     fcc:	00000154 	andeq	r0, r0, r4, asr r1
     fd0:	c5070803 	strgt	r0, [r7, #-2051]	; 0x803
     fd4:	03000000 	movweq	r0, #0
     fd8:	014f0508 	cmpeq	pc, r8, lsl #10
     fdc:	fb020000 	blx	80fe6 <__SP_usr_+0x21566>
     fe0:	03000005 	movweq	r0, #5
     fe4:	0000372b 	andeq	r3, r0, fp, lsr #14
     fe8:	07040300 	streq	r0, [r4, -r0, lsl #6]
     fec:	0000035e 	andeq	r0, r0, lr, asr r3
     ff0:	00076d02 	andeq	r6, r7, r2, lsl #26
     ff4:	73290400 			; <UNDEFINED> instruction: 0x73290400
     ff8:	02000000 	andeq	r0, r0, #0
     ffc:	000002d2 	ldrdeq	r0, [r0], -r2
    1000:	00256104 	eoreq	r6, r5, r4, lsl #2
    1004:	e1020000 	mrs	r0, (UNDEF: 2)
    1008:	04000008 	streq	r0, [r0], #-8
    100c:	0000a6bd 			; <UNDEFINED> instruction: 0x0000a6bd
    1010:	ac040400 	cfstrsge	mvf0, [r4], {-0}
    1014:	05000000 	streq	r0, [r0, #-0]
    1018:	00047c02 	andeq	r7, r4, r2, lsl #24
    101c:	90200500 	eorls	r0, r0, r0, lsl #10
    1020:	02000000 	andeq	r0, r0, #0
    1024:	0000099a 	muleq	r0, sl, r9
    1028:	00c32e06 	sbceq	r2, r3, r6, lsl #28
    102c:	04040000 	streq	r0, [r4], #-0
    1030:	000000c9 	andeq	r0, r0, r9, asr #1
    1034:	0000d406 	andeq	sp, r0, r6, lsl #8
    1038:	00d40700 	sbcseq	r0, r4, r0, lsl #14
    103c:	04000000 	streq	r0, [r0], #-0
    1040:	0000da04 	andeq	sp, r0, r4, lsl #20
    1044:	00df0800 	sbcseq	r0, pc, r0, lsl #16
    1048:	45090000 	strmi	r0, [r9, #-0]
    104c:	04000009 	streq	r0, [r0], #-9
    1050:	00f83b06 	rscseq	r3, r8, r6, lsl #22
    1054:	640a0000 	strvs	r0, [sl], #-0
    1058:	06000009 	streq	r0, [r0], -r9
    105c:	0000b83c 	andeq	fp, r0, ip, lsr r8
    1060:	02000000 	andeq	r0, r0, #0
    1064:	00000918 	andeq	r0, r0, r8, lsl r9
    1068:	00df4606 	sbcseq	r4, pc, r6, lsl #12
    106c:	23090000 	movwcs	r0, #36864	; 0x9000
    1070:	08000009 	stmdaeq	r0, {r0, r3}
    1074:	01284e06 			; <UNDEFINED> instruction: 0x01284e06
    1078:	500a0000 	andpl	r0, sl, r0
    107c:	06000009 	streq	r0, [r0], -r9
    1080:	0000f850 	andeq	pc, r0, r0, asr r8	; <UNPREDICTABLE>
    1084:	760a0000 	strvc	r0, [sl], -r0
    1088:	06000009 	streq	r0, [r0], -r9
    108c:	00009b52 	andeq	r9, r0, r2, asr fp
    1090:	02000400 	andeq	r0, r0, #0, 8
    1094:	00000957 	andeq	r0, r0, r7, asr r9
    1098:	01035606 	tsteq	r3, r6, lsl #12
    109c:	aa090000 	bge	2410a4 <__SP_usr_+0x1e1624>
    10a0:	08000009 	stmdaeq	r0, {r0, r3}
    10a4:	01585e06 	cmpeq	r8, r6, lsl #28
    10a8:	500a0000 	andpl	r0, sl, r0
    10ac:	06000009 	streq	r0, [r0], -r9
    10b0:	0000f860 	andeq	pc, r0, r0, ror #16
    10b4:	710a0000 	mrsvc	r0, (UNDEF: 10)
    10b8:	06000007 	streq	r0, [r0], -r7
    10bc:	00008562 	andeq	r8, r0, r2, ror #10
    10c0:	02000400 	andeq	r0, r0, #0, 8
    10c4:	0000097f 	andeq	r0, r0, pc, ror r9
    10c8:	01336606 	teqeq	r3, r6, lsl #12
    10cc:	6b0b0000 	blvs	2c10d4 <__SP_usr_+0x261654>
    10d0:	01000009 	tsteq	r0, r9
    10d4:	00ac4428 	adceq	r4, ip, r8, lsr #8
    10d8:	00002400 	andeq	r2, r0, r0, lsl #8
    10dc:	879c0100 	ldrhi	r0, [ip, r0, lsl #2]
    10e0:	0c000001 	stceq	0, cr0, [r0], {1}
    10e4:	00000964 	andeq	r0, r0, r4, ror #18
    10e8:	01872901 	orreq	r2, r7, r1, lsl #18
    10ec:	91020000 	mrsls	r0, (UNDEF: 2)
    10f0:	04040074 	streq	r0, [r4], #-116	; 0x74
    10f4:	0000018d 	andeq	r0, r0, sp, lsl #3
    10f8:	0000f808 	andeq	pc, r0, r8, lsl #16
    10fc:	09c50d00 	stmibeq	r5, {r8, sl, fp}^
    1100:	38010000 	stmdacc	r1, {}	; <UNPREDICTABLE>
    1104:	0000ac68 	andeq	sl, r0, r8, ror #24
    1108:	0000003c 	andeq	r0, r0, ip, lsr r0
    110c:	640c9c01 	strvs	r9, [ip], #-3073	; 0xc01
    1110:	01000009 	tsteq	r0, r9
    1114:	00018739 	andeq	r8, r1, r9, lsr r7
    1118:	6c910200 	lfmvs	f0, 4, [r1], {0}
    111c:	0009370e 	andeq	r3, r9, lr, lsl #14
    1120:	ad450100 	stfgee	f0, [r5, #-0]
    1124:	02000000 	andeq	r0, r0, #0
    1128:	00007791 	muleq	r0, r1, r7
    112c:	00000059 	andeq	r0, r0, r9, asr r0
    1130:	04180004 	ldreq	r0, [r8], #-4
    1134:	01040000 	mrseq	r0, (UNDEF: 4)
    1138:	000006ba 			; <UNDEFINED> instruction: 0x000006ba
    113c:	0009de01 	andeq	sp, r9, r1, lsl #28
    1140:	00057d00 	andeq	r7, r5, r0, lsl #26
    1144:	00059900 	andeq	r9, r5, r0, lsl #18
    1148:	08010200 	stmdaeq	r1, {r9}
    114c:	0000044e 	andeq	r0, r0, lr, asr #8
    1150:	50060102 	andpl	r0, r6, r2, lsl #2
    1154:	02000004 	andeq	r0, r0, #4
    1158:	02dd0702 	sbcseq	r0, sp, #524288	; 0x80000
    115c:	02020000 	andeq	r0, r2, #0
    1160:	0004a305 	andeq	sl, r4, r5, lsl #6
    1164:	07040200 	streq	r0, [r4, -r0, lsl #4]
    1168:	000000ca 	andeq	r0, r0, sl, asr #1
    116c:	54050402 	strpl	r0, [r5], #-1026	; 0x402
    1170:	02000001 	andeq	r0, r0, #1
    1174:	00c50708 	sbceq	r0, r5, r8, lsl #14
    1178:	08020000 	stmdaeq	r2, {}	; <UNPREDICTABLE>
    117c:	00014f05 	andeq	r4, r1, r5, lsl #30
    1180:	07040200 	streq	r0, [r4, -r0, lsl #4]
    1184:	0000035e 	andeq	r0, r0, lr, asr r3
    1188:	00013f00 	andeq	r3, r1, r0, lsl #30
    118c:	33000400 	movwcc	r0, #1024	; 0x400
    1190:	04000004 	streq	r0, [r0], #-4
    1194:	0006ba01 	andeq	fp, r6, r1, lsl #20
    1198:	0a1a0100 	beq	6815a0 <__SP_usr_+0x621b20>
    119c:	057d0000 	ldrbeq	r0, [sp, #-0]!
    11a0:	01100000 	tsteq	r0, r0
    11a4:	00000000 	andeq	r0, r0, r0
    11a8:	05b60000 	ldreq	r0, [r6, #0]!
    11ac:	ae020000 	cdpge	0, 0, cr0, cr2, cr0, {0}
    11b0:	02000001 	andeq	r0, r0, #1
    11b4:	00003023 	andeq	r3, r0, r3, lsr #32
    11b8:	08010300 	stmdaeq	r1, {r8, r9}
    11bc:	0000044e 	andeq	r0, r0, lr, asr #8
    11c0:	0007b902 	andeq	fp, r7, r2, lsl #18
    11c4:	422a0200 	eormi	r0, sl, #0, 4
    11c8:	03000000 	movweq	r0, #0
    11cc:	04500601 	ldrbeq	r0, [r0], #-1537	; 0x601
    11d0:	02030000 	andeq	r0, r3, #0
    11d4:	0002dd07 	andeq	sp, r2, r7, lsl #26
    11d8:	05020300 	streq	r0, [r2, #-768]	; 0x300
    11dc:	000004a3 	andeq	r0, r0, r3, lsr #9
    11e0:	ca070403 	bgt	1c21f4 <__SP_usr_+0x162774>
    11e4:	03000000 	movweq	r0, #0
    11e8:	01540504 	cmpeq	r4, r4, lsl #10
    11ec:	08030000 	stmdaeq	r3, {}	; <UNPREDICTABLE>
    11f0:	0000c507 	andeq	ip, r0, r7, lsl #10
    11f4:	05080300 	streq	r0, [r8, #-768]	; 0x300
    11f8:	0000014f 	andeq	r0, r0, pc, asr #2
    11fc:	5e070403 	cdppl	4, 0, cr0, cr7, cr3, {0}
    1200:	02000003 	andeq	r0, r0, #3
    1204:	000005de 	ldrdeq	r0, [r0], -lr
    1208:	00255103 	eoreq	r5, r5, r3, lsl #2
    120c:	d2020000 	andle	r0, r2, #0
    1210:	03000002 	movweq	r0, #2
    1214:	00002561 	andeq	r2, r0, r1, ror #10
    1218:	04030200 	streq	r0, [r3], #-512	; 0x200
    121c:	b5030000 	strlt	r0, [r3, #-0]
    1220:	00000037 	andeq	r0, r0, r7, lsr r0
    1224:	000a4204 	andeq	r4, sl, r4, lsl #4
    1228:	904a0100 	subls	r0, sl, r0, lsl #2
    122c:	a4000000 	strge	r0, [r0], #-0
    1230:	500000ac 	andpl	r0, r0, ip, lsr #1
    1234:	01000000 	mrseq	r0, (UNDEF: 0)
    1238:	0000d19c 	muleq	r0, ip, r1
    123c:	04900500 	ldreq	r0, [r0], #1280	; 0x500
    1240:	4d010000 	stcmi	0, cr0, [r1, #-0]
    1244:	00000090 	muleq	r0, r0, r0
    1248:	05769102 	ldrbeq	r9, [r6, #-258]!	; 0x102
    124c:	000007bf 			; <UNDEFINED> instruction: 0x000007bf
    1250:	00854e01 	addeq	r4, r5, r1, lsl #28
    1254:	91020000 	mrsls	r0, (UNDEF: 2)
    1258:	6a060077 	bvs	18143c <__SP_usr_+0x1219bc>
    125c:	0100000a 	tsteq	r0, sl
    1260:	00acf466 	adceq	pc, ip, r6, ror #8
    1264:	00007800 	andeq	r7, r0, r0, lsl #16
    1268:	039c0100 	orrseq	r0, ip, #0, 2
    126c:	07000001 	streq	r0, [r0, -r1]
    1270:	00000413 	andeq	r0, r0, r3, lsl r4
    1274:	01036701 	tsteq	r3, r1, lsl #14
    1278:	91020000 	mrsls	r0, (UNDEF: 2)
    127c:	07bf056f 	ldreq	r0, [pc, pc, ror #10]!
    1280:	6c010000 	stcvs	0, cr0, [r1], {-0}
    1284:	00000085 	andeq	r0, r0, r5, lsl #1
    1288:	00779102 	rsbseq	r9, r7, r2, lsl #2
    128c:	00009008 	andeq	r9, r0, r8
    1290:	0a020600 	beq	82a98 <__SP_usr_+0x23018>
    1294:	ae010000 	cdpge	0, 0, cr0, cr1, cr0, {0}
    1298:	0000ad6c 	andeq	sl, r0, ip, ror #26
    129c:	00000020 	andeq	r0, r0, r0, lsr #32
    12a0:	012c9c01 			; <UNDEFINED> instruction: 0x012c9c01
    12a4:	7f070000 	svcvc	0x00070000
    12a8:	0100000a 	tsteq	r0, sl
    12ac:	00012caf 	andeq	r2, r1, pc, lsr #25
    12b0:	77910200 	ldrvc	r0, [r1, r0, lsl #4]
    12b4:	00850800 	addeq	r0, r5, r0, lsl #16
    12b8:	07050000 	streq	r0, [r5, -r0]
    12bc:	01000004 	tsteq	r0, r4
    12c0:	00009037 	andeq	r9, r0, r7, lsr r0
    12c4:	64030500 	strvs	r0, [r3], #-1280	; 0x500
    12c8:	00000093 	muleq	r0, r3, r0
    12cc:	000000ab 	andeq	r0, r0, fp, lsr #1
    12d0:	04ba0004 	ldrteq	r0, [sl], #4
    12d4:	01040000 	mrseq	r0, (UNDEF: 4)
    12d8:	000006ba 			; <UNDEFINED> instruction: 0x000006ba
    12dc:	000a8d01 	andeq	r8, sl, r1, lsl #26
    12e0:	00057d00 	andeq	r7, r5, r0, lsl #26
    12e4:	00013000 	andeq	r3, r1, r0
    12e8:	00000000 	andeq	r0, r0, r0
    12ec:	00069100 	andeq	r9, r6, r0, lsl #2
    12f0:	08010200 	stmdaeq	r1, {r9}
    12f4:	0000044e 	andeq	r0, r0, lr, asr #8
    12f8:	0007b903 	andeq	fp, r7, r3, lsl #18
    12fc:	372a0200 	strcc	r0, [sl, -r0, lsl #4]!
    1300:	02000000 	andeq	r0, r0, #0
    1304:	04500601 	ldrbeq	r0, [r0], #-1537	; 0x601
    1308:	02020000 	andeq	r0, r2, #0
    130c:	0002dd07 	andeq	sp, r2, r7, lsl #26
    1310:	05020200 	streq	r0, [r2, #-512]	; 0x200
    1314:	000004a3 	andeq	r0, r0, r3, lsr #9
    1318:	ca070402 	bgt	1c2328 <__SP_usr_+0x1628a8>
    131c:	02000000 	andeq	r0, r0, #0
    1320:	01540504 	cmpeq	r4, r4, lsl #10
    1324:	08020000 	stmdaeq	r2, {}	; <UNPREDICTABLE>
    1328:	0000c507 	andeq	ip, r0, r7, lsl #10
    132c:	05080200 	streq	r0, [r8, #-512]	; 0x200
    1330:	0000014f 	andeq	r0, r0, pc, asr #2
    1334:	5e070402 	cdppl	4, 0, cr0, cr7, cr2, {0}
    1338:	03000003 	movweq	r0, #3
    133c:	00000403 	andeq	r0, r0, r3, lsl #8
    1340:	002cb503 	eoreq	fp, ip, r3, lsl #10
    1344:	ae030000 	cdpge	0, 0, cr0, cr3, cr0, {0}
    1348:	0400000a 	streq	r0, [r0], #-10
    134c:	00006f38 	andeq	r6, r0, r8, lsr pc
    1350:	0a850400 	beq	fe142358 <__SP_usr_+0xfe0e28d8>
    1354:	2b010000 	blcs	4135c <vectors_end+0x32cdc>
    1358:	0000c5cc 	andeq	ip, r0, ip, asr #11
    135c:	0000003c 	andeq	r0, r0, ip, lsr r0
    1360:	00a99c01 	adceq	r9, r9, r1, lsl #24
    1364:	13050000 	movwne	r0, #20480	; 0x5000
    1368:	01000004 	tsteq	r0, r4
    136c:	0000a92c 	andeq	sl, r0, ip, lsr #18
    1370:	77910200 	ldrvc	r0, [r1, r0, lsl #4]
    1374:	007a0600 	rsbseq	r0, sl, r0, lsl #12
    1378:	8d000000 	stchi	0, cr0, [r0, #-0]
    137c:	04000004 	streq	r0, [r0], #-4
    1380:	00051600 	andeq	r1, r5, r0, lsl #12
    1384:	ba010400 	blt	4238c <vectors_end+0x33d0c>
    1388:	01000006 	tsteq	r0, r6
    138c:	00000afb 	strdeq	r0, [r0], -fp
    1390:	0000057d 	andeq	r0, r0, sp, ror r5
    1394:	00000140 	andeq	r0, r0, r0, asr #2
    1398:	00000000 	andeq	r0, r0, r0
    139c:	0000074b 	andeq	r0, r0, fp, asr #14
    13a0:	0001ae02 	andeq	sl, r1, r2, lsl #28
    13a4:	30230200 	eorcc	r0, r3, r0, lsl #4
    13a8:	03000000 	movweq	r0, #0
    13ac:	044e0801 	strbeq	r0, [lr], #-2049	; 0x801
    13b0:	b9020000 	stmdblt	r2, {}	; <UNPREDICTABLE>
    13b4:	02000007 	andeq	r0, r0, #7
    13b8:	0000422a 	andeq	r4, r0, sl, lsr #4
    13bc:	06010300 	streq	r0, [r1], -r0, lsl #6
    13c0:	00000450 	andeq	r0, r0, r0, asr r4
    13c4:	dd070203 	sfmle	f0, 4, [r7, #-12]
    13c8:	03000002 	movweq	r0, #2
    13cc:	04a30502 	strteq	r0, [r3], #1282	; 0x502
    13d0:	dc020000 	stcle	0, cr0, [r2], {-0}
    13d4:	02000001 	andeq	r0, r0, #1
    13d8:	0000623f 	andeq	r6, r0, pc, lsr r2
    13dc:	07040300 	streq	r0, [r4, -r0, lsl #6]
    13e0:	000000ca 	andeq	r0, r0, sl, asr #1
    13e4:	0004fd02 	andeq	pc, r4, r2, lsl #26
    13e8:	74460200 	strbvc	r0, [r6], #-512	; 0x200
    13ec:	03000000 	movweq	r0, #0
    13f0:	01540504 	cmpeq	r4, r4, lsl #10
    13f4:	08030000 	stmdaeq	r3, {}	; <UNPREDICTABLE>
    13f8:	0000c507 	andeq	ip, r0, r7, lsl #10
    13fc:	05080300 	streq	r0, [r8, #-768]	; 0x300
    1400:	0000014f 	andeq	r0, r0, pc, asr #2
    1404:	0005fb02 	andeq	pc, r5, r2, lsl #22
    1408:	372b0300 	strcc	r0, [fp, -r0, lsl #6]!
    140c:	02000000 	andeq	r0, r0, #0
    1410:	000000b8 	strheq	r0, [r0], -r8
    1414:	00373a03 	eorseq	r3, r7, r3, lsl #20
    1418:	39020000 	stmdbcc	r2, {}	; <UNPREDICTABLE>
    141c:	03000003 	movweq	r0, #3
    1420:	00002541 	andeq	r2, r0, r1, asr #10
    1424:	045c0400 	ldrbeq	r0, [ip], #-1024	; 0x400
    1428:	04440000 	strbeq	r0, [r4], #-0
    142c:	0000cd4e 	andeq	ip, r0, lr, asr #26
    1430:	00720500 	rsbseq	r0, r2, r0, lsl #10
    1434:	00cd4f04 	sbceq	r4, sp, r4, lsl #30
    1438:	05000000 	streq	r0, [r0, #-0]
    143c:	00727370 	rsbseq	r7, r2, r0, ror r3
    1440:	00575004 	subseq	r5, r7, r4
    1444:	00400000 	subeq	r0, r0, r0
    1448:	00005706 	andeq	r5, r0, r6, lsl #14
    144c:	0000dd00 	andeq	sp, r0, r0, lsl #26
    1450:	00dd0700 	sbcseq	r0, sp, r0, lsl #14
    1454:	000f0000 	andeq	r0, pc, r0
    1458:	5e070403 	cdppl	4, 0, cr0, cr7, cr3, {0}
    145c:	02000003 	andeq	r0, r0, #3
    1460:	00000799 	muleq	r0, r9, r7
    1464:	00575b04 	subseq	r5, r7, r4, lsl #22
    1468:	67020000 	strvs	r0, [r2, -r0]
    146c:	04000003 	streq	r0, [r0], #-3
    1470:	00005760 	andeq	r5, r0, r0, ror #14
    1474:	04990400 	ldreq	r0, [r9], #1024	; 0x400
    1478:	04080000 	streq	r0, [r8], #-0
    147c:	00011f65 	andeq	r1, r1, r5, ror #30
    1480:	10d00800 	sbcsne	r0, r0, r0, lsl #16
    1484:	66040000 	strvs	r0, [r4], -r0
    1488:	0000011f 	andeq	r0, r0, pc, lsl r1
    148c:	036b0800 	cmneq	fp, #0, 16
    1490:	67040000 	strvs	r0, [r4, -r0]
    1494:	000000ef 	andeq	r0, r0, pc, ror #1
    1498:	04090004 	streq	r0, [r9], #-4
    149c:	000000e4 	andeq	r0, r0, r4, ror #1
    14a0:	00066502 	andeq	r6, r6, r2, lsl #10
    14a4:	fa6d0400 	blx	1b424ac <__SP_usr_+0x1ae2a2c>
    14a8:	02000000 	andeq	r0, r0, #0
    14ac:	000003a7 	andeq	r0, r0, r7, lsr #7
    14b0:	013b2605 	teqeq	fp, r5, lsl #12
    14b4:	04090000 	streq	r0, [r9], #-0
    14b8:	000000aa 	andeq	r0, r0, sl, lsr #1
    14bc:	00076d02 	andeq	r6, r7, r2, lsl #26
    14c0:	89290600 	stmdbhi	r9!, {r9, sl}
    14c4:	02000000 	andeq	r0, r0, #0
    14c8:	000005de 	ldrdeq	r0, [r0], -lr
    14cc:	00255106 	eoreq	r5, r5, r6, lsl #2
    14d0:	d2020000 	andle	r0, r2, #0
    14d4:	06000002 	streq	r0, [r0], -r2
    14d8:	00002561 	andeq	r2, r0, r1, ror #10
    14dc:	00160200 	andseq	r0, r6, r0, lsl #4
    14e0:	74060000 	strvc	r0, [r6], #-0
    14e4:	00000025 	andeq	r0, r0, r5, lsr #32
    14e8:	01730409 	cmneq	r3, r9, lsl #8
    14ec:	020a0000 	andeq	r0, sl, #0
    14f0:	00000306 	andeq	r0, r0, r6, lsl #6
    14f4:	00257e07 	eoreq	r7, r5, r7, lsl #28
    14f8:	3c020000 	stccc	0, cr0, [r2], {-0}
    14fc:	07000004 	streq	r0, [r0, -r4]
    1500:	00016d88 	andeq	r6, r1, r8, lsl #27
    1504:	07030b00 	streq	r0, [r3, -r0, lsl #22]
    1508:	0001b791 	muleq	r1, r1, r7
    150c:	06540800 	ldrbeq	r0, [r4], -r0, lsl #16
    1510:	93070000 	movwls	r0, #28672	; 0x7000
    1514:	000001b7 			; <UNDEFINED> instruction: 0x000001b7
    1518:	00870800 	addeq	r0, r7, r0, lsl #16
    151c:	96070000 	strls	r0, [r7], -r0
    1520:	00000094 	muleq	r0, r4, r0
    1524:	02050801 	andeq	r0, r5, #65536	; 0x10000
    1528:	9b070000 	blls	1c1530 <__SP_usr_+0x161ab0>
    152c:	0000014c 	andeq	r0, r0, ip, asr #2
    1530:	940c0002 	strls	r0, [ip], #-2
    1534:	02000000 	andeq	r0, r0, #0
    1538:	00000634 	andeq	r0, r0, r4, lsr r6
    153c:	018a9d07 	orreq	r9, sl, r7, lsl #26
    1540:	a8040000 	stmdage	r4, {}	; <UNPREDICTABLE>
    1544:	18000000 	stmdane	r0, {}	; <UNPREDICTABLE>
    1548:	0233a607 	eorseq	sl, r3, #7340032	; 0x700000
    154c:	1e080000 	cdpne	0, 0, cr0, cr8, cr0, {0}
    1550:	07000006 	streq	r0, [r0, -r6]
    1554:	000130a8 	andeq	r3, r1, r8, lsr #1
    1558:	59080000 	stmdbpl	r8, {}	; <UNPREDICTABLE>
    155c:	07000013 	smladeq	r0, r3, r0, r0
    1560:	000125aa 	andeq	r2, r1, sl, lsr #11
    1564:	30080400 	andcc	r0, r8, r0, lsl #8
    1568:	07000005 	streq	r0, [r0, -r5]
    156c:	000233ac 	andeq	r3, r2, ip, lsr #7
    1570:	ef080c00 	svc	0x00080c00
    1574:	07000000 	streq	r0, [r0, -r0]
    1578:	000238af 	andeq	r3, r2, pc, lsr #17
    157c:	69051000 	stmdbvs	r5, {ip}
    1580:	b2070064 	andlt	r0, r7, #100	; 0x64
    1584:	00000243 	andeq	r0, r0, r3, asr #4
    1588:	00680814 	rsbeq	r0, r8, r4, lsl r8
    158c:	bd070000 	stclt	0, cr0, [r7, #-0]
    1590:	000001b7 			; <UNDEFINED> instruction: 0x000001b7
    1594:	02700815 	rsbseq	r0, r0, #1376256	; 0x150000
    1598:	bf070000 	svclt	0x00070000
    159c:	00000248 	andeq	r0, r0, r8, asr #4
    15a0:	030f0816 	movweq	r0, #63510	; 0xf816
    15a4:	c1070000 	mrsgt	r0, (UNDEF: 7)
    15a8:	0000024d 	andeq	r0, r0, sp, asr #4
    15ac:	7f0c0017 	svcvc	0x000c0017
    15b0:	0c000001 	stceq	0, cr0, [r0], {1}
    15b4:	0000023d 	andeq	r0, r0, sp, lsr r2
    15b8:	01bc0409 			; <UNDEFINED> instruction: 0x01bc0409
    15bc:	410c0000 	mrsmi	r0, (UNDEF: 12)
    15c0:	0c000001 	stceq	0, cr0, [r0], {1}
    15c4:	0000009f 	muleq	r0, pc, r0	; <UNPREDICTABLE>
    15c8:	0001740c 	andeq	r7, r1, ip, lsl #8
    15cc:	02490200 	subeq	r0, r9, #0, 4
    15d0:	d5070000 	strle	r0, [r7, #-0]
    15d4:	000001c7 	andeq	r0, r0, r7, asr #3
    15d8:	00017f04 	andeq	r7, r1, r4, lsl #30
    15dc:	dd070800 	stcle	8, cr0, [r7, #-0]
    15e0:	0000029a 	muleq	r0, sl, r2
    15e4:	000ded08 	andeq	lr, sp, r8, lsl #26
    15e8:	9fdf0700 	svcls	0x00df0700
    15ec:	00000002 	andeq	r0, r0, r2
    15f0:	00027408 	andeq	r7, r2, r8, lsl #8
    15f4:	9fe50700 	svcls	0x00e50700
    15f8:	04000000 	streq	r0, [r0], #-0
    15fc:	00006d08 	andeq	r6, r0, r8, lsl #26
    1600:	94e70700 	strbtls	r0, [r7], #1792	; 0x700
    1604:	05000000 	streq	r0, [r0, #-0]
    1608:	00001f08 	andeq	r1, r0, r8, lsl #30
    160c:	62e90700 	rscvs	r0, r9, #0, 14
    1610:	06000001 	streq	r0, [r0], -r1
    1614:	03cf0d00 	biceq	r0, pc, #0, 26
    1618:	04090000 	streq	r0, [r9], #-0
    161c:	0000029a 	muleq	r0, sl, r2
    1620:	0004bf02 	andeq	fp, r4, r2, lsl #30
    1624:	5df30700 	ldclpl	7, cr0, [r3]
    1628:	0b000002 	bleq	1638 <unused+0x1634>
    162c:	1bf8071c 	blne	ffe032a4 <__SP_usr_+0xffda3824>
    1630:	08000003 	stmdaeq	r0, {r0, r1}
    1634:	00000779 	andeq	r0, r0, r9, ror r7
    1638:	031bfa07 	tsteq	fp, #28672	; 0x7000	; <UNPREDICTABLE>
    163c:	08000000 	stmdaeq	r0, {}	; <UNPREDICTABLE>
    1640:	000001fb 	strdeq	r0, [r0], -fp
    1644:	031bfb07 	tsteq	fp, #7168	; 0x1c00	; <UNPREDICTABLE>
    1648:	08040000 	stmdaeq	r4, {}	; <UNPREDICTABLE>
    164c:	00000388 	andeq	r0, r0, r8, lsl #7
    1650:	0326fc07 	msreq	CPSR_sx, #1792	; 0x700
    1654:	08080000 	stmdaeq	r8, {}	; <UNPREDICTABLE>
    1658:	00000356 	andeq	r0, r0, r6, asr r3
    165c:	0326fd07 	msreq	CPSR_sx, #448	; 0x1c0
    1660:	080c0000 	stmdaeq	ip, {}	; <UNPREDICTABLE>
    1664:	00000174 	andeq	r0, r0, r4, ror r1
    1668:	0069fe07 	rsbeq	pc, r9, r7, lsl #28
    166c:	08100000 	ldmdaeq	r0, {}	; <UNPREDICTABLE>
    1670:	00000551 	andeq	r0, r0, r1, asr r5
    1674:	0069ff07 	rsbeq	pc, r9, r7, lsl #30
    1678:	0e140000 	cdpeq	0, 1, cr0, cr4, cr0, {0}
    167c:	000002b2 			; <UNDEFINED> instruction: 0x000002b2
    1680:	25010707 	strcs	r0, [r1, #-1799]	; 0x707
    1684:	18000000 	stmdane	r0, {}	; <UNPREDICTABLE>
    1688:	0001880e 	andeq	r8, r1, lr, lsl #16
    168c:	010c0700 	tsteq	ip, r0, lsl #14
    1690:	0000014c 	andeq	r0, r0, ip, asr #2
    1694:	04090019 	streq	r0, [r9], #-25
    1698:	00000321 	andeq	r0, r0, r1, lsr #6
    169c:	0002520c 	andeq	r5, r2, ip, lsl #4
    16a0:	a5040900 	strge	r0, [r4, #-2304]	; 0x900
    16a4:	0f000002 	svceq	0x00000002
    16a8:	000002f7 	strdeq	r0, [r0], -r7
    16ac:	b0011607 	andlt	r1, r1, r7, lsl #12
    16b0:	09000002 	stmdbeq	r0, {r1}
    16b4:	00033e04 	andeq	r3, r3, r4, lsl #28
    16b8:	ba111000 	blt	4456c0 <__SP_usr_+0x3e5c40>
    16bc:	0100000a 	tsteq	r0, sl
    16c0:	00014c49 	andeq	r4, r1, r9, asr #24
    16c4:	00ad8c00 	adceq	r8, sp, r0, lsl #24
    16c8:	00007000 	andeq	r7, r0, r0
    16cc:	679c0100 	ldrvs	r0, [ip, r0, lsl #2]
    16d0:	12000003 	andne	r0, r0, #3
    16d4:	000007bf 			; <UNDEFINED> instruction: 0x000007bf
    16d8:	014c4b01 	cmpeq	ip, r1, lsl #22
    16dc:	91020000 	mrsls	r0, (UNDEF: 2)
    16e0:	2a130077 	bcs	4c18c4 <__SP_usr_+0x461e44>
    16e4:	0100000b 	tsteq	r0, fp
    16e8:	00adfc5b 	adceq	pc, sp, fp, asr ip	; <UNPREDICTABLE>
    16ec:	00005c00 	andeq	r5, r0, r0, lsl #24
    16f0:	149c0100 	ldrne	r0, [ip], #256	; 0x100
    16f4:	00000b65 	andeq	r0, r0, r5, ror #22
    16f8:	ae586801 	cdpge	8, 5, cr6, cr8, cr1, {0}
    16fc:	00480000 	subeq	r0, r8, r0
    1700:	9c010000 	stcls	0, cr0, [r1], {-0}
    1704:	000c2814 	andeq	r2, ip, r4, lsl r8
    1708:	a0750100 	rsbsge	r0, r5, r0, lsl #2
    170c:	700000ae 	andvc	r0, r0, lr, lsr #1
    1710:	01000000 	mrseq	r0, (UNDEF: 0)
    1714:	0ad8149c 	beq	ff60698c <__SP_usr_+0xff5a6f0c>
    1718:	8c010000 	stchi	0, cr0, [r1], {-0}
    171c:	0000af10 	andeq	sl, r0, r0, lsl pc
    1720:	00000048 	andeq	r0, r0, r8, asr #32
    1724:	06149c01 	ldreq	r9, [r4], -r1, lsl #24
    1728:	0100000c 	tsteq	r0, ip
    172c:	00af589a 	umlaleq	r5, pc, sl, r8	; <UNPREDICTABLE>
    1730:	00003400 	andeq	r3, r0, r0, lsl #8
    1734:	149c0100 	ldrne	r0, [ip], #256	; 0x100
    1738:	00000bb5 			; <UNDEFINED> instruction: 0x00000bb5
    173c:	af8ca701 	svcge	0x008ca701
    1740:	00480000 	subeq	r0, r8, r0
    1744:	9c010000 	stcls	0, cr0, [r1], {-0}
    1748:	000b9414 	andeq	r9, fp, r4, lsl r4
    174c:	d4b40100 	ldrtle	r0, [r4], #256	; 0x100
    1750:	700000af 	andvc	r0, r0, pc, lsr #1
    1754:	01000000 	mrseq	r0, (UNDEF: 0)
    1758:	0c5c159c 	cfldr64eq	mvdx1, [ip], {156}	; 0x9c
    175c:	cd010000 	stcgt	0, cr0, [r1, #-0]
    1760:	00000157 	andeq	r0, r0, r7, asr r1
    1764:	0000b044 	andeq	fp, r0, r4, asr #32
    1768:	0000007c 	andeq	r0, r0, ip, ror r0
    176c:	04069c01 	streq	r9, [r6], #-3073	; 0xc01
    1770:	bf120000 	svclt	0x00120000
    1774:	01000007 	tsteq	r0, r7
    1778:	000157d2 	ldrdeq	r5, [r1], -r2
    177c:	77910200 	ldrvc	r0, [r1, r0, lsl #4]
    1780:	0b881600 	bleq	fe206f88 <__SP_usr_+0xfe1a7508>
    1784:	f2010000 	vhadd.s8	d0, d1, d0
    1788:	0000b0c0 	andeq	fp, r0, r0, asr #1
    178c:	0000001c 	andeq	r0, r0, ip, lsl r0
    1790:	042a9c01 	strteq	r9, [sl], #-3073	; 0xc01
    1794:	66170000 	ldrvs	r0, [r7], -r0
    1798:	01006f6f 	tsteq	r0, pc, ror #30
    179c:	000338f2 	strdeq	r3, [r3], -r2
    17a0:	74910200 	ldrvc	r0, [r1], #512	; 0x200
    17a4:	01a51800 			; <UNDEFINED> instruction: 0x01a51800
    17a8:	28070000 	stmdacs	r7, {}	; <UNPREDICTABLE>
    17ac:	00032c01 	andeq	r2, r3, r1, lsl #24
    17b0:	0c4a1900 	mcrreq	9, 0, r1, sl, cr0
    17b4:	3a010000 	bcc	417bc <vectors_end+0x3313c>
    17b8:	00000447 	andeq	r0, r0, r7, asr #8
    17bc:	93680305 	cmnls	r8, #335544320	; 0x14000000
    17c0:	571a0000 	ldrpl	r0, [sl, -r0]
    17c4:	19000000 	stmdbne	r0, {}	; <UNPREDICTABLE>
    17c8:	00000c77 	andeq	r0, r0, r7, ror ip
    17cc:	014c3b01 	cmpeq	ip, r1, lsl #22
    17d0:	03050000 	movweq	r0, #20480	; 0x5000
    17d4:	0000936c 	andeq	r9, r0, ip, ror #6
    17d8:	000b4a19 	andeq	r4, fp, r9, lsl sl
    17dc:	573c0100 	ldrpl	r0, [ip, -r0, lsl #2]!
    17e0:	05000000 	streq	r0, [r0, #-0]
    17e4:	00937003 	addseq	r7, r3, r3
    17e8:	0bec1900 	bleq	ffb07bf0 <__SP_usr_+0xffaa8170>
    17ec:	3d010000 	stccc	0, cr0, [r1, #-0]
    17f0:	00000057 	andeq	r0, r0, r7, asr r0
    17f4:	93740305 	cmnls	r4, #335544320	; 0x14000000
    17f8:	d7190000 	ldrle	r0, [r9, -r0]
    17fc:	0100000b 	tsteq	r0, fp
    1800:	0000573e 	andeq	r5, r0, lr, lsr r7
    1804:	78030500 	stmdavc	r3, {r8, sl}
    1808:	00000093 	muleq	r0, r3, r0
    180c:	000004db 	ldrdeq	r0, [r0], -fp
    1810:	06980004 	ldreq	r0, [r8], r4
    1814:	01040000 	mrseq	r0, (UNDEF: 4)
    1818:	000006ba 			; <UNDEFINED> instruction: 0x000006ba
    181c:	000cd301 	andeq	sp, ip, r1, lsl #6
    1820:	00057d00 	andeq	r7, r5, r0, lsl #26
    1824:	00019800 	andeq	r9, r1, r0, lsl #16
    1828:	00000000 	andeq	r0, r0, r0
    182c:	0008c200 	andeq	ip, r8, r0, lsl #4
    1830:	01ae0200 			; <UNDEFINED> instruction: 0x01ae0200
    1834:	23020000 	movwcs	r0, #8192	; 0x2000
    1838:	00000030 	andeq	r0, r0, r0, lsr r0
    183c:	4e080103 	adfmie	f0, f0, f3
    1840:	02000004 	andeq	r0, r0, #4
    1844:	000007b9 			; <UNDEFINED> instruction: 0x000007b9
    1848:	00422a02 	subeq	r2, r2, r2, lsl #20
    184c:	01030000 	mrseq	r0, (UNDEF: 3)
    1850:	00045006 	andeq	r5, r4, r6
    1854:	07020300 	streq	r0, [r2, -r0, lsl #6]
    1858:	000002dd 	ldrdeq	r0, [r0], -sp
    185c:	a3050203 	movwge	r0, #20995	; 0x5203
    1860:	02000004 	andeq	r0, r0, #4
    1864:	000001dc 	ldrdeq	r0, [r0], -ip
    1868:	00623f02 	rsbeq	r3, r2, r2, lsl #30
    186c:	04030000 	streq	r0, [r3], #-0
    1870:	0000ca07 	andeq	ip, r0, r7, lsl #20
    1874:	04fd0200 	ldrbteq	r0, [sp], #512	; 0x200
    1878:	46020000 	strmi	r0, [r2], -r0
    187c:	00000074 	andeq	r0, r0, r4, ror r0
    1880:	54050403 	strpl	r0, [r5], #-1027	; 0x403
    1884:	03000001 	movweq	r0, #1
    1888:	00c50708 	sbceq	r0, r5, r8, lsl #14
    188c:	08030000 	stmdaeq	r3, {}	; <UNPREDICTABLE>
    1890:	00014f05 	andeq	r4, r1, r5, lsl #30
    1894:	05fb0200 	ldrbeq	r0, [fp, #512]!	; 0x200
    1898:	2b030000 	blcs	c18a0 <__SP_usr_+0x61e20>
    189c:	00000037 	andeq	r0, r0, r7, lsr r0
    18a0:	0000b802 	andeq	fp, r0, r2, lsl #16
    18a4:	373a0300 	ldrcc	r0, [sl, -r0, lsl #6]!
    18a8:	02000000 	andeq	r0, r0, #0
    18ac:	00000339 	andeq	r0, r0, r9, lsr r3
    18b0:	00254103 	eoreq	r4, r5, r3, lsl #2
    18b4:	5c040000 	stcpl	0, cr0, [r4], {-0}
    18b8:	44000004 	strmi	r0, [r0], #-4
    18bc:	00cd4e04 	sbceq	r4, sp, r4, lsl #28
    18c0:	72050000 	andvc	r0, r5, #0
    18c4:	cd4f0400 	cfstrdgt	mvd0, [pc, #-0]	; 18cc <unused+0x18c8>
    18c8:	00000000 	andeq	r0, r0, r0
    18cc:	72737005 	rsbsvc	r7, r3, #5
    18d0:	57500400 	ldrbpl	r0, [r0, -r0, lsl #8]
    18d4:	40000000 	andmi	r0, r0, r0
    18d8:	00570600 	subseq	r0, r7, r0, lsl #12
    18dc:	00dd0000 	sbcseq	r0, sp, r0
    18e0:	dd070000 	stcle	0, cr0, [r7, #-0]
    18e4:	0f000000 	svceq	0x00000000
    18e8:	07040300 	streq	r0, [r4, -r0, lsl #6]
    18ec:	0000035e 	andeq	r0, r0, lr, asr r3
    18f0:	00079902 	andeq	r9, r7, r2, lsl #18
    18f4:	575b0400 	ldrbpl	r0, [fp, -r0, lsl #8]
    18f8:	02000000 	andeq	r0, r0, #0
    18fc:	00000367 	andeq	r0, r0, r7, ror #6
    1900:	00576004 	subseq	r6, r7, r4
    1904:	99040000 	stmdbls	r4, {}	; <UNPREDICTABLE>
    1908:	08000004 	stmdaeq	r0, {r2}
    190c:	011f6504 	tsteq	pc, r4, lsl #10
    1910:	d0080000 	andle	r0, r8, r0
    1914:	04000010 	streq	r0, [r0], #-16
    1918:	00011f66 	andeq	r1, r1, r6, ror #30
    191c:	6b080000 	blvs	201924 <__SP_usr_+0x1a1ea4>
    1920:	04000003 	streq	r0, [r0], #-3
    1924:	0000ef67 	andeq	lr, r0, r7, ror #30
    1928:	09000400 	stmdbeq	r0, {sl}
    192c:	0000e404 	andeq	lr, r0, r4, lsl #8
    1930:	06650200 	strbteq	r0, [r5], -r0, lsl #4
    1934:	6d040000 	stcvs	0, cr0, [r4, #-0]
    1938:	000000fa 	strdeq	r0, [r0], -sl
    193c:	0003a702 	andeq	sl, r3, r2, lsl #14
    1940:	3b260500 	blcc	982d48 <__SP_usr_+0x9232c8>
    1944:	09000001 	stmdbeq	r0, {r0}
    1948:	0000aa04 	andeq	sl, r0, r4, lsl #20
    194c:	076d0200 	strbeq	r0, [sp, -r0, lsl #4]!
    1950:	29060000 	stmdbcs	r6, {}	; <UNPREDICTABLE>
    1954:	00000089 	andeq	r0, r0, r9, lsl #1
    1958:	0005de02 	andeq	sp, r5, r2, lsl #28
    195c:	25510600 	ldrbcs	r0, [r1, #-1536]	; 0x600
    1960:	02000000 	andeq	r0, r0, #0
    1964:	000002d2 	ldrdeq	r0, [r0], -r2
    1968:	00256106 	eoreq	r6, r5, r6, lsl #2
    196c:	16020000 	strne	r0, [r2], -r0
    1970:	06000000 	streq	r0, [r0], -r0
    1974:	00002574 	andeq	r2, r0, r4, ror r5
    1978:	73040900 	movwvc	r0, #18688	; 0x4900
    197c:	0a000001 	beq	1988 <unused+0x1984>
    1980:	00032102 	andeq	r2, r3, r2, lsl #2
    1984:	253a0700 	ldrcs	r0, [sl, #-1792]!	; 0x700
    1988:	02000000 	andeq	r0, r0, #0
    198c:	00000306 	andeq	r0, r0, r6, lsl #6
    1990:	00257e07 	eoreq	r7, r5, r7, lsl #28
    1994:	3c020000 	stccc	0, cr0, [r2], {-0}
    1998:	07000004 	streq	r0, [r0, -r4]
    199c:	00016d88 	andeq	r6, r1, r8, lsl #27
    19a0:	07030b00 	streq	r0, [r3, -r0, lsl #22]
    19a4:	0001c291 	muleq	r1, r1, r2
    19a8:	06540800 	ldrbeq	r0, [r4], -r0, lsl #16
    19ac:	93070000 	movwls	r0, #28672	; 0x7000
    19b0:	000001c2 	andeq	r0, r0, r2, asr #3
    19b4:	00870800 	addeq	r0, r7, r0, lsl #16
    19b8:	96070000 	strls	r0, [r7], -r0
    19bc:	00000094 	muleq	r0, r4, r0
    19c0:	02050801 	andeq	r0, r5, #65536	; 0x10000
    19c4:	9b070000 	blls	1c19cc <__SP_usr_+0x161f4c>
    19c8:	0000014c 	andeq	r0, r0, ip, asr #2
    19cc:	940c0002 	strls	r0, [ip], #-2
    19d0:	02000000 	andeq	r0, r0, #0
    19d4:	00000634 	andeq	r0, r0, r4, lsr r6
    19d8:	01959d07 	orrseq	r9, r5, r7, lsl #26
    19dc:	a8040000 	stmdage	r4, {}	; <UNPREDICTABLE>
    19e0:	18000000 	stmdane	r0, {}	; <UNPREDICTABLE>
    19e4:	023ea607 	eorseq	sl, lr, #7340032	; 0x700000
    19e8:	1e080000 	cdpne	0, 0, cr0, cr8, cr0, {0}
    19ec:	07000006 	streq	r0, [r0, -r6]
    19f0:	000130a8 	andeq	r3, r1, r8, lsr #1
    19f4:	59080000 	stmdbpl	r8, {}	; <UNPREDICTABLE>
    19f8:	07000013 	smladeq	r0, r3, r0, r0
    19fc:	000125aa 	andeq	r2, r1, sl, lsr #11
    1a00:	30080400 	andcc	r0, r8, r0, lsl #8
    1a04:	07000005 	streq	r0, [r0, -r5]
    1a08:	00023eac 	andeq	r3, r2, ip, lsr #29
    1a0c:	ef080c00 	svc	0x00080c00
    1a10:	07000000 	streq	r0, [r0, -r0]
    1a14:	000243af 	andeq	r4, r2, pc, lsr #7
    1a18:	69051000 	stmdbvs	r5, {ip}
    1a1c:	b2070064 	andlt	r0, r7, #100	; 0x64
    1a20:	0000024e 	andeq	r0, r0, lr, asr #4
    1a24:	00680814 	rsbeq	r0, r8, r4, lsl r8
    1a28:	bd070000 	stclt	0, cr0, [r7, #-0]
    1a2c:	000001c2 	andeq	r0, r0, r2, asr #3
    1a30:	02700815 	rsbseq	r0, r0, #1376256	; 0x150000
    1a34:	bf070000 	svclt	0x00070000
    1a38:	00000253 	andeq	r0, r0, r3, asr r2
    1a3c:	030f0816 	movweq	r0, #63510	; 0xf816
    1a40:	c1070000 	mrsgt	r0, (UNDEF: 7)
    1a44:	00000258 	andeq	r0, r0, r8, asr r2
    1a48:	8a0c0017 	bhi	301aac <__SP_usr_+0x2a202c>
    1a4c:	0c000001 	stceq	0, cr0, [r0], {1}
    1a50:	00000248 	andeq	r0, r0, r8, asr #4
    1a54:	01c70409 	biceq	r0, r7, r9, lsl #8
    1a58:	410c0000 	mrsmi	r0, (UNDEF: 12)
    1a5c:	0c000001 	stceq	0, cr0, [r0], {1}
    1a60:	0000009f 	muleq	r0, pc, r0	; <UNPREDICTABLE>
    1a64:	00017f0c 	andeq	r7, r1, ip, lsl #30
    1a68:	02490200 	subeq	r0, r9, #0, 4
    1a6c:	d5070000 	strle	r0, [r7, #-0]
    1a70:	000001d2 	ldrdeq	r0, [r0], -r2
    1a74:	00017f04 	andeq	r7, r1, r4, lsl #30
    1a78:	dd070800 	stcle	8, cr0, [r7, #-0]
    1a7c:	000002a5 	andeq	r0, r0, r5, lsr #5
    1a80:	000ded08 	andeq	lr, sp, r8, lsl #26
    1a84:	aadf0700 	bge	ff7c368c <__SP_usr_+0xff763c0c>
    1a88:	00000002 	andeq	r0, r0, r2
    1a8c:	00027408 	andeq	r7, r2, r8, lsl #8
    1a90:	9fe50700 	svcls	0x00e50700
    1a94:	04000000 	streq	r0, [r0], #-0
    1a98:	00006d08 	andeq	r6, r0, r8, lsl #26
    1a9c:	94e70700 	strbtls	r0, [r7], #1792	; 0x700
    1aa0:	05000000 	streq	r0, [r0, #-0]
    1aa4:	00001f08 	andeq	r1, r0, r8, lsl #30
    1aa8:	62e90700 	rscvs	r0, r9, #0, 14
    1aac:	06000001 	streq	r0, [r0], -r1
    1ab0:	03cf0d00 	biceq	r0, pc, #0, 26
    1ab4:	04090000 	streq	r0, [r9], #-0
    1ab8:	000002a5 	andeq	r0, r0, r5, lsr #5
    1abc:	0004bf02 	andeq	fp, r4, r2, lsl #30
    1ac0:	68f30700 	ldmvs	r3!, {r8, r9, sl}^
    1ac4:	0b000002 	bleq	1ad4 <unused+0x1ad0>
    1ac8:	26f8071c 	usatcs	r0, #24, ip, lsl #14
    1acc:	08000003 	stmdaeq	r0, {r0, r1}
    1ad0:	00000779 	andeq	r0, r0, r9, ror r7
    1ad4:	0326fa07 	msreq	CPSR_sx, #28672	; 0x7000
    1ad8:	08000000 	stmdaeq	r0, {}	; <UNPREDICTABLE>
    1adc:	000001fb 	strdeq	r0, [r0], -fp
    1ae0:	0326fb07 	msreq	CPSR_sx, #7168	; 0x1c00
    1ae4:	08040000 	stmdaeq	r4, {}	; <UNPREDICTABLE>
    1ae8:	00000388 	andeq	r0, r0, r8, lsl #7
    1aec:	0331fc07 	teqeq	r1, #1792	; 0x700	; <UNPREDICTABLE>
    1af0:	08080000 	stmdaeq	r8, {}	; <UNPREDICTABLE>
    1af4:	00000356 	andeq	r0, r0, r6, asr r3
    1af8:	0331fd07 	teqeq	r1, #448	; 0x1c0	; <UNPREDICTABLE>
    1afc:	080c0000 	stmdaeq	ip, {}	; <UNPREDICTABLE>
    1b00:	00000174 	andeq	r0, r0, r4, ror r1
    1b04:	0069fe07 	rsbeq	pc, r9, r7, lsl #28
    1b08:	08100000 	ldmdaeq	r0, {}	; <UNPREDICTABLE>
    1b0c:	00000551 	andeq	r0, r0, r1, asr r5
    1b10:	0069ff07 	rsbeq	pc, r9, r7, lsl #30
    1b14:	0e140000 	cdpeq	0, 1, cr0, cr4, cr0, {0}
    1b18:	000002b2 			; <UNDEFINED> instruction: 0x000002b2
    1b1c:	25010707 	strcs	r0, [r1, #-1799]	; 0x707
    1b20:	18000000 	stmdane	r0, {}	; <UNPREDICTABLE>
    1b24:	0001880e 	andeq	r8, r1, lr, lsl #16
    1b28:	010c0700 	tsteq	ip, r0, lsl #14
    1b2c:	0000014c 	andeq	r0, r0, ip, asr #2
    1b30:	04090019 	streq	r0, [r9], #-25
    1b34:	0000032c 	andeq	r0, r0, ip, lsr #6
    1b38:	00025d0c 	andeq	r5, r2, ip, lsl #26
    1b3c:	b0040900 	andlt	r0, r4, r0, lsl #18
    1b40:	0f000002 	svceq	0x00000002
    1b44:	000002f7 	strdeq	r0, [r0], -r7
    1b48:	bb011607 	bllt	4736c <vectors_end+0x38cec>
    1b4c:	02000002 	andeq	r0, r0, #2
    1b50:	0000047c 	andeq	r0, r0, ip, ror r4
    1b54:	01572008 	cmpeq	r7, r8
    1b58:	04090000 	streq	r0, [r9], #-0
    1b5c:	00000162 	andeq	r0, r0, r2, ror #2
    1b60:	01410409 	cmpeq	r1, r9, lsl #8
    1b64:	b9100000 	ldmdblt	r0, {}	; <UNPREDICTABLE>
    1b68:	0100000c 	tsteq	r0, ip
    1b6c:	00034334 	andeq	r4, r3, r4, lsr r3
    1b70:	00b0dc00 	adcseq	sp, r0, r0, lsl #24
    1b74:	0000a800 	andeq	sl, r0, r0, lsl #16
    1b78:	909c0100 	addsls	r0, ip, r0, lsl #2
    1b7c:	11000003 	tstne	r0, r3
    1b80:	00000771 	andeq	r0, r0, r1, ror r7
    1b84:	024e3501 	subeq	r3, lr, #4194304	; 0x400000
    1b88:	91020000 	mrsls	r0, (UNDEF: 2)
    1b8c:	07bf126f 	ldreq	r1, [pc, pc, ror #4]!
    1b90:	3b010000 	blcc	41b98 <vectors_end+0x33518>
    1b94:	00000343 	andeq	r0, r0, r3, asr #6
    1b98:	00779102 	rsbseq	r9, r7, r2, lsl #2
    1b9c:	000d1210 	andeq	r1, sp, r0, lsl r2
    1ba0:	43650100 	cmnmi	r5, #0, 2
    1ba4:	84000003 	strhi	r0, [r0], #-3
    1ba8:	cc0000b1 	stcgt	0, cr0, [r0], {177}	; 0xb1
    1bac:	01000000 	mrseq	r0, (UNDEF: 0)
    1bb0:	0003b89c 	muleq	r3, ip, r8
    1bb4:	07bf1200 	ldreq	r1, [pc, r0, lsl #4]!
    1bb8:	6a010000 	bvs	41bc0 <vectors_end+0x33540>
    1bbc:	00000343 	andeq	r0, r0, r3, asr #6
    1bc0:	00779102 	rsbseq	r9, r7, r2, lsl #2
    1bc4:	000ca210 	andeq	sl, ip, r0, lsl r2
    1bc8:	43920100 	orrsmi	r0, r2, #0, 2
    1bcc:	50000003 	andpl	r0, r0, r3
    1bd0:	400000b2 	strhmi	r0, [r0], -r2
    1bd4:	01000001 	tsteq	r0, r1
    1bd8:	0003ee9c 	muleq	r3, ip, lr
    1bdc:	07711100 	ldrbeq	r1, [r1, -r0, lsl #2]!
    1be0:	93010000 	movwls	r0, #4096	; 0x1000
    1be4:	0000024e 	andeq	r0, r0, lr, asr #4
    1be8:	126f9102 	rsbne	r9, pc, #-2147483648	; 0x80000000
    1bec:	000007bf 			; <UNDEFINED> instruction: 0x000007bf
    1bf0:	03439701 	movteq	r9, #14081	; 0x3701
    1bf4:	91020000 	mrsls	r0, (UNDEF: 2)
    1bf8:	fd100077 	ldc2	0, cr0, [r0, #-476]	; 0xfffffe24
    1bfc:	0100000c 	tsteq	r0, ip
    1c00:	000343e7 	andeq	r4, r3, r7, ror #7
    1c04:	00b39000 	adcseq	r9, r3, r0
    1c08:	0000f400 	andeq	pc, r0, r0, lsl #8
    1c0c:	169c0100 	ldrne	r0, [ip], r0, lsl #2
    1c10:	12000004 	andne	r0, r0, #4
    1c14:	000007bf 			; <UNDEFINED> instruction: 0x000007bf
    1c18:	0343eb01 	movteq	lr, #15105	; 0x3b01
    1c1c:	91020000 	mrsls	r0, (UNDEF: 2)
    1c20:	8a130077 	bhi	4c1e04 <__SP_usr_+0x462384>
    1c24:	0100000c 	tsteq	r0, ip
    1c28:	03430118 	movteq	r0, #12568	; 0x3118
    1c2c:	b4840000 	strlt	r0, [r4], #0
    1c30:	00900000 	addseq	r0, r0, r0
    1c34:	9c010000 	stcls	0, cr0, [r1], {-0}
    1c38:	0000044f 	andeq	r0, r0, pc, asr #8
    1c3c:	00077114 	andeq	r7, r7, r4, lsl r1
    1c40:	01190100 	tsteq	r9, r0, lsl #2
    1c44:	0000044f 	andeq	r0, r0, pc, asr #8
    1c48:	156c9102 	strbne	r9, [ip, #-258]!	; 0x102
    1c4c:	000007bf 			; <UNDEFINED> instruction: 0x000007bf
    1c50:	43011d01 	movwmi	r1, #7425	; 0x1d01
    1c54:	02000003 	andeq	r0, r0, #3
    1c58:	0c007791 	stceq	7, cr7, [r0], {145}	; 0x91
    1c5c:	00000354 	andeq	r0, r0, r4, asr r3
    1c60:	000d2d13 	andeq	r2, sp, r3, lsl sp
    1c64:	01420100 	mrseq	r0, (UNDEF: 82)
    1c68:	00000343 	andeq	r0, r0, r3, asr #6
    1c6c:	0000b514 	andeq	fp, r0, r4, lsl r5
    1c70:	000000a4 	andeq	r0, r0, r4, lsr #1
    1c74:	049c9c01 	ldreq	r9, [ip], #3073	; 0xc01
    1c78:	71140000 	tstvc	r4, r0
    1c7c:	01000007 	tsteq	r0, r7
    1c80:	024e0143 	subeq	r0, lr, #-1073741808	; 0xc0000010
    1c84:	91020000 	mrsls	r0, (UNDEF: 2)
    1c88:	001f146f 	andseq	r1, pc, pc, ror #8
    1c8c:	44010000 	strmi	r0, [r1], #-0
    1c90:	00049c01 	andeq	r9, r4, r1, lsl #24
    1c94:	68910200 	ldmvs	r1, {r9}
    1c98:	0007bf15 	andeq	fp, r7, r5, lsl pc
    1c9c:	01480100 	mrseq	r0, (UNDEF: 88)
    1ca0:	00000343 	andeq	r0, r0, r3, asr #6
    1ca4:	00779102 	rsbseq	r9, r7, r2, lsl #2
    1ca8:	00034e0c 	andeq	r4, r3, ip, lsl #28
    1cac:	01a51600 			; <UNDEFINED> instruction: 0x01a51600
    1cb0:	28070000 	stmdacs	r7, {}	; <UNPREDICTABLE>
    1cb4:	00033701 	andeq	r3, r3, r1, lsl #14
    1cb8:	03310600 	teqeq	r1, #0, 12
    1cbc:	04bd0000 	ldrteq	r0, [sp], #0
    1cc0:	dd070000 	stcle	0, cr0, [r7, #-0]
    1cc4:	01000000 	mrseq	r0, (UNDEF: 0)
    1cc8:	06071600 	streq	r1, [r7], -r0, lsl #12
    1ccc:	f1070000 			; <UNDEFINED> instruction: 0xf1070000
    1cd0:	0004c901 	andeq	ip, r4, r1, lsl #18
    1cd4:	04ad0c00 	strteq	r0, [sp], #3072	; 0xc00
    1cd8:	14170000 	ldrne	r0, [r7], #-0
    1cdc:	01000003 	tsteq	r0, r3
    1ce0:	0004d92c 	andeq	sp, r4, ip, lsr #18
    1ce4:	00890c00 	addeq	r0, r9, r0, lsl #24
    1ce8:	17000000 	strne	r0, [r0, -r0]
    1cec:	04000005 	streq	r0, [r0], #-5
    1cf0:	0007e200 	andeq	lr, r7, r0, lsl #4
    1cf4:	ba010400 	blt	42cfc <vectors_end+0x3467c>
    1cf8:	01000006 	tsteq	r0, r6
    1cfc:	00000d48 	andeq	r0, r0, r8, asr #26
    1d00:	0000057d 	andeq	r0, r0, sp, ror r5
    1d04:	000001d0 	ldrdeq	r0, [r0], -r0	; <UNPREDICTABLE>
    1d08:	00000000 	andeq	r0, r0, r0
    1d0c:	00000ad1 	ldrdeq	r0, [r0], -r1
    1d10:	0001ae02 	andeq	sl, r1, r2, lsl #28
    1d14:	30230200 	eorcc	r0, r3, r0, lsl #4
    1d18:	03000000 	movweq	r0, #0
    1d1c:	044e0801 	strbeq	r0, [lr], #-2049	; 0x801
    1d20:	b9020000 	stmdblt	r2, {}	; <UNPREDICTABLE>
    1d24:	02000007 	andeq	r0, r0, #7
    1d28:	0000422a 	andeq	r4, r0, sl, lsr #4
    1d2c:	06010300 	streq	r0, [r1], -r0, lsl #6
    1d30:	00000450 	andeq	r0, r0, r0, asr r4
    1d34:	dd070203 	sfmle	f0, 4, [r7, #-12]
    1d38:	03000002 	movweq	r0, #2
    1d3c:	04a30502 	strteq	r0, [r3], #1282	; 0x502
    1d40:	dc020000 	stcle	0, cr0, [r2], {-0}
    1d44:	02000001 	andeq	r0, r0, #1
    1d48:	0000623f 	andeq	r6, r0, pc, lsr r2
    1d4c:	07040300 	streq	r0, [r4, -r0, lsl #6]
    1d50:	000000ca 	andeq	r0, r0, sl, asr #1
    1d54:	0004fd02 	andeq	pc, r4, r2, lsl #26
    1d58:	74460200 	strbvc	r0, [r6], #-512	; 0x200
    1d5c:	03000000 	movweq	r0, #0
    1d60:	01540504 	cmpeq	r4, r4, lsl #10
    1d64:	08030000 	stmdaeq	r3, {}	; <UNPREDICTABLE>
    1d68:	0000c507 	andeq	ip, r0, r7, lsl #10
    1d6c:	05080300 	streq	r0, [r8, #-768]	; 0x300
    1d70:	0000014f 	andeq	r0, r0, pc, asr #2
    1d74:	00004502 	andeq	r4, r0, r2, lsl #10
    1d78:	25230300 	strcs	r0, [r3, #-768]!	; 0x300
    1d7c:	02000000 	andeq	r0, r0, #0
    1d80:	000005fb 	strdeq	r0, [r0], -fp
    1d84:	00372b03 	eorseq	r2, r7, r3, lsl #22
    1d88:	b8020000 	stmdalt	r2, {}	; <UNPREDICTABLE>
    1d8c:	03000000 	movweq	r0, #0
    1d90:	0000373a 	andeq	r3, r0, sl, lsr r7
    1d94:	03390200 	teqeq	r9, #0, 4
    1d98:	41030000 	mrsmi	r0, (UNDEF: 3)
    1d9c:	00000025 	andeq	r0, r0, r5, lsr #32
    1da0:	000e1102 	andeq	r1, lr, r2, lsl #2
    1da4:	25550300 	ldrbcs	r0, [r5, #-768]	; 0x300
    1da8:	04000000 	streq	r0, [r0], #-0
    1dac:	0000045c 	andeq	r0, r0, ip, asr r4
    1db0:	e34e0444 	movt	r0, #58436	; 0xe444
    1db4:	05000000 	streq	r0, [r0, #-0]
    1db8:	4f040072 	svcmi	0x00040072
    1dbc:	000000e3 	andeq	r0, r0, r3, ror #1
    1dc0:	73700500 	cmnvc	r0, #0, 10
    1dc4:	50040072 	andpl	r0, r4, r2, ror r0
    1dc8:	00000057 	andeq	r0, r0, r7, asr r0
    1dcc:	57060040 	strpl	r0, [r6, -r0, asr #32]
    1dd0:	f3000000 	vhadd.u8	d0, d0, d0
    1dd4:	07000000 	streq	r0, [r0, -r0]
    1dd8:	000000f3 	strdeq	r0, [r0], -r3
    1ddc:	0403000f 	streq	r0, [r3], #-15
    1de0:	00035e07 	andeq	r5, r3, r7, lsl #28
    1de4:	07990200 	ldreq	r0, [r9, r0, lsl #4]
    1de8:	5b040000 	blpl	101df0 <__SP_usr_+0xa2370>
    1dec:	00000057 	andeq	r0, r0, r7, asr r0
    1df0:	00036702 	andeq	r6, r3, r2, lsl #14
    1df4:	57600400 	strbpl	r0, [r0, -r0, lsl #8]!
    1df8:	04000000 	streq	r0, [r0], #-0
    1dfc:	00000499 	muleq	r0, r9, r4
    1e00:	35650408 	strbcc	r0, [r5, #-1032]!	; 0x408
    1e04:	08000001 	stmdaeq	r0, {r0}
    1e08:	000010d0 	ldrdeq	r1, [r0], -r0
    1e0c:	01356604 	teqeq	r5, r4, lsl #12
    1e10:	08000000 	stmdaeq	r0, {}	; <UNPREDICTABLE>
    1e14:	0000036b 	andeq	r0, r0, fp, ror #6
    1e18:	01056704 	tsteq	r5, r4, lsl #14
    1e1c:	00040000 	andeq	r0, r4, r0
    1e20:	00fa0409 	rscseq	r0, sl, r9, lsl #8
    1e24:	65020000 	strvs	r0, [r2, #-0]
    1e28:	04000006 	streq	r0, [r0], #-6
    1e2c:	0001106d 	andeq	r1, r1, sp, rrx
    1e30:	03a70200 			; <UNDEFINED> instruction: 0x03a70200
    1e34:	26050000 	strcs	r0, [r5], -r0
    1e38:	00000151 	andeq	r0, r0, r1, asr r1
    1e3c:	00c00409 	sbceq	r0, r0, r9, lsl #8
    1e40:	6d020000 	stcvs	0, cr0, [r2, #-0]
    1e44:	06000007 	streq	r0, [r0], -r7
    1e48:	00009429 	andeq	r9, r0, r9, lsr #8
    1e4c:	05de0200 	ldrbeq	r0, [lr, #512]	; 0x200
    1e50:	51060000 	mrspl	r0, (UNDEF: 6)
    1e54:	00000025 	andeq	r0, r0, r5, lsr #32
    1e58:	0002d202 	andeq	sp, r2, r2, lsl #4
    1e5c:	25610600 	strbcs	r0, [r1, #-1536]!	; 0x600
    1e60:	02000000 	andeq	r0, r0, #0
    1e64:	00000016 	andeq	r0, r0, r6, lsl r0
    1e68:	00257406 	eoreq	r7, r5, r6, lsl #8
    1e6c:	04090000 	streq	r0, [r9], #-0
    1e70:	00000189 	andeq	r0, r0, r9, lsl #3
    1e74:	03cf040a 	biceq	r0, pc, #167772160	; 0xa000000
    1e78:	07080000 	streq	r0, [r8, -r0]
    1e7c:	0001c729 	andeq	ip, r1, r9, lsr #14
    1e80:	06540800 	ldrbeq	r0, [r4], -r0, lsl #16
    1e84:	2b070000 	blcs	1c1e8c <__SP_usr_+0x16240c>
    1e88:	000001c7 	andeq	r0, r0, r7, asr #3
    1e8c:	00870800 	addeq	r0, r7, r0, lsl #16
    1e90:	2e070000 	cdpcs	0, 0, cr0, cr7, cr0, {0}
    1e94:	0000009f 	muleq	r0, pc, r0	; <UNPREDICTABLE>
    1e98:	05360801 	ldreq	r0, [r6, #-2049]!	; 0x801
    1e9c:	33070000 	movwcc	r0, #28672	; 0x7000
    1ea0:	00000094 	muleq	r0, r4, r0
    1ea4:	07c60802 	strbeq	r0, [r6, r2, lsl #16]
    1ea8:	3b070000 	blcc	1c1eb0 <__SP_usr_+0x162430>
    1eac:	000001cc 	andeq	r0, r0, ip, asr #3
    1eb0:	9f0b0004 	svcls	0x000b0004
    1eb4:	09000000 	stmdbeq	r0, {}	; <UNPREDICTABLE>
    1eb8:	00018a04 	andeq	r8, r1, r4, lsl #20
    1ebc:	0dbd0200 	lfmeq	f0, 4, [sp]
    1ec0:	47070000 	strmi	r0, [r7, -r0]
    1ec4:	0000018a 	andeq	r0, r0, sl, lsl #3
    1ec8:	00030602 	andeq	r0, r3, r2, lsl #12
    1ecc:	257e0800 	ldrbcs	r0, [lr, #-2048]!	; 0x800
    1ed0:	02000000 	andeq	r0, r0, #0
    1ed4:	0000043c 	andeq	r0, r0, ip, lsr r4
    1ed8:	01838808 	orreq	r8, r3, r8, lsl #16
    1edc:	030c0000 	movweq	r0, #49152	; 0xc000
    1ee0:	02209108 	eoreq	r9, r0, #8, 2
    1ee4:	54080000 	strpl	r0, [r8], #-0
    1ee8:	08000006 	stmdaeq	r0, {r1, r2}
    1eec:	0001c793 	muleq	r1, r3, r7
    1ef0:	87080000 	strhi	r0, [r8, -r0]
    1ef4:	08000000 	stmdaeq	r0, {}	; <UNPREDICTABLE>
    1ef8:	00009f96 	muleq	r0, r6, pc	; <UNPREDICTABLE>
    1efc:	05080100 	streq	r0, [r8, #-256]	; 0x100
    1f00:	08000002 	stmdaeq	r0, {r1}
    1f04:	0001629b 	muleq	r1, fp, r2
    1f08:	02000200 	andeq	r0, r0, #0, 4
    1f0c:	00000634 	andeq	r0, r0, r4, lsr r6
    1f10:	01f39d08 	mvnseq	r9, r8, lsl #26
    1f14:	a8040000 	stmdage	r4, {}	; <UNPREDICTABLE>
    1f18:	18000000 	stmdane	r0, {}	; <UNPREDICTABLE>
    1f1c:	0297a608 	addseq	sl, r7, #8, 12	; 0x800000
    1f20:	1e080000 	cdpne	0, 0, cr0, cr8, cr0, {0}
    1f24:	08000006 	stmdaeq	r0, {r1, r2}
    1f28:	000146a8 	andeq	r4, r1, r8, lsr #13
    1f2c:	59080000 	stmdbpl	r8, {}	; <UNPREDICTABLE>
    1f30:	08000013 	stmdaeq	r0, {r0, r1, r4}
    1f34:	00013baa 	andeq	r3, r1, sl, lsr #23
    1f38:	30080400 	andcc	r0, r8, r0, lsl #8
    1f3c:	08000005 	stmdaeq	r0, {r0, r2}
    1f40:	000297ac 	andeq	r9, r2, ip, lsr #15
    1f44:	ef080c00 	svc	0x00080c00
    1f48:	08000000 	stmdaeq	r0, {}	; <UNPREDICTABLE>
    1f4c:	00029caf 	andeq	r9, r2, pc, lsr #25
    1f50:	69051000 	stmdbvs	r5, {ip}
    1f54:	b2080064 	andlt	r0, r8, #100	; 0x64
    1f58:	000002a7 	andeq	r0, r0, r7, lsr #5
    1f5c:	00680814 	rsbeq	r0, r8, r4, lsl r8
    1f60:	bd080000 	stclt	0, cr0, [r8, #-0]
    1f64:	000001c7 	andeq	r0, r0, r7, asr #3
    1f68:	02700815 	rsbseq	r0, r0, #1376256	; 0x150000
    1f6c:	bf080000 	svclt	0x00080000
    1f70:	000002ac 	andeq	r0, r0, ip, lsr #5
    1f74:	030f0816 	movweq	r0, #63510	; 0xf816
    1f78:	c1080000 	mrsgt	r0, (UNDEF: 8)
    1f7c:	000002b1 			; <UNDEFINED> instruction: 0x000002b1
    1f80:	e80b0017 	stmda	fp, {r0, r1, r2, r4}
    1f84:	0b000001 	bleq	1f90 <unused+0x1f8c>
    1f88:	000002a1 	andeq	r0, r0, r1, lsr #5
    1f8c:	02200409 	eoreq	r0, r0, #150994944	; 0x9000000
    1f90:	570b0000 	strpl	r0, [fp, -r0]
    1f94:	0b000001 	bleq	1fa0 <unused+0x1f9c>
    1f98:	000000aa 	andeq	r0, r0, sl, lsr #1
    1f9c:	0001dd0b 	andeq	sp, r1, fp, lsl #26
    1fa0:	02490200 	subeq	r0, r9, #0, 4
    1fa4:	d5080000 	strle	r0, [r8, #-0]
    1fa8:	0000022b 	andeq	r0, r0, fp, lsr #4
    1fac:	00017f04 	andeq	r7, r1, r4, lsl #30
    1fb0:	dd080800 	stcle	8, cr0, [r8, #-0]
    1fb4:	000002fe 	strdeq	r0, [r0], -lr
    1fb8:	000ded08 	andeq	lr, sp, r8, lsl #26
    1fbc:	ccdf0800 	ldclgt	8, cr0, [pc], {0}
    1fc0:	00000001 	andeq	r0, r0, r1
    1fc4:	00027408 	andeq	r7, r2, r8, lsl #8
    1fc8:	aae50800 	bge	ff943fd0 <__SP_usr_+0xff8e4550>
    1fcc:	04000000 	streq	r0, [r0], #-0
    1fd0:	00006d08 	andeq	r6, r0, r8, lsl #26
    1fd4:	9fe70800 	svcls	0x00e70800
    1fd8:	05000000 	streq	r0, [r0, #-0]
    1fdc:	00001f08 	andeq	r1, r0, r8, lsl #30
    1fe0:	78e90800 	stmiavc	r9!, {fp}^
    1fe4:	06000001 	streq	r0, [r0], -r1
    1fe8:	04bf0200 	ldrteq	r0, [pc], #512	; 1ff0 <unused+0x1fec>
    1fec:	f3080000 	vhadd.u8	d0, d8, d0
    1ff0:	000002c1 	andeq	r0, r0, r1, asr #5
    1ff4:	f8081c0c 			; <UNDEFINED> instruction: 0xf8081c0c
    1ff8:	00000374 	andeq	r0, r0, r4, ror r3
    1ffc:	00077908 	andeq	r7, r7, r8, lsl #18
    2000:	74fa0800 	ldrbtvc	r0, [sl], #2048	; 0x800
    2004:	00000003 	andeq	r0, r0, r3
    2008:	0001fb08 	andeq	pc, r1, r8, lsl #22
    200c:	74fb0800 	ldrbtvc	r0, [fp], #2048	; 0x800
    2010:	04000003 	streq	r0, [r0], #-3
    2014:	00038808 	andeq	r8, r3, r8, lsl #16
    2018:	7ffc0800 	svcvc	0x00fc0800
    201c:	08000003 	stmdaeq	r0, {r0, r1}
    2020:	00035608 	andeq	r5, r3, r8, lsl #12
    2024:	7ffd0800 	svcvc	0x00fd0800
    2028:	0c000003 	stceq	0, cr0, [r0], {3}
    202c:	00017408 	andeq	r7, r1, r8, lsl #8
    2030:	69fe0800 	ldmibvs	lr!, {fp}^
    2034:	10000000 	andne	r0, r0, r0
    2038:	00055108 	andeq	r5, r5, r8, lsl #2
    203c:	69ff0800 	ldmibvs	pc!, {fp}^	; <UNPREDICTABLE>
    2040:	14000000 	strne	r0, [r0], #-0
    2044:	0002b20d 	andeq	fp, r2, sp, lsl #4
    2048:	01070800 	tsteq	r7, r0, lsl #16
    204c:	00000025 	andeq	r0, r0, r5, lsr #32
    2050:	01880d18 	orreq	r0, r8, r8, lsl sp
    2054:	0c080000 	stceq	0, cr0, [r8], {-0}
    2058:	00016201 	andeq	r6, r1, r1, lsl #4
    205c:	09001900 	stmdbeq	r0, {r8, fp, ip}
    2060:	00037a04 	andeq	r7, r3, r4, lsl #20
    2064:	02b60b00 	adcseq	r0, r6, #0, 22
    2068:	04090000 	streq	r0, [r9], #-0
    206c:	000002fe 	strdeq	r0, [r0], -lr
    2070:	0002f70e 	andeq	pc, r2, lr, lsl #14
    2074:	01160800 	tsteq	r6, r0, lsl #16
    2078:	00000309 	andeq	r0, r0, r9, lsl #6
    207c:	000ddd0f 	andeq	sp, sp, pc, lsl #26
    2080:	b86a0100 	stmdalt	sl!, {r8}^
    2084:	9c0000b5 	stcls	0, cr0, [r0], {181}	; 0xb5
    2088:	01000000 	mrseq	r0, (UNDEF: 0)
    208c:	0003db9c 	muleq	r3, ip, fp
    2090:	05ff1000 	ldrbeq	r1, [pc, #0]!	; 2098 <unused+0x2094>
    2094:	6b010000 	blvs	4209c <vectors_end+0x33a1c>
    2098:	000003db 	ldrdeq	r0, [r0], -fp
    209c:	116f9102 	cmnne	pc, r2, lsl #2
    20a0:	00736572 	rsbseq	r6, r3, r2, ror r5
    20a4:	03e06e01 	mvneq	r6, #1, 28
    20a8:	91020000 	mrsls	r0, (UNDEF: 2)
    20ac:	b6081274 			; <UNDEFINED> instruction: 0xb6081274
    20b0:	00340000 	eorseq	r0, r4, r0
    20b4:	c6130000 	ldrgt	r0, [r3], -r0
    20b8:	01000007 	tsteq	r0, r7
    20bc:	0003e67a 	andeq	lr, r3, sl, ror r6
    20c0:	70910200 	addsvc	r0, r1, r0, lsl #4
    20c4:	940b0000 	strls	r0, [fp], #-0
    20c8:	09000000 	stmdbeq	r0, {}	; <UNPREDICTABLE>
    20cc:	0001d204 	andeq	sp, r1, r4, lsl #4
    20d0:	03e00b00 	mvneq	r0, #0, 22
    20d4:	87140000 	ldrhi	r0, [r4, -r0]
    20d8:	0100000d 	tsteq	r0, sp
    20dc:	00016d94 	muleq	r1, r4, sp
    20e0:	00b65400 	adcseq	r5, r6, r0, lsl #8
    20e4:	0001b800 	andeq	fp, r1, r0, lsl #16
    20e8:	2f9c0100 	svccs	0x009c0100
    20ec:	10000004 	andne	r0, r0, r4
    20f0:	00000df7 	strdeq	r0, [r0], -r7
    20f4:	042f9501 	strteq	r9, [pc], #-1281	; 20fc <unused+0x20f8>
    20f8:	91020000 	mrsls	r0, (UNDEF: 2)
    20fc:	07bf136f 	ldreq	r1, [pc, pc, ror #6]!
    2100:	9b010000 	blls	42108 <vectors_end+0x33a88>
    2104:	0000016d 	andeq	r0, r0, sp, ror #2
    2108:	11779102 	cmnne	r7, r2, lsl #2
    210c:	00736572 	rsbseq	r6, r3, r2, ror r5
    2110:	03e09e01 	mvneq	r9, #1, 28
    2114:	91020000 	mrsls	r0, (UNDEF: 2)
    2118:	b50b0070 	strlt	r0, [fp, #-112]	; 0x70
    211c:	14000000 	strne	r0, [r0], #-0
    2120:	00000da0 	andeq	r0, r0, r0, lsr #27
    2124:	016deb01 	cmneq	sp, r1, lsl #22
    2128:	b80c0000 	stmdalt	ip, {}	; <UNPREDICTABLE>
    212c:	01500000 	cmpeq	r0, r0
    2130:	9c010000 	stcls	0, cr0, [r1], {-0}
    2134:	00000478 	andeq	r0, r0, r8, ror r4
    2138:	000df710 	andeq	pc, sp, r0, lsl r7	; <UNPREDICTABLE>
    213c:	2fec0100 	svccs	0x00ec0100
    2140:	02000004 	andeq	r0, r0, #4
    2144:	bf136f91 	svclt	0x00136f91
    2148:	01000007 	tsteq	r0, r7
    214c:	00016df0 	strdeq	r6, [r1], -r0
    2150:	77910200 	ldrvc	r0, [r1, r0, lsl #4]
    2154:	73657211 	cmnvc	r5, #268435457	; 0x10000001
    2158:	e0f20100 	rscs	r0, r2, r0, lsl #2
    215c:	02000003 	andeq	r0, r0, #3
    2160:	06007091 			; <UNDEFINED> instruction: 0x06007091
    2164:	000003e0 	andeq	r0, r0, r0, ror #7
    2168:	00000488 	andeq	r0, r0, r8, lsl #9
    216c:	0000f307 	andeq	pc, r0, r7, lsl #6
    2170:	15000000 	strne	r0, [r0, #-0]
    2174:	00000dfe 	strdeq	r0, [r0], -lr
    2178:	04935007 	ldreq	r5, [r3], #7
    217c:	780b0000 	stmdavc	fp, {}	; <UNPREDICTABLE>
    2180:	16000004 	strne	r0, [r0], -r4
    2184:	00000dca 	andeq	r0, r0, sl, asr #27
    2188:	01d25201 	bicseq	r5, r2, r1, lsl #4
    218c:	03050000 	movweq	r0, #20480	; 0x5000
    2190:	0000937c 	andeq	r9, r0, ip, ror r3
    2194:	0001a517 	andeq	sl, r1, r7, lsl r5
    2198:	01280800 			; <UNDEFINED> instruction: 0x01280800
    219c:	00000385 	andeq	r0, r0, r5, lsl #7
    21a0:	00008906 	andeq	r8, r0, r6, lsl #18
    21a4:	0004c000 	andeq	ip, r4, r0
    21a8:	17001800 	strne	r1, [r0, -r0, lsl #16]
    21ac:	000003dc 	ldrdeq	r0, [r0], -ip
    21b0:	b501dd08 	strlt	sp, [r1, #-3336]	; 0xd08
    21b4:	06000004 	streq	r0, [r0], -r4
    21b8:	0000037f 	andeq	r0, r0, pc, ror r3
    21bc:	000004dc 	ldrdeq	r0, [r0], -ip
    21c0:	0000f307 	andeq	pc, r0, r7, lsl #6
    21c4:	17000100 	strne	r0, [r0, -r0, lsl #2]
    21c8:	00000607 	andeq	r0, r0, r7, lsl #12
    21cc:	e801f108 	stmda	r1, {r3, r8, ip, sp, lr, pc}
    21d0:	0b000004 	bleq	21e8 <unused+0x21e4>
    21d4:	000004cc 	andeq	r0, r0, ip, asr #9
    21d8:	00031415 	andeq	r1, r3, r5, lsl r4
    21dc:	db330100 	blle	cc25e4 <__SP_usr_+0xc62b64>
    21e0:	16000003 	strne	r0, [r0], -r3
    21e4:	00000399 	muleq	r0, r9, r3
    21e8:	042f3d01 	strteq	r3, [pc], #-3329	; 21f0 <unused+0x21ec>
    21ec:	03050000 	movweq	r0, #20480	; 0x5000
    21f0:	0000903e 	andeq	r9, r0, lr, lsr r0
    21f4:	000d7616 	andeq	r7, sp, r6, lsl r6
    21f8:	2f440100 	svccs	0x00440100
    21fc:	05000004 	streq	r0, [r0, #-4]
    2200:	00903f03 	addseq	r3, r0, r3, lsl #30
    2204:	052c0000 	streq	r0, [ip, #-0]!
    2208:	00040000 	andeq	r0, r4, r0
    220c:	00000931 	andeq	r0, r0, r1, lsr r9
    2210:	06ba0104 	ldrteq	r0, [sl], r4, lsl #2
    2214:	ee010000 	cdp	0, 0, cr0, cr1, cr0, {0}
    2218:	7d00000e 	stcvc	0, cr0, [r0, #-56]	; 0xffffffc8
    221c:	f0000005 			; <UNDEFINED> instruction: 0xf0000005
    2220:	00000001 	andeq	r0, r0, r1
    2224:	a1000000 	mrsge	r0, (UNDEF: 0)
    2228:	0200000c 	andeq	r0, r0, #12
    222c:	000001ae 	andeq	r0, r0, lr, lsr #3
    2230:	00302302 	eorseq	r2, r0, r2, lsl #6
    2234:	01030000 	mrseq	r0, (UNDEF: 3)
    2238:	00044e08 	andeq	r4, r4, r8, lsl #28
    223c:	06010300 	streq	r0, [r1], -r0, lsl #6
    2240:	00000450 	andeq	r0, r0, r0, asr r4
    2244:	dd070203 	sfmle	f0, 4, [r7, #-12]
    2248:	03000002 	movweq	r0, #2
    224c:	04a30502 	strteq	r0, [r3], #1282	; 0x502
    2250:	dc020000 	stcle	0, cr0, [r2], {-0}
    2254:	02000001 	andeq	r0, r0, #1
    2258:	0000573f 	andeq	r5, r0, pc, lsr r7
    225c:	07040300 	streq	r0, [r4, -r0, lsl #6]
    2260:	000000ca 	andeq	r0, r0, sl, asr #1
    2264:	54050403 	strpl	r0, [r5], #-1027	; 0x403
    2268:	03000001 	movweq	r0, #1
    226c:	00c50708 	sbceq	r0, r5, r8, lsl #14
    2270:	08030000 	stmdaeq	r3, {}	; <UNPREDICTABLE>
    2274:	00014f05 	andeq	r4, r1, r5, lsl #30
    2278:	0e410200 	cdpeq	2, 4, cr0, cr1, cr0, {0}
    227c:	4e030000 	cdpmi	0, 0, cr0, cr3, cr0, {0}
    2280:	00000025 	andeq	r0, r0, r5, lsr #32
    2284:	00021f02 	andeq	r1, r2, r2, lsl #30
    2288:	4c280400 	cfstrsmi	mvf0, [r8], #-0
    228c:	03000000 	movweq	r0, #0
    2290:	035e0704 	cmpeq	lr, #4, 14	; 0x100000
    2294:	de020000 	cdple	0, 0, cr0, cr2, cr0, {0}
    2298:	05000005 	streq	r0, [r0, #-5]
    229c:	00002551 	andeq	r2, r0, r1, asr r5
    22a0:	02d20200 	sbcseq	r0, r2, #0, 4
    22a4:	61050000 	mrsvs	r0, (UNDEF: 5)
    22a8:	00000025 	andeq	r0, r0, r5, lsr #32
    22ac:	000f3904 	andeq	r3, pc, r4, lsl #18
    22b0:	97050c00 	strls	r0, [r5, -r0, lsl #24]
    22b4:	000000d7 	ldrdeq	r0, [r0], -r7
    22b8:	000e5c05 	andeq	r5, lr, r5, lsl #24
    22bc:	7e980500 	cdpvc	5, 9, cr0, cr8, cr0, {0}
    22c0:	00000000 	andeq	r0, r0, r0
    22c4:	000f4905 	andeq	r4, pc, r5, lsl #18
    22c8:	7e9a0500 	cdpvc	5, 9, cr0, cr10, cr0, {0}
    22cc:	04000000 	streq	r0, [r0], #-0
    22d0:	000ebb05 	andeq	fp, lr, r5, lsl #22
    22d4:	7e9d0500 	cdpvc	5, 9, cr0, cr13, cr0, {0}
    22d8:	08000000 	stmdaeq	r0, {}	; <UNPREDICTABLE>
    22dc:	0f190200 	svceq	0x00190200
    22e0:	ac050000 	stcge	0, cr0, [r5], {-0}
    22e4:	000000a6 	andeq	r0, r0, r6, lsr #1
    22e8:	00011c02 	andeq	r1, r1, r2, lsl #24
    22ec:	252f0600 	strcs	r0, [pc, #-1536]!	; 1cf4 <unused+0x1cf0>
    22f0:	02000000 	andeq	r0, r0, #0
    22f4:	00000519 	andeq	r0, r0, r9, lsl r5
    22f8:	00f83606 	rscseq	r3, r8, r6, lsl #12
    22fc:	04060000 	streq	r0, [r6], #-0
    2300:	000000fe 	strdeq	r0, [r0], -lr
    2304:	00010907 	andeq	r0, r1, r7, lsl #18
    2308:	01090800 	tsteq	r9, r0, lsl #16
    230c:	06000000 	streq	r0, [r0], -r0
    2310:	00010f04 	andeq	r0, r1, r4, lsl #30
    2314:	009b0400 	addseq	r0, fp, r0, lsl #8
    2318:	06180000 	ldreq	r0, [r8], -r0
    231c:	00016464 	andeq	r6, r1, r4, ror #8
    2320:	02830500 	addeq	r0, r3, #0, 10
    2324:	65060000 	strvs	r0, [r6, #-0]
    2328:	00000200 	andeq	r0, r0, r0, lsl #4
    232c:	08120500 	ldmdaeq	r2, {r8, sl}
    2330:	66060000 	strvs	r0, [r6], -r0
    2334:	00000109 	andeq	r0, r0, r9, lsl #2
    2338:	015d0504 	cmpeq	sp, r4, lsl #10
    233c:	68060000 	stmdavs	r6, {}	; <UNPREDICTABLE>
    2340:	00000109 	andeq	r0, r0, r9, lsl #2
    2344:	01d60508 	bicseq	r0, r6, r8, lsl #10
    2348:	6a060000 	bvs	182350 <__SP_usr_+0x1228d0>
    234c:	0000007e 	andeq	r0, r0, lr, ror r0
    2350:	0f6c050c 	svceq	0x006c050c
    2354:	6b060000 	blvs	18235c <__SP_usr_+0x1228dc>
    2358:	0000007e 	andeq	r0, r0, lr, ror r0
    235c:	001f0510 	andseq	r0, pc, r0, lsl r5	; <UNPREDICTABLE>
    2360:	6c060000 	stcvs	0, cr0, [r6], {-0}
    2364:	000000e2 	andeq	r0, r0, r2, ror #1
    2368:	e7040014 	smlad	r4, r4, r0, r0
    236c:	08000005 	stmdaeq	r0, {r0, r2}
    2370:	01894306 	orreq	r4, r9, r6, lsl #6
    2374:	61050000 	mrsvs	r0, (UNDEF: 5)
    2378:	06000014 			; <UNDEFINED> instruction: 0x06000014
    237c:	0001ea45 	andeq	lr, r1, r5, asr #20
    2380:	f0050000 			; <UNDEFINED> instruction: 0xf0050000
    2384:	06000002 	streq	r0, [r0], -r2
    2388:	0001f047 	andeq	pc, r1, r7, asr #32
    238c:	04000400 	streq	r0, [r0], #-1024	; 0x400
    2390:	000001e3 	andeq	r0, r0, r3, ror #3
    2394:	ea80061c 	b	fe003c0c <__SP_usr_+0xfdfa418c>
    2398:	05000001 	streq	r0, [r0, #-1]
    239c:	000003c0 	andeq	r0, r0, r0, asr #7
    23a0:	02118206 	andseq	r8, r1, #1610612736	; 0x60000000
    23a4:	05000000 	streq	r0, [r0, #-0]
    23a8:	000004ad 	andeq	r0, r0, sp, lsr #9
    23ac:	02118406 	andseq	r8, r1, #100663296	; 0x6000000
    23b0:	05040000 	streq	r0, [r4, #-0]
    23b4:	000001d2 	ldrdeq	r0, [r0], -r2
    23b8:	02118606 	andseq	r8, r1, #6291456	; 0x600000
    23bc:	05080000 	streq	r0, [r8, #-0]
    23c0:	0000010f 	andeq	r0, r0, pc, lsl #2
    23c4:	007e8806 	rsbseq	r8, lr, r6, lsl #16
    23c8:	050c0000 	streq	r0, [ip, #-0]
    23cc:	000003b3 			; <UNDEFINED> instruction: 0x000003b3
    23d0:	007e8a06 	rsbseq	r8, lr, r6, lsl #20
    23d4:	05100000 	ldreq	r0, [r0, #-0]
    23d8:	000003ee 	andeq	r0, r0, lr, ror #7
    23dc:	02169406 	andseq	r9, r6, #100663296	; 0x6000000
    23e0:	05140000 	ldreq	r0, [r4, #-0]
    23e4:	00000812 	andeq	r0, r0, r2, lsl r8
    23e8:	02169606 	andseq	r9, r6, #6291456	; 0x600000
    23ec:	00180000 	andseq	r0, r8, r0
    23f0:	01890406 	orreq	r0, r9, r6, lsl #8
    23f4:	ed090000 	stc	0, cr0, [r9, #-0]
    23f8:	02000000 	andeq	r0, r0, #0
    23fc:	000002be 			; <UNDEFINED> instruction: 0x000002be
    2400:	01645b06 	cmneq	r4, r6, lsl #22
    2404:	04060000 	streq	r0, [r6], #-0
    2408:	000001f5 	strdeq	r0, [r0], -r5
    240c:	00042f02 	andeq	r2, r4, r2, lsl #30
    2410:	0f790600 	svceq	0x00790600
    2414:	09000001 	stmdbeq	r0, {r0}
    2418:	0000007e 	andeq	r0, r0, lr, ror r0
    241c:	02060406 	andeq	r0, r6, #100663296	; 0x6000000
    2420:	d5020000 	strle	r0, [r2, #-0]
    2424:	06000008 	streq	r0, [r0], -r8
    2428:	000189a0 	andeq	r8, r1, r0, lsr #19
    242c:	099a0200 	ldmibeq	sl, {r9}
    2430:	2e070000 	cdpcs	0, 0, cr0, cr7, cr0, {0}
    2434:	00000232 	andeq	r0, r0, r2, lsr r2
    2438:	02380406 	eorseq	r0, r8, #100663296	; 0x6000000
    243c:	43070000 	movwmi	r0, #28672	; 0x7000
    2440:	08000002 	stmdaeq	r0, {r1}
    2444:	00000243 	andeq	r0, r0, r3, asr #4
    2448:	49040600 	stmdbmi	r4, {r9, sl}
    244c:	09000002 	stmdbeq	r0, {r1}
    2450:	0000024e 	andeq	r0, r0, lr, asr #4
    2454:	00094504 	andeq	r4, r9, r4, lsl #10
    2458:	3b070400 	blcc	1c3460 <__SP_usr_+0x1639e0>
    245c:	00000267 	andeq	r0, r0, r7, ror #4
    2460:	00096405 	andeq	r6, r9, r5, lsl #8
    2464:	273c0700 	ldrcs	r0, [ip, -r0, lsl #14]!
    2468:	00000002 	andeq	r0, r0, r2
    246c:	09180200 	ldmdbeq	r8, {r9}
    2470:	46070000 	strmi	r0, [r7], -r0
    2474:	0000024e 	andeq	r0, r0, lr, asr #4
    2478:	000edd04 	andeq	sp, lr, r4, lsl #26
    247c:	35080c00 	strcc	r0, [r8, #-3072]	; 0xc00
    2480:	00000297 	muleq	r0, r7, r2
    2484:	00095005 	andeq	r5, r9, r5
    2488:	f5360800 			; <UNDEFINED> instruction: 0xf5360800
    248c:	00000001 	andeq	r0, r0, r1
    2490:	00096405 	andeq	r6, r9, r5, lsl #8
    2494:	97380800 	ldrls	r0, [r8, -r0, lsl #16]!
    2498:	08000002 	stmdaeq	r0, {r1}
    249c:	67040600 	strvs	r0, [r4, -r0, lsl #12]
    24a0:	02000002 	andeq	r0, r0, #2
    24a4:	00000f28 	andeq	r0, r0, r8, lsr #30
    24a8:	02724308 	rsbseq	r4, r2, #8, 6	; 0x20000000
    24ac:	04060000 	streq	r0, [r6], #-0
    24b0:	0000007e 	andeq	r0, r0, lr, ror r0
    24b4:	000f710a 	andeq	r7, pc, sl, lsl #2
    24b8:	5c410100 	stfple	f0, [r1], {-0}
    24bc:	400000b9 	strhmi	r0, [r0], -r9
    24c0:	01000000 	mrseq	r0, (UNDEF: 0)
    24c4:	0002ee9c 	muleq	r2, ip, lr
    24c8:	07ec0b00 	strbeq	r0, [ip, r0, lsl #22]!
    24cc:	42010000 	andmi	r0, r1, #0
    24d0:	00000216 	andeq	r0, r0, r6, lsl r2
    24d4:	0c6c9102 	stfeqp	f1, [ip], #-8
    24d8:	00000f5b 	andeq	r0, r0, fp, asr pc
    24dc:	02ee4b01 	rsceq	r4, lr, #1024	; 0x400
    24e0:	91020000 	mrsls	r0, (UNDEF: 2)
    24e4:	0f810c74 	svceq	0x00810c74
    24e8:	4e010000 	cdpmi	0, 0, cr0, cr1, cr0, {0}
    24ec:	000002f4 	strdeq	r0, [r0], -r4
    24f0:	00709102 	rsbseq	r9, r0, r2, lsl #2
    24f4:	029d0406 	addseq	r0, sp, #100663296	; 0x6000000
    24f8:	97090000 	strls	r0, [r9, -r0]
    24fc:	0d000002 	stceq	0, cr0, [r0, #-8]
    2500:	00000e6c 	andeq	r0, r0, ip, ror #28
    2504:	009b5701 	addseq	r5, fp, r1, lsl #14
    2508:	b99c0000 	ldmiblt	ip, {}	; <UNPREDICTABLE>
    250c:	00d00000 	sbcseq	r0, r0, r0
    2510:	9c010000 	stcls	0, cr0, [r1], {-0}
    2514:	0000034b 	andeq	r0, r0, fp, asr #6
    2518:	000e450b 	andeq	r4, lr, fp, lsl #10
    251c:	4b580100 	blmi	1602924 <__SP_usr_+0x15a2ea4>
    2520:	02000003 	andeq	r0, r0, #3
    2524:	560b6f91 			; <UNDEFINED> instruction: 0x560b6f91
    2528:	0100000f 	tsteq	r0, pc
    252c:	00035059 	andeq	r5, r3, r9, asr r0
    2530:	68910200 	ldmvs	r1, {r9}
    2534:	0007bf0c 	andeq	fp, r7, ip, lsl #30
    2538:	9b5b0100 	blls	16c2940 <__SP_usr_+0x1662ec0>
    253c:	02000000 	andeq	r0, r0, #0
    2540:	7b0c7791 	blvc	32038c <__SP_usr_+0x2c090c>
    2544:	0100000f 	tsteq	r0, pc
    2548:	0002165e 	andeq	r1, r2, lr, asr r6
    254c:	70910200 	addsvc	r0, r1, r0, lsl #4
    2550:	00730900 	rsbseq	r0, r3, r0, lsl #18
    2554:	04060000 	streq	r0, [r6], #-0
    2558:	000000d7 	ldrdeq	r0, [r0], -r7
    255c:	000e2b0d 	andeq	r2, lr, sp, lsl #22
    2560:	9b830100 	blls	fe0c2968 <__SP_usr_+0xfe062ee8>
    2564:	6c000000 	stcvs	0, cr0, [r0], {-0}
    2568:	040000ba 	streq	r0, [r0], #-186	; 0xba
    256c:	01000001 	tsteq	r0, r1
    2570:	0003ce9c 	muleq	r3, ip, lr
    2574:	0e450b00 	vmlaeq.f64	d16, d5, d0
    2578:	84010000 	strhi	r0, [r1], #-0
    257c:	0000034b 	andeq	r0, r0, fp, asr #6
    2580:	0b679102 	bleq	19e6990 <__SP_usr_+0x1986f10>
    2584:	00000223 	andeq	r0, r0, r3, lsr #4
    2588:	02a88501 	adceq	r8, r8, #4194304	; 0x400000
    258c:	91020000 	mrsls	r0, (UNDEF: 2)
    2590:	07bf0c60 	ldreq	r0, [pc, r0, ror #24]!
    2594:	87010000 	strhi	r0, [r1, -r0]
    2598:	0000009b 	muleq	r0, fp, r0
    259c:	0c779102 	ldfeqp	f1, [r7], #-8
    25a0:	00000f7b 	andeq	r0, r0, fp, ror pc
    25a4:	02168a01 	andseq	r8, r6, #4096	; 0x1000
    25a8:	91020000 	mrsls	r0, (UNDEF: 2)
    25ac:	baf40e6c 	blt	ffd05f64 <__SP_usr_+0xffca64e4>
    25b0:	00600000 	rsbeq	r0, r0, r0
    25b4:	660c0000 	strvs	r0, [ip], -r0
    25b8:	0100000f 	tsteq	r0, pc
    25bc:	00007ea5 	andeq	r7, r0, r5, lsr #29
    25c0:	70910200 	addsvc	r0, r1, r0, lsl #4
    25c4:	0003b30c 	andeq	fp, r3, ip, lsl #6
    25c8:	7ea60100 	fdvvcs	f0, f6, f0
    25cc:	02000000 	andeq	r0, r0, #0
    25d0:	00006891 	muleq	r0, r1, r8
    25d4:	000ea10d 	andeq	sl, lr, sp, lsl #2
    25d8:	9bbc0100 	blls	fef029e0 <__SP_usr_+0xfeea2f60>
    25dc:	70000000 	andvc	r0, r0, r0
    25e0:	d00000bb 	strhle	r0, [r0], -fp
    25e4:	01000001 	tsteq	r0, r1
    25e8:	00044a9c 	muleq	r4, ip, sl
    25ec:	0e450b00 	vmlaeq.f64	d16, d5, d0
    25f0:	bd010000 	stclt	0, cr0, [r1, #-0]
    25f4:	0000034b 	andeq	r0, r0, fp, asr #6
    25f8:	0b679102 	bleq	19e6a08 <__SP_usr_+0x1986f88>
    25fc:	00000e21 	andeq	r0, r0, r1, lsr #28
    2600:	0211be01 	andseq	fp, r1, #1, 28
    2604:	91020000 	mrsls	r0, (UNDEF: 2)
    2608:	01d60b60 	bicseq	r0, r6, r0, ror #22
    260c:	bf010000 	svclt	0x00010000
    2610:	00000211 	andeq	r0, r0, r1, lsl r2
    2614:	0c5c9102 	ldfeqp	f1, [ip], {2}
    2618:	000007bf 			; <UNDEFINED> instruction: 0x000007bf
    261c:	009bc101 	addseq	ip, fp, r1, lsl #2
    2620:	91020000 	mrsls	r0, (UNDEF: 2)
    2624:	0f7b0c77 	svceq	0x007b0c77
    2628:	c4010000 	strgt	r0, [r1], #-0
    262c:	00000216 	andeq	r0, r0, r6, lsl r2
    2630:	0f6c9102 	svceq	0x006c9102
    2634:	00746e63 	rsbseq	r6, r4, r3, ror #28
    2638:	044ac501 	strbeq	ip, [sl], #-1281	; 0x501
    263c:	91020000 	mrsls	r0, (UNDEF: 2)
    2640:	0f6c0c68 	svceq	0x006c0c68
    2644:	c6010000 	strgt	r0, [r1], -r0
    2648:	0000007e 	andeq	r0, r0, lr, ror r0
    264c:	00709102 	rsbseq	r9, r0, r2, lsl #2
    2650:	021c0406 	andseq	r0, ip, #100663296	; 0x6000000
    2654:	87100000 	ldrhi	r0, [r0, -r0]
    2658:	0100000e 	tsteq	r0, lr
    265c:	009b0102 	addseq	r0, fp, r2, lsl #2
    2660:	bd400000 	stcllt	0, cr0, [r0, #-0]
    2664:	01800000 	orreq	r0, r0, r0
    2668:	9c010000 	stcls	0, cr0, [r1], {-0}
    266c:	000004b6 			; <UNDEFINED> instruction: 0x000004b6
    2670:	000e4511 	andeq	r4, lr, r1, lsl r5
    2674:	01030100 	mrseq	r0, (UNDEF: 19)
    2678:	0000034b 	andeq	r0, r0, fp, asr #6
    267c:	116f9102 	cmnne	pc, r2, lsl #2
    2680:	0000064e 	andeq	r0, r0, lr, asr #12
    2684:	11010401 	tstne	r1, r1, lsl #8
    2688:	02000002 	andeq	r0, r0, #2
    268c:	d6116891 			; <UNDEFINED> instruction: 0xd6116891
    2690:	01000001 	tsteq	r0, r1
    2694:	02110105 	andseq	r0, r1, #1073741825	; 0x40000001
    2698:	91020000 	mrsls	r0, (UNDEF: 2)
    269c:	07bf1264 	ldreq	r1, [pc, r4, ror #4]!
    26a0:	07010000 	streq	r0, [r1, -r0]
    26a4:	00009b01 	andeq	r9, r0, r1, lsl #22
    26a8:	77910200 	ldrvc	r0, [r1, r0, lsl #4]
    26ac:	000f7b12 	andeq	r7, pc, r2, lsl fp	; <UNPREDICTABLE>
    26b0:	010a0100 	mrseq	r0, (UNDEF: 26)
    26b4:	00000216 	andeq	r0, r0, r6, lsl r2
    26b8:	00709102 	rsbseq	r9, r0, r2, lsl #2
    26bc:	000ec410 	andeq	ip, lr, r0, lsl r4
    26c0:	01400100 	mrseq	r0, (UNDEF: 80)
    26c4:	0000009b 	muleq	r0, fp, r0
    26c8:	0000bec0 	andeq	fp, r0, r0, asr #29
    26cc:	000000b4 	strheq	r0, [r0], -r4
    26d0:	04fe9c01 	ldrbteq	r9, [lr], #3073	; 0xc01
    26d4:	45110000 	ldrmi	r0, [r1, #-0]
    26d8:	0100000e 	tsteq	r0, lr
    26dc:	034b0141 	movteq	r0, #45377	; 0xb141
    26e0:	91020000 	mrsls	r0, (UNDEF: 2)
    26e4:	07bf126f 	ldreq	r1, [pc, pc, ror #4]!
    26e8:	43010000 	movwmi	r0, #4096	; 0x1000
    26ec:	00009b01 	andeq	r9, r0, r1, lsl #22
    26f0:	77910200 	ldrvc	r0, [r1, r0, lsl #4]
    26f4:	000f7b12 	andeq	r7, pc, r2, lsl fp	; <UNPREDICTABLE>
    26f8:	01460100 	mrseq	r0, (UNDEF: 86)
    26fc:	00000216 	andeq	r0, r0, r6, lsl r2
    2700:	00709102 	rsbseq	r9, r0, r2, lsl #2
    2704:	00021613 	andeq	r1, r2, r3, lsl r6
    2708:	00050e00 	andeq	r0, r5, r0, lsl #28
    270c:	00891400 	addeq	r1, r9, r0, lsl #8
    2710:	00000000 	andeq	r0, r0, r0
    2714:	00054115 	andeq	r4, r5, r5, lsl r1
    2718:	19290800 	stmdbne	r9!, {fp}
    271c:	09000005 	stmdbeq	r0, {r0, r2}
    2720:	000004fe 	strdeq	r0, [r0], -lr
    2724:	000e4e16 	andeq	r4, lr, r6, lsl lr
    2728:	4b330100 	blmi	cc2b30 <__SP_usr_+0xc630b0>
    272c:	05000003 	streq	r0, [r0, #-3]
    2730:	00904003 	addseq	r4, r0, r3
    2734:	02320000 	eorseq	r0, r2, #0
    2738:	00040000 	andeq	r0, r4, r0
    273c:	00000a75 	andeq	r0, r0, r5, ror sl
    2740:	06ba0104 	ldrteq	r0, [sl], r4, lsl #2
    2744:	8d010000 	stchi	0, cr0, [r1, #-0]
    2748:	7d00000f 	stcvc	0, cr0, [r0, #-60]	; 0xffffffc4
    274c:	28000005 	stmdacs	r0, {r0, r2}
    2750:	00000002 	andeq	r0, r0, r2
    2754:	e3000000 	movw	r0, #0
    2758:	0200000e 	andeq	r0, r0, #14
    275c:	000001ae 	andeq	r0, r0, lr, lsr #3
    2760:	00302302 	eorseq	r2, r0, r2, lsl #6
    2764:	01030000 	mrseq	r0, (UNDEF: 3)
    2768:	00044e08 	andeq	r4, r4, r8, lsl #28
    276c:	07b90200 	ldreq	r0, [r9, r0, lsl #4]!
    2770:	2a020000 	bcs	82778 <__SP_usr_+0x22cf8>
    2774:	00000042 	andeq	r0, r0, r2, asr #32
    2778:	50060103 	andpl	r0, r6, r3, lsl #2
    277c:	03000004 	movweq	r0, #4
    2780:	02dd0702 	sbcseq	r0, sp, #524288	; 0x80000
    2784:	02030000 	andeq	r0, r3, #0
    2788:	0004a305 	andeq	sl, r4, r5, lsl #6
    278c:	01dc0200 	bicseq	r0, ip, r0, lsl #4
    2790:	3f020000 	svccc	0x00020000
    2794:	00000062 	andeq	r0, r0, r2, rrx
    2798:	ca070403 	bgt	1c37ac <__SP_usr_+0x163d2c>
    279c:	03000000 	movweq	r0, #0
    27a0:	01540504 	cmpeq	r4, r4, lsl #10
    27a4:	08030000 	stmdaeq	r3, {}	; <UNPREDICTABLE>
    27a8:	0000c507 	andeq	ip, r0, r7, lsl #10
    27ac:	05080300 	streq	r0, [r8, #-768]	; 0x300
    27b0:	0000014f 	andeq	r0, r0, pc, asr #2
    27b4:	0005fb02 	andeq	pc, r5, r2, lsl #22
    27b8:	372b0300 	strcc	r0, [fp, -r0, lsl #6]!
    27bc:	04000000 	streq	r0, [r0], #-0
    27c0:	00002504 	andeq	r2, r0, r4, lsl #10
    27c4:	07040300 	streq	r0, [r4, -r0, lsl #6]
    27c8:	0000035e 	andeq	r0, r0, lr, asr r3
    27cc:	00076d02 	andeq	r6, r7, r2, lsl #26
    27d0:	7e290400 	cdpvc	4, 2, cr0, cr9, cr0, {0}
    27d4:	02000000 	andeq	r0, r0, #0
    27d8:	00000403 	andeq	r0, r0, r3, lsl #8
    27dc:	0037b504 	eorseq	fp, r7, r4, lsl #10
    27e0:	ce020000 	cdpgt	0, 0, cr0, cr2, cr0, {0}
    27e4:	0500000f 	streq	r0, [r0, #-15]
    27e8:	0000963c 	andeq	r9, r0, ip, lsr r6
    27ec:	104a0500 	subne	r0, sl, r0, lsl #10
    27f0:	2b010000 	blcs	427f8 <vectors_end+0x34178>
    27f4:	000083b4 			; <UNDEFINED> instruction: 0x000083b4
    27f8:	000000b0 	strheq	r0, [r0], -r0	; <UNPREDICTABLE>
    27fc:	fe059c01 	cdp2	12, 0, cr9, cr5, cr1, {0}
    2800:	0100000f 	tsteq	r0, pc
    2804:	0084643c 	addeq	r6, r4, ip, lsr r4
    2808:	0000b000 	andeq	fp, r0, r0
    280c:	059c0100 	ldreq	r0, [ip, #256]	; 0x100
    2810:	0000106d 	andeq	r1, r0, sp, rrx
    2814:	85144d01 	ldrhi	r4, [r4, #-3329]	; 0xd01
    2818:	00b00000 	adcseq	r0, r0, r0
    281c:	9c010000 	stcls	0, cr0, [r1], {-0}
    2820:	000feb05 	andeq	lr, pc, r5, lsl #22
    2824:	c45e0100 	ldrbgt	r0, [lr], #-256	; 0x100
    2828:	b0000085 	andlt	r0, r0, r5, lsl #1
    282c:	01000000 	mrseq	r0, (UNDEF: 0)
    2830:	0fd7059c 	svceq	0x00d7059c
    2834:	6f010000 	svcvs	0x00010000
    2838:	00008674 	andeq	r8, r0, r4, ror r6
    283c:	000000b0 	strheq	r0, [r0], -r0	; <UNPREDICTABLE>
    2840:	3c069c01 	stccc	12, cr9, [r6], {1}
    2844:	01000010 	tsteq	r0, r0, lsl r0
    2848:	00872481 	addeq	r2, r7, r1, lsl #9
    284c:	00003400 	andeq	r3, r0, r0, lsl #8
    2850:	069c0100 	ldreq	r0, [ip], r0, lsl #2
    2854:	00000fc0 	andeq	r0, r0, r0, asr #31
    2858:	87588901 	ldrbhi	r8, [r8, -r1, lsl #18]
    285c:	00240000 	eoreq	r0, r4, r0
    2860:	9c010000 	stcls	0, cr0, [r1], {-0}
    2864:	000fa405 	andeq	sl, pc, r5, lsl #8
    2868:	7c900100 	ldfvcs	f0, [r0], {0}
    286c:	b0000087 	andlt	r0, r0, r7, lsl #1
    2870:	01000000 	mrseq	r0, (UNDEF: 0)
    2874:	0f95079c 	svceq	0x0095079c
    2878:	a5010000 	strge	r0, [r1, #-0]
    287c:	00000166 	andeq	r0, r0, r6, ror #2
    2880:	0000c7e8 	andeq	ip, r0, r8, ror #15
    2884:	00000214 	andeq	r0, r0, r4, lsl r2
    2888:	01669c01 	cmneq	r6, r1, lsl #24
    288c:	72080000 	andvc	r0, r8, #0
    2890:	a7010061 	strge	r0, [r1, -r1, rrx]
    2894:	0000016d 	andeq	r0, r0, sp, ror #2
    2898:	00749102 	rsbseq	r9, r4, r2, lsl #2
    289c:	69050409 	stmdbvs	r5, {r0, r3, sl}
    28a0:	0300746e 	movweq	r7, #1134	; 0x46e
    28a4:	00cf0704 	sbceq	r0, pc, r4, lsl #14
    28a8:	5e050000 	cdppl	0, 0, cr0, cr5, cr0, {0}
    28ac:	01000010 	tsteq	r0, r0, lsl r0
    28b0:	00c9fcdb 	ldrdeq	pc, [r9], #203	; 0xcb
    28b4:	00001c00 	andeq	r1, r0, r0, lsl #24
    28b8:	0a9c0100 	beq	fe702cc0 <__SP_usr_+0xfe6a3240>
    28bc:	0000102e 	andeq	r1, r0, lr, lsr #32
    28c0:	bf74e901 	svclt	0x0074e901
    28c4:	00200000 	eoreq	r0, r0, r0
    28c8:	9c010000 	stcls	0, cr0, [r1], {-0}
    28cc:	000001b7 			; <UNDEFINED> instruction: 0x000001b7
    28d0:	000f9a0b 	andeq	r9, pc, fp, lsl #20
    28d4:	89e90100 	stmibhi	r9!, {r8}^
    28d8:	02000000 	andeq	r0, r0, #0
    28dc:	9f0b7491 	svcls	0x000b7491
    28e0:	0100000f 	tsteq	r0, pc
    28e4:	000057e9 	andeq	r5, r0, r9, ror #15
    28e8:	70910200 	addsvc	r0, r1, r0, lsl #4
    28ec:	10220c00 	eorne	r0, r2, r0, lsl #24
    28f0:	ed010000 	stc	0, cr0, [r1, #-0]
    28f4:	0000bf94 	muleq	r0, r4, pc	; <UNPREDICTABLE>
    28f8:	00000028 	andeq	r0, r0, r8, lsr #32
    28fc:	01db9c01 	bicseq	r9, fp, r1, lsl #24
    2900:	710d0000 	mrsvc	r0, (UNDEF: 13)
    2904:	01000007 	tsteq	r0, r7
    2908:	0000acef 	andeq	sl, r0, pc, ror #25
    290c:	77910200 	ldrvc	r0, [r1, r0, lsl #4]
    2910:	0fb30c00 	svceq	0x00b30c00
    2914:	f6010000 			; <UNDEFINED> instruction: 0xf6010000
    2918:	0000bfbc 			; <UNDEFINED> instruction: 0x0000bfbc
    291c:	00000028 	andeq	r0, r0, r8, lsr #32
    2920:	01ff9c01 	mvnseq	r9, r1, lsl #24
    2924:	710d0000 	mrsvc	r0, (UNDEF: 13)
    2928:	01000007 	tsteq	r0, r7
    292c:	0000acf8 	strdeq	sl, [r0], -r8
    2930:	77910200 	ldrvc	r0, [r1, r0, lsl #4]
    2934:	10110e00 	andsne	r0, r1, r0, lsl #28
    2938:	40060000 	andmi	r0, r6, r0
    293c:	0000020a 	andeq	r0, r0, sl, lsl #4
    2940:	0000a10f 	andeq	sl, r0, pc, lsl #2
    2944:	0fe51000 	svceq	0x00e51000
    2948:	0e010000 	cdpeq	0, 0, cr0, cr1, cr0, {0}
    294c:	00000220 	andeq	r0, r0, r0, lsr #4
    2950:	fa800305 	blx	fe00356c <__SP_usr_+0xfdfa3aec>
    2954:	6d110005 	ldcvs	0, cr0, [r1, #-20]	; 0xffffffec
    2958:	0e000001 	cdpeq	0, 0, cr0, cr0, cr1, {0}
    295c:	0000117d 	andeq	r1, r0, sp, ror r1
    2960:	0230db01 	eorseq	sp, r0, #1024	; 0x400
    2964:	ac0f0000 	stcge	0, cr0, [pc], {-0}
    2968:	00000000 	andeq	r0, r0, r0
    296c:	00000978 	andeq	r0, r0, r8, ror r9
    2970:	0b900004 	bleq	fe402988 <__SP_usr_+0xfe3a2f08>
    2974:	01040000 	mrseq	r0, (UNDEF: 4)
    2978:	000006ba 			; <UNDEFINED> instruction: 0x000006ba
    297c:	0011da01 	andseq	sp, r1, r1, lsl #20
    2980:	00057d00 	andeq	r7, r5, r0, lsl #26
    2984:	00026000 	andeq	r6, r2, r0
    2988:	00000000 	andeq	r0, r0, r0
    298c:	00108900 	andseq	r8, r0, r0, lsl #18
    2990:	01ae0200 			; <UNDEFINED> instruction: 0x01ae0200
    2994:	23020000 	movwcs	r0, #8192	; 0x2000
    2998:	00000030 	andeq	r0, r0, r0, lsr r0
    299c:	4e080103 	adfmie	f0, f0, f3
    29a0:	02000004 	andeq	r0, r0, #4
    29a4:	000007b9 			; <UNDEFINED> instruction: 0x000007b9
    29a8:	00422a02 	subeq	r2, r2, r2, lsl #20
    29ac:	01030000 	mrseq	r0, (UNDEF: 3)
    29b0:	00045006 	andeq	r5, r4, r6
    29b4:	07020300 	streq	r0, [r2, -r0, lsl #6]
    29b8:	000002dd 	ldrdeq	r0, [r0], -sp
    29bc:	a3050203 	movwge	r0, #20995	; 0x5203
    29c0:	02000004 	andeq	r0, r0, #4
    29c4:	000001dc 	ldrdeq	r0, [r0], -ip
    29c8:	00623f02 	rsbeq	r3, r2, r2, lsl #30
    29cc:	04030000 	streq	r0, [r3], #-0
    29d0:	0000ca07 	andeq	ip, r0, r7, lsl #20
    29d4:	04fd0200 	ldrbteq	r0, [sp], #512	; 0x200
    29d8:	46020000 	strmi	r0, [r2], -r0
    29dc:	00000074 	andeq	r0, r0, r4, ror r0
    29e0:	54050403 	strpl	r0, [r5], #-1027	; 0x403
    29e4:	03000001 	movweq	r0, #1
    29e8:	00c50708 	sbceq	r0, r5, r8, lsl #14
    29ec:	08030000 	stmdaeq	r3, {}	; <UNPREDICTABLE>
    29f0:	00014f05 	andeq	r4, r1, r5, lsl #30
    29f4:	00450200 	subeq	r0, r5, r0, lsl #4
    29f8:	23030000 	movwcs	r0, #12288	; 0x3000
    29fc:	00000025 	andeq	r0, r0, r5, lsr #32
    2a00:	0005fb02 	andeq	pc, r5, r2, lsl #22
    2a04:	372b0300 	strcc	r0, [fp, -r0, lsl #6]!
    2a08:	02000000 	andeq	r0, r0, #0
    2a0c:	000007a8 	andeq	r0, r0, r8, lsr #15
    2a10:	00253303 	eoreq	r3, r5, r3, lsl #6
    2a14:	b8020000 	stmdalt	r2, {}	; <UNPREDICTABLE>
    2a18:	03000000 	movweq	r0, #0
    2a1c:	0000373a 	andeq	r3, r0, sl, lsr r7
    2a20:	03390200 	teqeq	r9, #0, 4
    2a24:	41030000 	mrsmi	r0, (UNDEF: 3)
    2a28:	00000025 	andeq	r0, r0, r5, lsr #32
    2a2c:	000e4102 	andeq	r4, lr, r2, lsl #2
    2a30:	254e0300 	strbcs	r0, [lr, #-768]	; 0x300
    2a34:	02000000 	andeq	r0, r0, #0
    2a38:	0000021f 	andeq	r0, r0, pc, lsl r2
    2a3c:	00572804 	subseq	r2, r7, r4, lsl #16
    2a40:	5c040000 	stcpl	0, cr0, [r4], {-0}
    2a44:	44000004 	strmi	r0, [r0], #-4
    2a48:	00f94e05 	rscseq	r4, r9, r5, lsl #28
    2a4c:	72050000 	andvc	r0, r5, #0
    2a50:	f94f0500 			; <UNDEFINED> instruction: 0xf94f0500
    2a54:	00000000 	andeq	r0, r0, r0
    2a58:	72737005 	rsbsvc	r7, r3, #5
    2a5c:	57500500 	ldrbpl	r0, [r0, -r0, lsl #10]
    2a60:	40000000 	andmi	r0, r0, r0
    2a64:	00570600 	subseq	r0, r7, r0, lsl #12
    2a68:	01090000 	mrseq	r0, (UNDEF: 9)
    2a6c:	09070000 	stmdbeq	r7, {}	; <UNPREDICTABLE>
    2a70:	0f000001 	svceq	0x00000001
    2a74:	07040300 	streq	r0, [r4, -r0, lsl #6]
    2a78:	0000035e 	andeq	r0, r0, lr, asr r3
    2a7c:	00110302 	andseq	r0, r1, r2, lsl #6
    2a80:	d6560500 	ldrble	r0, [r6], -r0, lsl #10
    2a84:	02000000 	andeq	r0, r0, #0
    2a88:	00000799 	muleq	r0, r9, r7
    2a8c:	00575b05 	subseq	r5, r7, r5, lsl #22
    2a90:	67020000 	strvs	r0, [r2, -r0]
    2a94:	05000003 	streq	r0, [r0, #-3]
    2a98:	00005760 	andeq	r5, r0, r0, ror #14
    2a9c:	04990400 	ldreq	r0, [r9], #1024	; 0x400
    2aa0:	05080000 	streq	r0, [r8, #-0]
    2aa4:	00015665 	andeq	r5, r1, r5, ror #12
    2aa8:	10d00800 	sbcsne	r0, r0, r0, lsl #16
    2aac:	66050000 	strvs	r0, [r5], -r0
    2ab0:	00000156 	andeq	r0, r0, r6, asr r1
    2ab4:	036b0800 	cmneq	fp, #0, 16
    2ab8:	67050000 	strvs	r0, [r5, -r0]
    2abc:	00000126 	andeq	r0, r0, r6, lsr #2
    2ac0:	04090004 	streq	r0, [r9], #-4
    2ac4:	0000011b 	andeq	r0, r0, fp, lsl r1
    2ac8:	00066502 	andeq	r6, r6, r2, lsl #10
    2acc:	316d0500 	cmncc	sp, r0, lsl #10
    2ad0:	02000001 	andeq	r0, r0, #1
    2ad4:	000003a7 	andeq	r0, r0, r7, lsr #7
    2ad8:	01722606 	cmneq	r2, r6, lsl #12
    2adc:	04090000 	streq	r0, [r9], #-0
    2ae0:	000000d6 	ldrdeq	r0, [r0], -r6
    2ae4:	00076d02 	andeq	r6, r7, r2, lsl #26
    2ae8:	94290700 	strtls	r0, [r9], #-1792	; 0x700
    2aec:	02000000 	andeq	r0, r0, #0
    2af0:	000005de 	ldrdeq	r0, [r0], -lr
    2af4:	00255107 	eoreq	r5, r5, r7, lsl #2
    2af8:	16020000 	strne	r0, [r2], -r0
    2afc:	07000000 	streq	r0, [r0, -r0]
    2b00:	00002574 	andeq	r2, r0, r4, ror r5
    2b04:	04030200 	streq	r0, [r3], #-512	; 0x200
    2b08:	b5070000 	strlt	r0, [r7, #-0]
    2b0c:	00000037 	andeq	r0, r0, r7, lsr r0
    2b10:	01aa0409 			; <UNDEFINED> instruction: 0x01aa0409
    2b14:	020a0000 	andeq	r0, sl, #0
    2b18:	00000fce 	andeq	r0, r0, lr, asr #31
    2b1c:	01783c08 	cmneq	r8, r8, lsl #24
    2b20:	06020000 	streq	r0, [r2], -r0
    2b24:	09000003 	stmdbeq	r0, {r0, r1}
    2b28:	0000257e 	andeq	r2, r0, lr, ror r5
    2b2c:	043c0200 	ldrteq	r0, [ip], #-512	; 0x200
    2b30:	88090000 	stmdahi	r9, {}	; <UNPREDICTABLE>
    2b34:	000001a4 	andeq	r0, r0, r4, lsr #3
    2b38:	9109030b 	tstls	r9, fp, lsl #6
    2b3c:	000001f9 	strdeq	r0, [r0], -r9
    2b40:	00065408 	andeq	r5, r6, r8, lsl #8
    2b44:	f9930900 			; <UNDEFINED> instruction: 0xf9930900
    2b48:	00000001 	andeq	r0, r0, r1
    2b4c:	00008708 	andeq	r8, r0, r8, lsl #14
    2b50:	aa960900 	bge	fe584f58 <__SP_usr_+0xfe5254d8>
    2b54:	01000000 	mrseq	r0, (UNDEF: 0)
    2b58:	00020508 	andeq	r0, r2, r8, lsl #10
    2b5c:	839b0900 	orrshi	r0, fp, #0, 18
    2b60:	02000001 	andeq	r0, r0, #1
    2b64:	00aa0c00 	adceq	r0, sl, r0, lsl #24
    2b68:	34020000 	strcc	r0, [r2], #-0
    2b6c:	09000006 	stmdbeq	r0, {r1, r2}
    2b70:	0001cc9d 	muleq	r1, sp, ip
    2b74:	00a80400 	adceq	r0, r8, r0, lsl #8
    2b78:	09180000 	ldmdbeq	r8, {}	; <UNPREDICTABLE>
    2b7c:	000275a6 	andeq	r7, r2, r6, lsr #11
    2b80:	061e0800 	ldreq	r0, [lr], -r0, lsl #16
    2b84:	a8090000 	stmdage	r9, {}	; <UNPREDICTABLE>
    2b88:	00000167 	andeq	r0, r0, r7, ror #2
    2b8c:	13590800 	cmpne	r9, #0, 16
    2b90:	aa090000 	bge	242b98 <__SP_usr_+0x1e3118>
    2b94:	0000015c 	andeq	r0, r0, ip, asr r1
    2b98:	05300804 	ldreq	r0, [r0, #-2052]!	; 0x804
    2b9c:	ac090000 	stcge	0, cr0, [r9], {-0}
    2ba0:	00000275 	andeq	r0, r0, r5, ror r2
    2ba4:	00ef080c 	rsceq	r0, pc, ip, lsl #16
    2ba8:	af090000 	svcge	0x00090000
    2bac:	0000027a 	andeq	r0, r0, sl, ror r2
    2bb0:	64690510 	strbtvs	r0, [r9], #-1296	; 0x510
    2bb4:	85b20900 	ldrhi	r0, [r2, #2304]!	; 0x900
    2bb8:	14000002 	strne	r0, [r0], #-2
    2bbc:	00006808 	andeq	r6, r0, r8, lsl #16
    2bc0:	f9bd0900 			; <UNDEFINED> instruction: 0xf9bd0900
    2bc4:	15000001 	strne	r0, [r0, #-1]
    2bc8:	00027008 	andeq	r7, r2, r8
    2bcc:	8abf0900 	bhi	fefc4fd4 <__SP_usr_+0xfef65554>
    2bd0:	16000002 	strne	r0, [r0], -r2
    2bd4:	00030f08 	andeq	r0, r3, r8, lsl #30
    2bd8:	8fc10900 	svchi	0x00c10900
    2bdc:	17000002 	strne	r0, [r0, -r2]
    2be0:	01c10c00 	biceq	r0, r1, r0, lsl #24
    2be4:	7f0c0000 	svcvc	0x000c0000
    2be8:	09000002 	stmdbeq	r0, {r1}
    2bec:	0001fe04 	andeq	pc, r1, r4, lsl #28
    2bf0:	01780c00 	cmneq	r8, r0, lsl #24
    2bf4:	b50c0000 	strlt	r0, [ip, #-0]
    2bf8:	0c000000 	stceq	0, cr0, [r0], {-0}
    2bfc:	000001b6 			; <UNDEFINED> instruction: 0x000001b6
    2c00:	00024902 	andeq	r4, r2, r2, lsl #18
    2c04:	09d50900 	ldmibeq	r5, {r8, fp}^
    2c08:	04000002 	streq	r0, [r0], #-2
    2c0c:	0000017f 	andeq	r0, r0, pc, ror r1
    2c10:	dcdd0908 	ldclle	9, cr0, [sp], {8}
    2c14:	08000002 	stmdaeq	r0, {r1}
    2c18:	00000ded 	andeq	r0, r0, sp, ror #27
    2c1c:	0319df09 	tsteq	r9, #9, 30	; 0x24
    2c20:	08000000 	stmdaeq	r0, {}	; <UNPREDICTABLE>
    2c24:	00000274 	andeq	r0, r0, r4, ror r2
    2c28:	00b5e509 	adcseq	lr, r5, r9, lsl #10
    2c2c:	08040000 	stmdaeq	r4, {}	; <UNPREDICTABLE>
    2c30:	0000006d 	andeq	r0, r0, sp, rrx
    2c34:	00aae709 	adceq	lr, sl, r9, lsl #14
    2c38:	08050000 	stmdaeq	r5, {}	; <UNPREDICTABLE>
    2c3c:	0000001f 	andeq	r0, r0, pc, lsl r0
    2c40:	018ee909 	orreq	lr, lr, r9, lsl #18
    2c44:	00060000 	andeq	r0, r6, r0
    2c48:	0003cf04 	andeq	ip, r3, r4, lsl #30
    2c4c:	290a0800 	stmdbcs	sl, {fp}
    2c50:	00000319 	andeq	r0, r0, r9, lsl r3
    2c54:	00065408 	andeq	r5, r6, r8, lsl #8
    2c58:	f92b0a00 			; <UNDEFINED> instruction: 0xf92b0a00
    2c5c:	00000001 	andeq	r0, r0, r1
    2c60:	00008708 	andeq	r8, r0, r8, lsl #14
    2c64:	aa2e0a00 	bge	b8546c <__SP_usr_+0xb259ec>
    2c68:	01000000 	mrseq	r0, (UNDEF: 0)
    2c6c:	00053608 	andeq	r3, r5, r8, lsl #12
    2c70:	94330a00 	ldrtls	r0, [r3], #-2560	; 0xa00
    2c74:	02000000 	andeq	r0, r0, #0
    2c78:	0007c608 	andeq	ip, r7, r8, lsl #12
    2c7c:	193b0a00 	ldmdbne	fp!, {r9, fp}
    2c80:	04000003 	streq	r0, [r0], #-3
    2c84:	dc040900 	stcle	9, cr0, [r4], {-0}
    2c88:	02000002 	andeq	r0, r0, #2
    2c8c:	000004bf 			; <UNDEFINED> instruction: 0x000004bf
    2c90:	029ff309 	addseq	pc, pc, #603979776	; 0x24000000
    2c94:	1c0b0000 	stcne	0, cr0, [fp], {-0}
    2c98:	0395f809 	orrseq	pc, r5, #589824	; 0x90000
    2c9c:	79080000 	stmdbvc	r8, {}	; <UNPREDICTABLE>
    2ca0:	09000007 	stmdbeq	r0, {r0, r1, r2}
    2ca4:	000395fa 	strdeq	r9, [r3], -sl
    2ca8:	fb080000 	blx	202cb2 <__SP_usr_+0x1a3232>
    2cac:	09000001 	stmdbeq	r0, {r0}
    2cb0:	000395fb 	strdeq	r9, [r3], -fp
    2cb4:	88080400 	stmdahi	r8, {sl}
    2cb8:	09000003 	stmdbeq	r0, {r0, r1}
    2cbc:	0003a0fc 	strdeq	sl, [r3], -ip
    2cc0:	56080800 	strpl	r0, [r8], -r0, lsl #16
    2cc4:	09000003 	stmdbeq	r0, {r0, r1}
    2cc8:	0003a0fd 	strdeq	sl, [r3], -sp
    2ccc:	74080c00 	strvc	r0, [r8], #-3072	; 0xc00
    2cd0:	09000001 	stmdbeq	r0, {r0}
    2cd4:	000069fe 	strdeq	r6, [r0], -lr
    2cd8:	51081000 	mrspl	r1, (UNDEF: 8)
    2cdc:	09000005 	stmdbeq	r0, {r0, r2}
    2ce0:	000069ff 	strdeq	r6, [r0], -pc	; <UNPREDICTABLE>
    2ce4:	b20d1400 	andlt	r1, sp, #0, 8
    2ce8:	09000002 	stmdbeq	r0, {r1}
    2cec:	00250107 	eoreq	r0, r5, r7, lsl #2
    2cf0:	0d180000 	ldceq	0, cr0, [r8, #-0]
    2cf4:	00000188 	andeq	r0, r0, r8, lsl #3
    2cf8:	83010c09 	movwhi	r0, #7177	; 0x1c09
    2cfc:	19000001 	stmdbne	r0, {r0}
    2d00:	9b040900 	blls	105108 <__SP_usr_+0xa5688>
    2d04:	0c000003 	stceq	0, cr0, [r0], {3}
    2d08:	00000294 	muleq	r0, r4, r2
    2d0c:	031f0409 	tsteq	pc, #150994944	; 0x9000000
    2d10:	f70e0000 			; <UNDEFINED> instruction: 0xf70e0000
    2d14:	09000002 	stmdbeq	r0, {r1}
    2d18:	032a0116 			; <UNDEFINED> instruction: 0x032a0116
    2d1c:	020f0000 	andeq	r0, pc, #0
    2d20:	d5011e09 	strle	r1, [r1, #-3593]	; 0xe09
    2d24:	10000003 	andne	r0, r0, r3
    2d28:	0079656b 	rsbseq	r6, r9, fp, ror #10
    2d2c:	aa011f09 	bge	4a958 <vectors_end+0x3c2d8>
    2d30:	00000000 	andeq	r0, r0, r0
    2d34:	00646910 	rsbeq	r6, r4, r0, lsl r9
    2d38:	94012009 	strls	r2, [r1], #-9
    2d3c:	01000000 	mrseq	r0, (UNDEF: 0)
    2d40:	01650e00 	cmneq	r5, r0, lsl #28
    2d44:	21090000 	mrscs	r0, (UNDEF: 9)
    2d48:	0003b201 	andeq	fp, r3, r1, lsl #4
    2d4c:	11920200 	orrsne	r0, r2, r0, lsl #4
    2d50:	2a0b0000 	bcs	2c2d58 <__SP_usr_+0x2632d8>
    2d54:	000003ec 	andeq	r0, r0, ip, ror #7
    2d58:	03f20409 	mvnseq	r0, #150994944	; 0x9000000
    2d5c:	fd110000 	ldc2	0, cr0, [r1, #-0]
    2d60:	12000003 	andne	r0, r0, #3
    2d64:	000003fd 	strdeq	r0, [r0], -sp
    2d68:	03040900 	movweq	r0, #18688	; 0x4900
    2d6c:	13000004 	movwne	r0, #4
    2d70:	00116304 	andseq	r6, r1, r4, lsl #6
    2d74:	310b0800 	tstcc	fp, r0, lsl #16
    2d78:	00000429 	andeq	r0, r0, r9, lsr #8
    2d7c:	00052408 	andeq	r2, r5, r8, lsl #8
    2d80:	29320b00 	ldmdbcs	r2!, {r8, r9, fp}
    2d84:	00000004 	andeq	r0, r0, r4
    2d88:	00121a08 	andseq	r1, r2, r8, lsl #20
    2d8c:	2e360b00 	vaddcs.f64	d0, d6, d0
    2d90:	04000004 	streq	r0, [r0], #-4
    2d94:	03e10c00 	mvneq	r0, #0, 24
    2d98:	04140000 	ldreq	r0, [r4], #-0
    2d9c:	0010ef02 	andseq	lr, r0, r2, lsl #30
    2da0:	04420b00 	strbeq	r0, [r2], #-2816	; 0xb00
    2da4:	02000004 	andeq	r0, r0, #4
    2da8:	0000011c 	andeq	r0, r0, ip, lsl r1
    2dac:	00252f0c 	eoreq	r2, r5, ip, lsl #30
    2db0:	19020000 	stmdbne	r2, {}	; <UNPREDICTABLE>
    2db4:	0c000005 	stceq	0, cr0, [r0], {5}
    2db8:	00045136 	andeq	r5, r4, r6, lsr r1
    2dbc:	57040900 	strpl	r0, [r4, -r0, lsl #18]
    2dc0:	11000004 	tstne	r0, r4
    2dc4:	00000462 	andeq	r0, r0, r2, ror #8
    2dc8:	00046212 	andeq	r6, r4, r2, lsl r2
    2dcc:	04090000 	streq	r0, [r9], #-0
    2dd0:	00000468 	andeq	r0, r0, r8, ror #8
    2dd4:	00009b04 	andeq	r9, r0, r4, lsl #22
    2dd8:	640c1800 	strvs	r1, [ip], #-2048	; 0x800
    2ddc:	000004bd 			; <UNDEFINED> instruction: 0x000004bd
    2de0:	00028308 	andeq	r8, r2, r8, lsl #6
    2de4:	59650c00 	stmdbpl	r5!, {sl, fp}^
    2de8:	00000005 	andeq	r0, r0, r5
    2dec:	00081208 	andeq	r1, r8, r8, lsl #4
    2df0:	62660c00 	rsbvs	r0, r6, #0, 24
    2df4:	04000004 	streq	r0, [r0], #-4
    2df8:	00015d08 	andeq	r5, r1, r8, lsl #26
    2dfc:	62680c00 	rsbvs	r0, r8, #0, 24
    2e00:	08000004 	stmdaeq	r0, {r2}
    2e04:	0001d608 	andeq	sp, r1, r8, lsl #12
    2e08:	cb6a0c00 	blgt	1a85e10 <__SP_usr_+0x1a26390>
    2e0c:	0c000000 	stceq	0, cr0, [r0], {-0}
    2e10:	000f6c08 	andeq	r6, pc, r8, lsl #24
    2e14:	cb6b0c00 	blgt	1ac5e1c <__SP_usr_+0x1a6639c>
    2e18:	10000000 	andne	r0, r0, r0
    2e1c:	00001f08 	andeq	r1, r0, r8, lsl #30
    2e20:	3b6c0c00 	blcc	1b05e28 <__SP_usr_+0x1aa63a8>
    2e24:	14000004 	strne	r0, [r0], #-4
    2e28:	05e70400 	strbeq	r0, [r7, #1024]!	; 0x400
    2e2c:	0c080000 	stceq	0, cr0, [r8], {-0}
    2e30:	0004e243 	andeq	lr, r4, r3, asr #4
    2e34:	14610800 	strbtne	r0, [r1], #-2048	; 0x800
    2e38:	450c0000 	strmi	r0, [ip, #-0]
    2e3c:	00000543 	andeq	r0, r0, r3, asr #10
    2e40:	02f00800 	rscseq	r0, r0, #0, 16
    2e44:	470c0000 	strmi	r0, [ip, -r0]
    2e48:	00000549 	andeq	r0, r0, r9, asr #10
    2e4c:	e3040004 	movw	r0, #16388	; 0x4004
    2e50:	1c000001 	stcne	0, cr0, [r0], {1}
    2e54:	0543800c 	strbeq	r8, [r3, #-12]
    2e58:	c0080000 	andgt	r0, r8, r0
    2e5c:	0c000003 	stceq	0, cr0, [r0], {3}
    2e60:	00056a82 	andeq	r6, r5, r2, lsl #21
    2e64:	ad080000 	stcge	0, cr0, [r8, #-0]
    2e68:	0c000004 	stceq	0, cr0, [r0], {4}
    2e6c:	00056a84 	andeq	r6, r5, r4, lsl #21
    2e70:	d2080400 	andle	r0, r8, #0, 8
    2e74:	0c000001 	stceq	0, cr0, [r0], {1}
    2e78:	00056a86 	andeq	r6, r5, r6, lsl #21
    2e7c:	0f080800 	svceq	0x00080800
    2e80:	0c000001 	stceq	0, cr0, [r0], {1}
    2e84:	0000cb88 	andeq	ip, r0, r8, lsl #23
    2e88:	b3080c00 	movwlt	r0, #35840	; 0x8c00
    2e8c:	0c000003 	stceq	0, cr0, [r0], {3}
    2e90:	0000cb8a 	andeq	ip, r0, sl, lsl #23
    2e94:	ee081000 	cdp	0, 0, cr1, cr8, cr0, {0}
    2e98:	0c000003 	stceq	0, cr0, [r0], {3}
    2e9c:	00056f94 	muleq	r5, r4, pc	; <UNPREDICTABLE>
    2ea0:	12081400 	andne	r1, r8, #0, 8
    2ea4:	0c000008 	stceq	0, cr0, [r0], {8}
    2ea8:	00056f96 	muleq	r5, r6, pc	; <UNPREDICTABLE>
    2eac:	09001800 	stmdbeq	r0, {fp, ip}
    2eb0:	0004e204 	andeq	lr, r4, r4, lsl #4
    2eb4:	04460c00 	strbeq	r0, [r6], #-3072	; 0xc00
    2eb8:	be020000 	cdplt	0, 0, cr0, cr2, cr0, {0}
    2ebc:	0c000002 	stceq	0, cr0, [r0], {2}
    2ec0:	0004bd5b 	andeq	fp, r4, fp, asr sp
    2ec4:	4e040900 	cdpmi	9, 0, cr0, cr4, cr0, {0}
    2ec8:	02000005 	andeq	r0, r0, #5
    2ecc:	0000042f 	andeq	r0, r0, pc, lsr #8
    2ed0:	0468790c 	strbteq	r7, [r8], #-2316	; 0x90c
    2ed4:	cb0c0000 	blgt	302edc <__SP_usr_+0x2a345c>
    2ed8:	09000000 	stmdbeq	r0, {}	; <UNPREDICTABLE>
    2edc:	00055f04 	andeq	r5, r5, r4, lsl #30
    2ee0:	08d50200 	ldmeq	r5, {r9}^
    2ee4:	a00c0000 	andge	r0, ip, r0
    2ee8:	000004e2 	andeq	r0, r0, r2, ror #9
    2eec:	00099a02 	andeq	r9, r9, r2, lsl #20
    2ef0:	8b2e0d00 	blhi	b862f8 <__SP_usr_+0xb26878>
    2ef4:	09000005 	stmdbeq	r0, {r0, r2}
    2ef8:	00059104 	andeq	r9, r5, r4, lsl #2
    2efc:	059c1100 	ldreq	r1, [ip, #256]	; 0x100
    2f00:	9c120000 	ldcls	0, cr0, [r2], {-0}
    2f04:	00000005 	andeq	r0, r0, r5
    2f08:	05a20409 	streq	r0, [r2, #1033]!	; 0x409
    2f0c:	a70c0000 	strge	r0, [ip, -r0]
    2f10:	04000005 	streq	r0, [r0], #-5
    2f14:	00000945 	andeq	r0, r0, r5, asr #18
    2f18:	c03b0d04 	eorsgt	r0, fp, r4, lsl #26
    2f1c:	08000005 	stmdaeq	r0, {r0, r2}
    2f20:	00000964 	andeq	r0, r0, r4, ror #18
    2f24:	05803c0d 	streq	r3, [r0, #3085]	; 0xc0d
    2f28:	00000000 	andeq	r0, r0, r0
    2f2c:	00091802 	andeq	r1, r9, r2, lsl #16
    2f30:	a7460d00 	strbge	r0, [r6, -r0, lsl #26]
    2f34:	04000005 	streq	r0, [r0], #-5
    2f38:	000009aa 	andeq	r0, r0, sl, lsr #19
    2f3c:	f05e0d08 			; <UNDEFINED> instruction: 0xf05e0d08
    2f40:	08000005 	stmdaeq	r0, {r0, r2}
    2f44:	00000950 	andeq	r0, r0, r0, asr r9
    2f48:	05c0600d 	strbeq	r6, [r0, #13]
    2f4c:	08000000 	stmdaeq	r0, {}	; <UNPREDICTABLE>
    2f50:	00000771 	andeq	r0, r0, r1, ror r7
    2f54:	0178620d 	cmneq	r8, sp, lsl #4
    2f58:	00040000 	andeq	r0, r4, r0
    2f5c:	00097f02 	andeq	r7, r9, r2, lsl #30
    2f60:	cb660d00 	blgt	1986368 <__SP_usr_+0x19268e8>
    2f64:	04000005 	streq	r0, [r0], #-5
    2f68:	00000edd 	ldrdeq	r0, [r0], -sp
    2f6c:	20350e0c 	eorscs	r0, r5, ip, lsl #28
    2f70:	08000006 	stmdaeq	r0, {r1, r2}
    2f74:	00000950 	andeq	r0, r0, r0, asr r9
    2f78:	054e360e 	strbeq	r3, [lr, #-1550]	; 0x60e
    2f7c:	08000000 	stmdaeq	r0, {}	; <UNPREDICTABLE>
    2f80:	00000964 	andeq	r0, r0, r4, ror #18
    2f84:	0620380e 	strteq	r3, [r0], -lr, lsl #16
    2f88:	00080000 	andeq	r0, r8, r0
    2f8c:	05c00409 	strbeq	r0, [r0, #1033]	; 0x409
    2f90:	28020000 	stmdacs	r2, {}	; <UNPREDICTABLE>
    2f94:	0e00000f 	cdpeq	0, 0, cr0, cr0, cr15, {0}
    2f98:	0005fb43 	andeq	pc, r5, r3, asr #22
    2f9c:	11ac0200 			; <UNDEFINED> instruction: 0x11ac0200
    2fa0:	410f0000 	mrsmi	r0, CPSR
    2fa4:	000000c0 	andeq	r0, r0, r0, asr #1
    2fa8:	000dbd02 	andeq	fp, sp, r2, lsl #26
    2fac:	dc470a00 	mcrrle	10, 0, r0, r7, cr0
    2fb0:	15000002 	strne	r0, [r0, #-2]
    2fb4:	000011c7 	andeq	r1, r0, r7, asr #3
    2fb8:	bfe48701 	svclt	0x00e48701
    2fbc:	00300000 	eorseq	r0, r0, r0
    2fc0:	9c010000 	stcls	0, cr0, [r1], {-0}
    2fc4:	00114c16 	andseq	r4, r1, r6, lsl ip
    2fc8:	016f0100 	cmneq	pc, r0, lsl #2
    2fcc:	0000c014 	andeq	ip, r0, r4, lsl r0
    2fd0:	00000010 	andeq	r0, r0, r0, lsl r0
    2fd4:	7a069c01 	bvc	1a9fe0 <__SP_usr_+0x14a560>
    2fd8:	7a000006 	bvc	2ff8 <unused+0x2ff4>
    2fdc:	07000006 	streq	r0, [r0, -r6]
    2fe0:	00000109 	andeq	r0, r0, r9, lsl #2
    2fe4:	04090001 	streq	r0, [r9], #-1
    2fe8:	00000680 	andeq	r0, r0, r0, lsl #13
    2fec:	0006850c 	andeq	r8, r6, ip, lsl #10
    2ff0:	08010300 	stmdaeq	r1, {r8, r9}
    2ff4:	00000457 	andeq	r0, r0, r7, asr r4
    2ff8:	00112a17 	andseq	r2, r1, r7, lsl sl
    2ffc:	021d0100 	andseq	r0, sp, #0, 2
    3000:	0000069e 	muleq	r0, lr, r6
    3004:	93580305 	cmpls	r8, #335544320	; 0x14000000
    3008:	6a0c0000 	bvs	303010 <__SP_usr_+0x2a3590>
    300c:	18000006 	stmdane	r0, {r1, r2}
    3010:	00001183 	andeq	r1, r0, r3, lsl #3
    3014:	056a6601 	strbeq	r6, [sl, #-1537]!	; 0x601
    3018:	03050000 	movweq	r0, #20480	; 0x5000
    301c:	0000934c 	andeq	r9, r0, ip, asr #6
    3020:	00113a18 	andseq	r3, r1, r8, lsl sl
    3024:	6a670100 	bvs	19c342c <__SP_usr_+0x19639ac>
    3028:	05000005 	streq	r0, [r0, #-5]
    302c:	00935003 	addseq	r5, r3, r3
    3030:	11a11800 			; <UNDEFINED> instruction: 0x11a11800
    3034:	68010000 	stmdavs	r1, {}	; <UNPREDICTABLE>
    3038:	0000056a 	andeq	r0, r0, sl, ror #10
    303c:	93540305 	cmpls	r4, #335544320	; 0x14000000
    3040:	a5170000 	ldrge	r0, [r7, #-0]
    3044:	01000001 	tsteq	r0, r1
    3048:	03a6020b 			; <UNDEFINED> instruction: 0x03a6020b
    304c:	03050000 	movweq	r0, #20480	; 0x5000
    3050:	00009588 	andeq	r9, r0, r8, lsl #11
    3054:	0003d506 	andeq	sp, r3, r6, lsl #10
    3058:	0006f800 	andeq	pc, r6, r0, lsl #16
    305c:	01090700 	tsteq	r9, r0, lsl #14
    3060:	00020000 	andeq	r0, r2, r0
    3064:	00068017 	andeq	r8, r6, r7, lsl r0
    3068:	01fc0100 	mvnseq	r0, r0, lsl #2
    306c:	000006e8 	andeq	r0, r0, r8, ror #13
    3070:	957c0305 	ldrbls	r0, [ip, #-773]!	; 0x305
    3074:	89060000 	stmdbhi	r6, {}	; <UNPREDICTABLE>
    3078:	1a000000 	bne	3080 <unused+0x307c>
    307c:	07000007 	streq	r0, [r0, -r7]
    3080:	00000109 	andeq	r0, r0, r9, lsl #2
    3084:	dc170002 	ldcle	0, cr0, [r7], {2}
    3088:	01000003 	tsteq	r0, r3
    308c:	070a01fd 			; <UNDEFINED> instruction: 0x070a01fd
    3090:	03050000 	movweq	r0, #20480	; 0x5000
    3094:	00009584 	andeq	r9, r0, r4, lsl #11
    3098:	00039506 	andeq	r9, r3, r6, lsl #10
    309c:	00073c00 	andeq	r3, r7, r0, lsl #24
    30a0:	01090700 	tsteq	r9, r0, lsl #14
    30a4:	00010000 	andeq	r0, r1, r0
    30a8:	00005417 	andeq	r5, r0, r7, lsl r4
    30ac:	019e0100 	orrseq	r0, lr, r0, lsl #2
    30b0:	0000074e 	andeq	r0, r0, lr, asr #14
    30b4:	91200305 			; <UNDEFINED> instruction: 0x91200305
    30b8:	2c0c0000 	stccs	0, cr0, [ip], {-0}
    30bc:	06000007 	streq	r0, [r0], -r7
    30c0:	000003a0 	andeq	r0, r0, r0, lsr #7
    30c4:	00000763 	andeq	r0, r0, r3, ror #14
    30c8:	00010907 	andeq	r0, r1, r7, lsl #18
    30cc:	17000100 	strne	r0, [r0, -r0, lsl #2]
    30d0:	00000607 	andeq	r0, r0, r7, lsl #12
    30d4:	7501a401 	strvc	sl, [r1, #-1025]	; 0x401
    30d8:	05000007 	streq	r0, [r0, #-7]
    30dc:	00912803 	addseq	r2, r1, r3, lsl #16
    30e0:	07530c00 	ldrbeq	r0, [r3, -r0, lsl #24]
    30e4:	0f180000 	svceq	0x00180000
    30e8:	01000011 	tsteq	r0, r1, lsl r0
    30ec:	00057570 	andeq	r7, r5, r0, ror r5
    30f0:	84030500 	strhi	r0, [r3], #-1280	; 0x500
    30f4:	06000093 			; <UNDEFINED> instruction: 0x06000093
    30f8:	0000056f 	andeq	r0, r0, pc, ror #10
    30fc:	0000079b 	muleq	r0, fp, r7
    3100:	00010907 	andeq	r0, r1, r7, lsl #18
    3104:	17000000 	strne	r0, [r0, -r0]
    3108:	00000541 	andeq	r0, r0, r1, asr #10
    310c:	ad01eb01 	vstrge	d14, [r1, #-4]
    3110:	05000007 	streq	r0, [r0, #-7]
    3114:	00914403 	addseq	r4, r1, r3, lsl #8
    3118:	078b0c00 	streq	r0, [fp, r0, lsl #24]
    311c:	c2060000 	andgt	r0, r6, #0
    3120:	c2000007 	andgt	r0, r0, #7
    3124:	07000007 	streq	r0, [r0, -r7]
    3128:	00000109 	andeq	r0, r0, r9, lsl #2
    312c:	04090000 	streq	r0, [r9], #-0
    3130:	0000063c 	andeq	r0, r0, ip, lsr r6
    3134:	000dfe18 	andeq	pc, sp, r8, lsl lr	; <UNPREDICTABLE>
    3138:	d9550100 	ldmdble	r5, {r8}^
    313c:	05000007 	streq	r0, [r0, #-7]
    3140:	00904403 	addseq	r4, r0, r3, lsl #8
    3144:	07b20c00 	ldreq	r0, [r2, r0, lsl #24]!
    3148:	ca190000 	bgt	643150 <__SP_usr_+0x5e36d0>
    314c:	0a00000d 	beq	3188 <unused+0x3184>
    3150:	00063c58 	andeq	r3, r6, r8, asr ip
    3154:	74731a00 	ldrbtvc	r1, [r3], #-2560	; 0xa00
    3158:	32010064 	andcc	r0, r1, #100	; 0x64
    315c:	000007fa 	strdeq	r0, [r0], -sl
    3160:	92340305 	eorsls	r0, r4, #335544320	; 0x14000000
    3164:	990c0000 	stmdbls	ip, {}	; <UNPREDICTABLE>
    3168:	18000001 	stmdane	r0, {r0}
    316c:	00001011 	andeq	r1, r0, r1, lsl r0
    3170:	07fa3301 	ldrbeq	r3, [sl, r1, lsl #6]!
    3174:	03050000 	movweq	r0, #20480	; 0x5000
    3178:	00009235 	andeq	r9, r0, r5, lsr r2
    317c:	00009f06 	andeq	r9, r0, r6, lsl #30
    3180:	00082000 	andeq	r2, r8, r0
    3184:	01090700 	tsteq	r9, r0, lsl #14
    3188:	00000000 	andeq	r0, r0, r0
    318c:	00048718 	andeq	r8, r4, r8, lsl r7
    3190:	31340100 	teqcc	r4, r0, lsl #2
    3194:	05000008 	streq	r0, [r0, #-8]
    3198:	00923803 	addseq	r3, r2, r3, lsl #16
    319c:	08100c00 	ldmdaeq	r0, {sl, fp}
    31a0:	5c180000 	ldcpl	0, cr0, [r8], {-0}
    31a4:	01000005 	tsteq	r0, r5
    31a8:	00084738 	andeq	r4, r8, r8, lsr r7
    31ac:	3c030500 	cfstr32cc	mvfx0, [r3], {-0}
    31b0:	0c000092 	stceq	0, cr0, [r0], {146}	; 0x92
    31b4:	00000810 	andeq	r0, r0, r0, lsl r8
    31b8:	00117d18 	andseq	r7, r1, r8, lsl sp
    31bc:	5d450100 	stfple	f0, [r5, #-0]
    31c0:	05000008 	streq	r0, [r0, #-8]
    31c4:	00934803 	addseq	r4, r3, r3, lsl #16
    31c8:	01ab0c00 			; <UNDEFINED> instruction: 0x01ab0c00
    31cc:	77180000 	ldrvc	r0, [r8, -r0]
    31d0:	01000011 	tsteq	r0, r1, lsl r0
    31d4:	0008734d 	andeq	r7, r8, sp, asr #6
    31d8:	49030500 	stmdbmi	r3, {r8, sl}
    31dc:	0c000093 	stceq	0, cr0, [r0], {147}	; 0x93
    31e0:	00000631 	andeq	r0, r0, r1, lsr r6
    31e4:	00011b06 	andeq	r1, r1, r6, lsl #22
    31e8:	00088800 	andeq	r8, r8, r0, lsl #16
    31ec:	01090700 	tsteq	r9, r0, lsl #14
    31f0:	004a0000 	subeq	r0, sl, r0
    31f4:	0010c618 	andseq	ip, r0, r8, lsl r6
    31f8:	78ae0100 	stmiavc	lr!, {r8}
    31fc:	05000008 	streq	r0, [r0, #-8]
    3200:	0093a003 	addseq	sl, r3, r3
    3204:	107c1800 	rsbsne	r1, ip, r0, lsl #16
    3208:	b9010000 	stmdblt	r1, {}	; <UNPREDICTABLE>
    320c:	00000110 	andeq	r0, r0, r0, lsl r1
    3210:	94cc0305 	strbls	r0, [ip], #773	; 0x305
    3214:	1f180000 	svcne	0x00180000
    3218:	01000012 	tsteq	r0, r2, lsl r0
    321c:	00039bcf 	andeq	r9, r3, pc, asr #23
    3220:	48030500 	stmdami	r3, {r8, sl}
    3224:	18000090 	stmdane	r0, {r4, r7}
    3228:	000010db 	ldrdeq	r1, [r0], -fp
    322c:	031fee01 	tsteq	pc, #1, 28
    3230:	03050000 	movweq	r0, #20480	; 0x5000
    3234:	00009510 	andeq	r9, r0, r0, lsl r5
    3238:	0011b617 	andseq	fp, r1, r7, lsl r6
    323c:	01170100 	tsteq	r7, r0, lsl #2
    3240:	00000878 	andeq	r0, r0, r8, ror r8
    3244:	96c00305 	strbls	r0, [r0], r5, lsl #6
    3248:	f1170000 			; <UNDEFINED> instruction: 0xf1170000
    324c:	01000011 	tsteq	r0, r1, lsl r0
    3250:	01100123 	tsteq	r0, r3, lsr #2
    3254:	03050000 	movweq	r0, #20480	; 0x5000
    3258:	00009518 	andeq	r9, r0, r8, lsl r5
    325c:	00124817 	andseq	r4, r2, r7, lsl r8
    3260:	01390100 	teqeq	r9, r0, lsl #2
    3264:	0000039b 	muleq	r0, fp, r3
    3268:	90600305 	rsbls	r0, r0, r5, lsl #6
    326c:	38170000 	ldmdacc	r7, {}	; <UNPREDICTABLE>
    3270:	01000012 	tsteq	r0, r2, lsl r0
    3274:	031f0158 	tsteq	pc, #88, 2
    3278:	03050000 	movweq	r0, #20480	; 0x5000
    327c:	0000955c 	andeq	r9, r0, ip, asr r5
    3280:	00043006 	andeq	r3, r4, r6
    3284:	00092400 	andeq	r2, r9, r0, lsl #8
    3288:	01090700 	tsteq	r9, r0, lsl #14
    328c:	00140000 	andseq	r0, r4, r0
    3290:	0010a517 	andseq	sl, r0, r7, lsl r5
    3294:	017d0100 	cmneq	sp, r0, lsl #2
    3298:	00000936 	andeq	r0, r0, r6, lsr r9
    329c:	90780305 	rsbsls	r0, r8, r5, lsl #6
    32a0:	140c0000 	strne	r0, [ip], #-0
    32a4:	17000009 	strne	r0, [r0, -r9]
    32a8:	00001092 	muleq	r0, r2, r0
    32ac:	4d01ba01 	vstrmi	s22, [r1, #-4]
    32b0:	05000009 	streq	r0, [r0, #-9]
    32b4:	00913003 	addseq	r3, r1, r3
    32b8:	05f00c00 	ldrbeq	r0, [r0, #3072]!	; 0xc00
    32bc:	b3170000 	tstlt	r7, #0
    32c0:	01000010 	tsteq	r0, r0, lsl r0
    32c4:	096401c7 	stmdbeq	r4!, {r0, r1, r2, r6, r7, r8}^
    32c8:	03050000 	movweq	r0, #20480	; 0x5000
    32cc:	00009138 	andeq	r9, r0, r8, lsr r1
    32d0:	0006260c 	andeq	r2, r6, ip, lsl #12
    32d4:	12031700 	andne	r1, r3, #0, 14
    32d8:	db010000 	blle	432e0 <vectors_end+0x34c60>
    32dc:	00055f01 	andeq	r5, r5, r1, lsl #30
    32e0:	64030500 	strvs	r0, [r3], #-1280	; 0x500
    32e4:	00000095 	muleq	r0, r5, r0
    32e8:	00000091 	muleq	r0, r1, r0
    32ec:	0ce30004 	stcleq	0, cr0, [r3], #16
    32f0:	01040000 	mrseq	r0, (UNDEF: 4)
    32f4:	000006ba 			; <UNDEFINED> instruction: 0x000006ba
    32f8:	00127001 	andseq	r7, r2, r1
    32fc:	00057d00 	andeq	r7, r5, r0, lsl #26
    3300:	00125400 	andseq	r5, r2, r0, lsl #8
    3304:	128b0200 	addne	r0, fp, #0, 4
    3308:	20010000 	andcs	r0, r1, r0
    330c:	00000028 	andeq	r0, r0, r8, lsr #32
    3310:	002e0403 	eoreq	r0, lr, r3, lsl #8
    3314:	05040000 	streq	r0, [r4, #-0]
    3318:	044e0801 	strbeq	r0, [lr], #-2049	; 0x801
    331c:	01050000 	mrseq	r0, (UNDEF: 5)
    3320:	00045006 	andeq	r5, r4, r6
    3324:	07020500 	streq	r0, [r2, -r0, lsl #10]
    3328:	000002dd 	ldrdeq	r0, [r0], -sp
    332c:	a3050205 	movwge	r0, #20997	; 0x5205
    3330:	05000004 	streq	r0, [r0, #-4]
    3334:	00ca0704 	sbceq	r0, sl, r4, lsl #14
    3338:	04050000 	streq	r0, [r5], #-0
    333c:	00015405 	andeq	r5, r1, r5, lsl #8
    3340:	07080500 	streq	r0, [r8, -r0, lsl #10]
    3344:	000000c5 	andeq	r0, r0, r5, asr #1
    3348:	4f050805 	svcmi	0x00050805
    334c:	05000001 	streq	r0, [r0, #-1]
    3350:	035e0704 	cmpeq	lr, #4, 14	; 0x100000
    3354:	1d060000 	stcne	0, cr0, [r6, #-0]
    3358:	7e000000 	cdpvc	0, 0, cr0, cr0, cr0, {0}
    335c:	07000000 	streq	r0, [r0, -r0]
    3360:	00000067 	andeq	r0, r0, r7, rrx
    3364:	5d080017 	stcpl	0, cr0, [r8, #-92]	; 0xffffffa4
    3368:	02000012 	andeq	r0, r0, #18
    336c:	00008f26 	andeq	r8, r0, r6, lsr #30
    3370:	48030500 	stmdami	r3, {r8, sl}
    3374:	09000091 	stmdbeq	r0, {r0, r4, r7}
    3378:	0000006e 	andeq	r0, r0, lr, rrx
    337c:	00009300 	andeq	r9, r0, r0, lsl #6
    3380:	45000200 	strmi	r0, [r0, #-512]	; 0x200
    3384:	0400000d 	streq	r0, [r0], #-13
    3388:	0012bc01 	andseq	fp, r2, r1, lsl #24
    338c:	00c60800 	sbceq	r0, r6, r0, lsl #16
    3390:	00c7e800 	sbceq	lr, r7, r0, lsl #16
    3394:	696c6200 	stmdbvs	ip!, {r9, sp, lr}^
    3398:	742f6b6e 	strtvc	r6, [pc], #-2926	; 33a0 <unused+0x339c>
    339c:	695f6c70 	ldmdbvs	pc, {r4, r5, r6, sl, fp, sp, lr}^	; <UNPREDICTABLE>
    33a0:	716f766e 	cmnvc	pc, lr, ror #12
    33a4:	532e6575 			; <UNDEFINED> instruction: 0x532e6575
    33a8:	73552f00 	cmpvc	r5, #0, 30
    33ac:	2f737265 	svccs	0x00737265
    33b0:	69766144 	ldmdbvs	r6!, {r2, r6, r8, sp, lr}^
    33b4:	72614764 	rsbvc	r4, r1, #100, 14	; 0x1900000
    33b8:	756f6972 	strbvc	r6, [pc, #-2418]!	; 2a4e <unused+0x2a4a>
    33bc:	7469472f 	strbtvc	r4, [r9], #-1839	; 0x72f
    33c0:	2f627548 	svccs	0x00627548
    33c4:	6d617274 	sfmvs	f7, 2, [r1, #-464]!	; 0xfffffe30
    33c8:	696c6f70 	stmdbvs	ip!, {r4, r5, r6, r8, r9, sl, fp, sp, lr}^
    33cc:	652f656e 	strvs	r6, [pc, #-1390]!	; 2e66 <unused+0x2e62>
    33d0:	706d6178 	rsbvc	r6, sp, r8, ror r1
    33d4:	2f73656c 	svccs	0x0073656c
    33d8:	74726f63 	ldrbtvc	r6, [r2], #-3939	; 0xf63
    33dc:	612d7865 			; <UNDEFINED> instruction: 0x612d7865
    33e0:	6d72612f 	ldfvse	f6, [r2, #-188]!	; 0xffffff44
    33e4:	622f3776 	eorvs	r3, pc, #30932992	; 0x1d80000
    33e8:	38326d63 	ldmdacc	r2!, {r0, r1, r5, r6, r8, sl, fp, sp, lr}
    33ec:	722f3633 	eorvc	r3, pc, #53477376	; 0x3300000
    33f0:	2f326970 	svccs	0x00326970
    33f4:	6e696c62 	cdpvs	12, 6, cr6, cr9, cr2, {3}
    33f8:	54535f6b 	ldrbpl	r5, [r3], #-3947	; 0xf6b
    33fc:	5f545241 	svcpl	0x00545241
    3400:	00515249 	subseq	r5, r1, r9, asr #4
    3404:	20554e47 	subscs	r4, r5, r7, asr #28
    3408:	32205341 	eorcc	r5, r0, #67108865	; 0x4000001
    340c:	2e34322e 	cdpcs	2, 3, cr3, cr4, cr14, {1}
    3410:	80010030 	andhi	r0, r1, r0, lsr r0
    3414:	000000ad 	andeq	r0, r0, sp, lsr #1
    3418:	0d590002 	ldcleq	0, cr0, [r9, #-8]
    341c:	01040000 	mrseq	r0, (UNDEF: 4)
    3420:	00001376 	andeq	r1, r0, r6, ror r3
    3424:	0000c024 	andeq	ip, r0, r4, lsr #32
    3428:	0000c138 	andeq	ip, r0, r8, lsr r1
    342c:	2e2f2e2e 	cdpcs	14, 2, cr2, cr15, cr14, {1}
    3430:	2e2e2f2e 	cdpcs	15, 2, cr2, cr14, cr14, {1}
    3434:	2f2e2e2f 	svccs	0x002e2e2f
    3438:	2e2f2e2e 	cdpcs	14, 2, cr2, cr15, cr14, {1}
    343c:	616d2f2e 	cmnvs	sp, lr, lsr #30
    3440:	6e696863 	cdpvs	8, 6, cr6, cr9, cr3, {3}
    3444:	632f7365 			; <UNDEFINED> instruction: 0x632f7365
    3448:	6574726f 	ldrbvs	r7, [r4, #-623]!	; 0x26f
    344c:	2f612d78 	svccs	0x00612d78
    3450:	5f6c7074 	svcpl	0x006c7074
    3454:	2e717269 	cdpcs	2, 7, cr7, cr1, cr9, {3}
    3458:	552f0053 	strpl	r0, [pc, #-83]!	; 340d <unused+0x3409>
    345c:	73726573 	cmnvc	r2, #482344960	; 0x1cc00000
    3460:	7661442f 	strbtvc	r4, [r1], -pc, lsr #8
    3464:	61476469 	cmpvs	r7, r9, ror #8
    3468:	6f697272 	svcvs	0x00697272
    346c:	69472f75 	stmdbvs	r7, {r0, r2, r4, r5, r6, r8, r9, sl, fp, sp}^
    3470:	62754874 	rsbsvs	r4, r5, #116, 16	; 0x740000
    3474:	6172742f 	cmnvs	r2, pc, lsr #8
    3478:	6c6f706d 	stclvs	0, cr7, [pc], #-436	; 32cc <unused+0x32c8>
    347c:	2f656e69 	svccs	0x00656e69
    3480:	6d617865 	stclvs	8, cr7, [r1, #-404]!	; 0xfffffe6c
    3484:	73656c70 	cmnvc	r5, #112, 24	; 0x7000
    3488:	726f632f 	rsbvc	r6, pc, #-1140850688	; 0xbc000000
    348c:	2d786574 	cfldr64cs	mvdx6, [r8, #-464]!	; 0xfffffe30
    3490:	72612f61 	rsbvc	r2, r1, #388	; 0x184
    3494:	2f37766d 	svccs	0x0037766d
    3498:	326d6362 	rsbcc	r6, sp, #-2013265919	; 0x88000001
    349c:	2f363338 	svccs	0x00363338
    34a0:	32697072 	rsbcc	r7, r9, #114	; 0x72
    34a4:	696c622f 	stmdbvs	ip!, {r0, r1, r2, r3, r5, r9, sp, lr}^
    34a8:	535f6b6e 	cmppl	pc, #112640	; 0x1b800
    34ac:	54524154 	ldrbpl	r4, [r2], #-340	; 0x154
    34b0:	5152495f 	cmppl	r2, pc, asr r9
    34b4:	554e4700 	strbpl	r4, [lr, #-1792]	; 0x700
    34b8:	20534120 	subscs	r4, r3, r0, lsr #2
    34bc:	34322e32 	ldrtcc	r2, [r2], #-3634	; 0xe32
    34c0:	0100302e 	tsteq	r0, lr, lsr #32
    34c4:	0000b580 	andeq	fp, r0, r0, lsl #11
    34c8:	6d000200 	sfmvs	f0, 4, [r0, #-0]
    34cc:	0400000d 	streq	r0, [r0], #-13
    34d0:	00142601 	andseq	r2, r4, r1, lsl #12
    34d4:	00c13800 	sbceq	r3, r1, r0, lsl #16
    34d8:	00c27800 	sbceq	r7, r2, r0, lsl #16
    34dc:	2f2e2e00 	svccs	0x002e2e00
    34e0:	2e2f2e2e 	cdpcs	14, 2, cr2, cr15, cr14, {1}
    34e4:	2e2e2f2e 	cdpcs	15, 2, cr2, cr14, cr14, {1}
    34e8:	2f2e2e2f 	svccs	0x002e2e2f
    34ec:	6d2f2e2e 	stcvs	14, cr2, [pc, #-184]!	; 343c <unused+0x3438>
    34f0:	69686361 	stmdbvs	r8!, {r0, r5, r6, r8, r9, sp, lr}^
    34f4:	2f73656e 	svccs	0x0073656e
    34f8:	74726f63 	ldrbtvc	r6, [r2], #-3939	; 0xf63
    34fc:	612d7865 			; <UNDEFINED> instruction: 0x612d7865
    3500:	6c70742f 	cfldrdvs	mvd7, [r0], #-188	; 0xffffff44
    3504:	7379735f 	cmnvc	r9, #2080374785	; 0x7c000001
    3508:	5f6d6574 	svcpl	0x006d6574
    350c:	6c6c6163 	stfvse	f6, [ip], #-396	; 0xfffffe74
    3510:	2f00532e 	svccs	0x0000532e
    3514:	72657355 	rsbvc	r7, r5, #1409286145	; 0x54000001
    3518:	61442f73 	hvcvs	17139	; 0x42f3
    351c:	47646976 			; <UNDEFINED> instruction: 0x47646976
    3520:	69727261 	ldmdbvs	r2!, {r0, r5, r6, r9, ip, sp, lr}^
    3524:	472f756f 	strmi	r7, [pc, -pc, ror #10]!
    3528:	75487469 	strbvc	r7, [r8, #-1129]	; 0x469
    352c:	72742f62 	rsbsvc	r2, r4, #392	; 0x188
    3530:	6f706d61 	svcvs	0x00706d61
    3534:	656e696c 	strbvs	r6, [lr, #-2412]!	; 0x96c
    3538:	6178652f 	cmnvs	r8, pc, lsr #10
    353c:	656c706d 	strbvs	r7, [ip, #-109]!	; 0x6d
    3540:	6f632f73 	svcvs	0x00632f73
    3544:	78657472 	stmdavc	r5!, {r1, r4, r5, r6, sl, ip, sp, lr}^
    3548:	612f612d 			; <UNDEFINED> instruction: 0x612f612d
    354c:	37766d72 			; <UNDEFINED> instruction: 0x37766d72
    3550:	6d63622f 	sfmvs	f6, 2, [r3, #-188]!	; 0xffffff44
    3554:	36333832 			; <UNDEFINED> instruction: 0x36333832
    3558:	6970722f 	ldmdbvs	r0!, {r0, r1, r2, r3, r5, r9, ip, sp, lr}^
    355c:	6c622f32 	stclvs	15, cr2, [r2], #-200	; 0xffffff38
    3560:	5f6b6e69 	svcpl	0x006b6e69
    3564:	52415453 	subpl	r5, r1, #1392508928	; 0x53000000
    3568:	52495f54 	subpl	r5, r9, #84, 30	; 0x150
    356c:	4e470051 	mcrmi	0, 2, r0, cr7, cr1, {2}
    3570:	53412055 	movtpl	r2, #4181	; 0x1055
    3574:	322e3220 	eorcc	r3, lr, #32, 4
    3578:	00302e34 	eorseq	r2, r0, r4, lsr lr
    357c:	00b58001 	adcseq	r8, r5, r1
    3580:	00020000 	andeq	r0, r2, r0
    3584:	00000d81 	andeq	r0, r0, r1, lsl #27
    3588:	14ef0104 	strbtne	r0, [pc], #260	; 3590 <unused+0x358c>
    358c:	c2780000 	rsbsgt	r0, r8, #0
    3590:	c2800000 	addgt	r0, r0, #0
    3594:	2e2e0000 	cdpcs	0, 2, cr0, cr14, cr0, {0}
    3598:	2f2e2e2f 	svccs	0x002e2e2f
    359c:	2e2f2e2e 	cdpcs	14, 2, cr2, cr15, cr14, {1}
    35a0:	2e2e2f2e 	cdpcs	15, 2, cr2, cr14, cr14, {1}
    35a4:	2f2e2e2f 	svccs	0x002e2e2f
    35a8:	6863616d 	stmdavs	r3!, {r0, r2, r3, r5, r6, r8, sp, lr}^
    35ac:	73656e69 	cmnvc	r5, #1680	; 0x690
    35b0:	726f632f 	rsbvc	r6, pc, #-1140850688	; 0xbc000000
    35b4:	2d786574 	cfldr64cs	mvdx6, [r8, #-464]!	; 0xfffffe30
    35b8:	70742f61 	rsbsvc	r2, r4, r1, ror #30
    35bc:	72745f6c 	rsbsvc	r5, r4, #108, 30	; 0x1b0
    35c0:	65747375 	ldrbvs	r7, [r4, #-885]!	; 0x375
    35c4:	63665f64 	cmnvs	r6, #100, 30	; 0x190
    35c8:	00532e74 	subseq	r2, r3, r4, ror lr
    35cc:	6573552f 	ldrbvs	r5, [r3, #-1327]!	; 0x52f
    35d0:	442f7372 	strtmi	r7, [pc], #-882	; 35d8 <unused+0x35d4>
    35d4:	64697661 	strbtvs	r7, [r9], #-1633	; 0x661
    35d8:	72726147 	rsbsvc	r6, r2, #-1073741807	; 0xc0000011
    35dc:	2f756f69 	svccs	0x00756f69
    35e0:	48746947 	ldmdami	r4!, {r0, r1, r2, r6, r8, fp, sp, lr}^
    35e4:	742f6275 	strtvc	r6, [pc], #-629	; 35ec <unused+0x35e8>
    35e8:	706d6172 	rsbvc	r6, sp, r2, ror r1
    35ec:	6e696c6f 	cdpvs	12, 6, cr6, cr9, cr15, {3}
    35f0:	78652f65 	stmdavc	r5!, {r0, r2, r5, r6, r8, r9, sl, fp, sp}^
    35f4:	6c706d61 	ldclvs	13, cr6, [r0], #-388	; 0xfffffe7c
    35f8:	632f7365 			; <UNDEFINED> instruction: 0x632f7365
    35fc:	6574726f 	ldrbvs	r7, [r4, #-623]!	; 0x26f
    3600:	2f612d78 	svccs	0x00612d78
    3604:	766d7261 	strbtvc	r7, [sp], -r1, ror #4
    3608:	63622f37 	cmnvs	r2, #55, 30	; 0xdc
    360c:	3338326d 	teqcc	r8, #-805306362	; 0xd0000006
    3610:	70722f36 	rsbsvc	r2, r2, r6, lsr pc
    3614:	622f3269 	eorvs	r3, pc, #-1879048186	; 0x90000006
    3618:	6b6e696c 	blvs	1b9dbd0 <__SP_usr_+0x1b3e150>
    361c:	4154535f 	cmpmi	r4, pc, asr r3
    3620:	495f5452 	ldmdbmi	pc, {r1, r4, r6, sl, ip, lr}^	; <UNPREDICTABLE>
    3624:	47005152 	smlsdmi	r0, r2, r1, r5
    3628:	4120554e 			; <UNDEFINED> instruction: 0x4120554e
    362c:	2e322053 	mrccs	0, 1, r2, cr2, cr3, {2}
    3630:	302e3432 	eorcc	r3, lr, r2, lsr r4
    3634:	b6800100 	strlt	r0, [r0], r0, lsl #2
    3638:	02000000 	andeq	r0, r0, #0
    363c:	000d9500 	andeq	r9, sp, r0, lsl #10
    3640:	56010400 	strpl	r0, [r1], -r0, lsl #8
    3644:	18000015 	stmdane	r0, {r0, r2, r4}
    3648:	800000e6 	andhi	r0, r0, r6, ror #1
    364c:	2e0000e6 	cdpcs	0, 0, cr0, cr0, cr6, {7}
    3650:	2e2e2f2e 	cdpcs	15, 2, cr2, cr14, cr14, {1}
    3654:	2f2e2e2f 	svccs	0x002e2e2f
    3658:	2e2f2e2e 	cdpcs	14, 2, cr2, cr15, cr14, {1}
    365c:	2e2e2f2e 	cdpcs	15, 2, cr2, cr14, cr14, {1}
    3660:	63616d2f 	cmnvs	r1, #3008	; 0xbc0
    3664:	656e6968 	strbvs	r6, [lr, #-2408]!	; 0x968
    3668:	6f632f73 	svcvs	0x00632f73
    366c:	78657472 	stmdavc	r5!, {r1, r4, r5, r6, sl, ip, sp, lr}^
    3670:	742f612d 	strtvc	r6, [pc], #-301	; 3678 <unused+0x3674>
    3674:	765f6c70 			; <UNDEFINED> instruction: 0x765f6c70
    3678:	6f746365 	svcvs	0x00746365
    367c:	61745f72 	cmnvs	r4, r2, ror pc
    3680:	2e656c62 	cdpcs	12, 6, cr6, cr5, cr2, {3}
    3684:	552f0073 	strpl	r0, [pc, #-115]!	; 3619 <unused+0x3615>
    3688:	73726573 	cmnvc	r2, #482344960	; 0x1cc00000
    368c:	7661442f 	strbtvc	r4, [r1], -pc, lsr #8
    3690:	61476469 	cmpvs	r7, r9, ror #8
    3694:	6f697272 	svcvs	0x00697272
    3698:	69472f75 	stmdbvs	r7, {r0, r2, r4, r5, r6, r8, r9, sl, fp, sp}^
    369c:	62754874 	rsbsvs	r4, r5, #116, 16	; 0x740000
    36a0:	6172742f 	cmnvs	r2, pc, lsr #8
    36a4:	6c6f706d 	stclvs	0, cr7, [pc], #-436	; 34f8 <unused+0x34f4>
    36a8:	2f656e69 	svccs	0x00656e69
    36ac:	6d617865 	stclvs	8, cr7, [r1, #-404]!	; 0xfffffe6c
    36b0:	73656c70 	cmnvc	r5, #112, 24	; 0x7000
    36b4:	726f632f 	rsbvc	r6, pc, #-1140850688	; 0xbc000000
    36b8:	2d786574 	cfldr64cs	mvdx6, [r8, #-464]!	; 0xfffffe30
    36bc:	72612f61 	rsbvc	r2, r1, #388	; 0x184
    36c0:	2f37766d 	svccs	0x0037766d
    36c4:	326d6362 	rsbcc	r6, sp, #-2013265919	; 0x88000001
    36c8:	2f363338 	svccs	0x00363338
    36cc:	32697072 	rsbcc	r7, r9, #114	; 0x72
    36d0:	696c622f 	stmdbvs	ip!, {r0, r1, r2, r3, r5, r9, sp, lr}^
    36d4:	535f6b6e 	cmppl	pc, #112640	; 0x1b800
    36d8:	54524154 	ldrbpl	r4, [r2], #-340	; 0x154
    36dc:	5152495f 	cmppl	r2, pc, asr r9
    36e0:	554e4700 	strbpl	r4, [lr, #-1792]	; 0x700
    36e4:	20534120 	subscs	r4, r3, r0, lsr #2
    36e8:	34322e32 	ldrtcc	r2, [r2], #-3634	; 0xe32
    36ec:	0100302e 	tsteq	r0, lr, lsr #32
    36f0:	00047480 	andeq	r7, r4, r0, lsl #9
    36f4:	a9000400 	stmdbge	r0, {sl}
    36f8:	0400000d 	streq	r0, [r0], #-13
    36fc:	0006ba01 	andeq	fp, r6, r1, lsl #20
    3700:	129b0100 	addsne	r0, fp, #0, 2
    3704:	057d0000 	ldrbeq	r0, [sp, #-0]!
    3708:	02780000 	rsbseq	r0, r8, #0
    370c:	00000000 	andeq	r0, r0, r0
    3710:	15cb0000 	strbne	r0, [fp]
    3714:	ae020000 	cdpge	0, 0, cr0, cr2, cr0, {0}
    3718:	02000001 	andeq	r0, r0, #1
    371c:	00003023 	andeq	r3, r0, r3, lsr #32
    3720:	08010300 	stmdaeq	r1, {r8, r9}
    3724:	0000044e 	andeq	r0, r0, lr, asr #8
    3728:	0007b902 	andeq	fp, r7, r2, lsl #18
    372c:	422a0200 	eormi	r0, sl, #0, 4
    3730:	03000000 	movweq	r0, #0
    3734:	04500601 	ldrbeq	r0, [r0], #-1537	; 0x601
    3738:	02030000 	andeq	r0, r3, #0
    373c:	0002dd07 	andeq	sp, r2, r7, lsl #26
    3740:	05020300 	streq	r0, [r2, #-768]	; 0x300
    3744:	000004a3 	andeq	r0, r0, r3, lsr #9
    3748:	0001dc02 	andeq	sp, r1, r2, lsl #24
    374c:	623f0200 	eorsvs	r0, pc, #0, 4
    3750:	03000000 	movweq	r0, #0
    3754:	00ca0704 	sbceq	r0, sl, r4, lsl #14
    3758:	04030000 	streq	r0, [r3], #-0
    375c:	00015405 	andeq	r5, r1, r5, lsl #8
    3760:	07080300 	streq	r0, [r8, -r0, lsl #6]
    3764:	000000c5 	andeq	r0, r0, r5, asr #1
    3768:	4f050803 	svcmi	0x00050803
    376c:	02000001 	andeq	r0, r0, #1
    3770:	000005fb 	strdeq	r0, [r0], -fp
    3774:	00372b03 	eorseq	r2, r7, r3, lsl #22
    3778:	b8020000 	stmdalt	r2, {}	; <UNPREDICTABLE>
    377c:	03000000 	movweq	r0, #0
    3780:	0000373a 	andeq	r3, r0, sl, lsr r7
    3784:	03390200 	teqeq	r9, #0, 4
    3788:	41030000 	mrsmi	r0, (UNDEF: 3)
    378c:	00000025 	andeq	r0, r0, r5, lsr #32
    3790:	00076d02 	andeq	r6, r7, r2, lsl #26
    3794:	7e290400 	cdpvc	4, 2, cr0, cr9, cr0, {0}
    3798:	02000000 	andeq	r0, r0, #0
    379c:	000005de 	ldrdeq	r0, [r0], -lr
    37a0:	00255104 	eoreq	r5, r5, r4, lsl #2
    37a4:	04040000 	streq	r0, [r4], #-0
    37a8:	000000bb 	strheq	r0, [r0], -fp
    37ac:	05010605 	streq	r0, [r1, #-1541]	; 0x605
    37b0:	00019725 	andeq	r9, r1, r5, lsr #14
    37b4:	135f0700 	cmpne	pc, #0, 14
    37b8:	07000000 	streq	r0, [r0, -r0]
    37bc:	000014db 	ldrdeq	r1, [r0], -fp
    37c0:	13690700 	cmnne	r9, #0, 14
    37c4:	07010000 	streq	r0, [r1, -r0]
    37c8:	000014e5 	andeq	r1, r0, r5, ror #9
    37cc:	13730701 	cmnne	r3, #262144	; 0x40000
    37d0:	07020000 	streq	r0, [r2, -r0]
    37d4:	000014ef 	andeq	r1, r0, pc, ror #9
    37d8:	137d0702 	cmnne	sp, #524288	; 0x80000
    37dc:	07030000 	streq	r0, [r3, -r0]
    37e0:	000014f9 	strdeq	r1, [r0], -r9
    37e4:	13870703 	orrne	r0, r7, #786432	; 0xc0000
    37e8:	07040000 	streq	r0, [r4, -r0]
    37ec:	000013d6 	ldrdeq	r1, [r0], -r6
    37f0:	13910704 	orrsne	r0, r1, #4, 14	; 0x100000
    37f4:	07050000 	streq	r0, [r5, -r0]
    37f8:	000013e0 	andeq	r1, r0, r0, ror #7
    37fc:	139b0705 	orrsne	r0, fp, #1310720	; 0x140000
    3800:	07060000 	streq	r0, [r6, -r0]
    3804:	000013ea 	andeq	r1, r0, sl, ror #7
    3808:	13a50706 			; <UNDEFINED> instruction: 0x13a50706
    380c:	07070000 	streq	r0, [r7, -r0]
    3810:	000013f4 	strdeq	r1, [r0], -r4
    3814:	13af0707 			; <UNDEFINED> instruction: 0x13af0707
    3818:	07080000 	streq	r0, [r8, -r0]
    381c:	000013fe 	strdeq	r1, [r0], -lr
    3820:	13b90708 			; <UNDEFINED> instruction: 0x13b90708
    3824:	07090000 	streq	r0, [r9, -r0]
    3828:	00001408 	andeq	r1, r0, r8, lsl #8
    382c:	133f0709 	teqne	pc, #2359296	; 0x240000
    3830:	07090000 	streq	r0, [r9, -r0]
    3834:	0000147f 	andeq	r1, r0, pc, ror r4
    3838:	1412070a 	ldrne	r0, [r2], #-1802	; 0x70a
    383c:	070a0000 	streq	r0, [sl, -r0]
    3840:	0000150e 	andeq	r1, r0, lr, lsl #10
    3844:	148a070a 	strne	r0, [sl], #1802	; 0x70a
    3848:	070b0000 	streq	r0, [fp, -r0]
    384c:	0000141c 	andeq	r1, r0, ip, lsl r4
    3850:	13c3070b 	bicne	r0, r3, #2883584	; 0x2c0000
    3854:	070b0000 	streq	r0, [fp, -r0]
    3858:	00001503 	andeq	r1, r0, r3, lsl #10
    385c:	134a070c 	movtne	r0, #42764	; 0xa70c
    3860:	070c0000 	streq	r0, [ip, -r0]
    3864:	00001495 	muleq	r0, r5, r4
    3868:	1518070d 	ldrne	r0, [r8, #-1805]	; 0x70d
    386c:	070d0000 	streq	r0, [sp, -r0]
    3870:	000014a0 	andeq	r1, r0, r0, lsr #9
    3874:	12f6070e 	rscsne	r0, r6, #3670016	; 0x380000
    3878:	070e0000 	streq	r0, [lr, -r0]
    387c:	000012eb 	andeq	r1, r0, fp, ror #5
    3880:	1300070f 	movwne	r0, #1807	; 0x70f
    3884:	000f0000 	andeq	r0, pc, r0
    3888:	00045c08 	andeq	r5, r4, r8, lsl #24
    388c:	4e054400 	cfcpysmi	mvf4, mvf5
    3890:	000001ba 			; <UNDEFINED> instruction: 0x000001ba
    3894:	05007209 	streq	r7, [r0, #-521]	; 0x209
    3898:	0001ba4f 	andeq	fp, r1, pc, asr #20
    389c:	70090000 	andvc	r0, r9, r0
    38a0:	05007273 	streq	r7, [r0, #-627]	; 0x273
    38a4:	00005750 	andeq	r5, r0, r0, asr r7
    38a8:	0a004000 	beq	138b0 <vectors_end+0x5230>
    38ac:	00000057 	andeq	r0, r0, r7, asr r0
    38b0:	000001ca 	andeq	r0, r0, sl, asr #3
    38b4:	0001ca0b 	andeq	ip, r1, fp, lsl #20
    38b8:	03000f00 	movweq	r0, #3840	; 0xf00
    38bc:	035e0704 	cmpeq	lr, #4, 14	; 0x100000
    38c0:	03020000 	movweq	r0, #8192	; 0x2000
    38c4:	05000011 	streq	r0, [r0, #-17]
    38c8:	00019756 	andeq	r9, r1, r6, asr r7
    38cc:	07990200 	ldreq	r0, [r9, r0, lsl #4]
    38d0:	5b050000 	blpl	1438d8 <__SP_usr_+0xe3e58>
    38d4:	00000057 	andeq	r0, r0, r7, asr r0
    38d8:	00036702 	andeq	r6, r3, r2, lsl #14
    38dc:	57600500 	strbpl	r0, [r0, -r0, lsl #10]!
    38e0:	08000000 	stmdaeq	r0, {}	; <UNPREDICTABLE>
    38e4:	00000499 	muleq	r0, r9, r4
    38e8:	17650508 	strbne	r0, [r5, -r8, lsl #10]!
    38ec:	0c000002 	stceq	0, cr0, [r0], {2}
    38f0:	000010d0 	ldrdeq	r1, [r0], -r0
    38f4:	02176605 	andseq	r6, r7, #5242880	; 0x500000
    38f8:	0c000000 	stceq	0, cr0, [r0], {-0}
    38fc:	0000036b 	andeq	r0, r0, fp, ror #6
    3900:	01e76705 	mvneq	r6, r5, lsl #14
    3904:	00040000 	andeq	r0, r4, r0
    3908:	01dc0404 	bicseq	r0, ip, r4, lsl #8
    390c:	65020000 	strvs	r0, [r2, #-0]
    3910:	05000006 	streq	r0, [r0, #-6]
    3914:	0001f26d 	andeq	pc, r1, sp, ror #4
    3918:	03a70200 			; <UNDEFINED> instruction: 0x03a70200
    391c:	26060000 	strcs	r0, [r6], -r0
    3920:	00000233 	andeq	r0, r0, r3, lsr r2
    3924:	01970404 	orrseq	r0, r7, r4, lsl #8
    3928:	06020000 	streq	r0, [r2], -r0
    392c:	07000003 	streq	r0, [r0, -r3]
    3930:	0000257e 	andeq	r2, r0, lr, ror r5
    3934:	043c0200 	ldrteq	r0, [ip], #-512	; 0x200
    3938:	88070000 	stmdahi	r7, {}	; <UNPREDICTABLE>
    393c:	000000b5 	strheq	r0, [r0], -r5
    3940:	9107030d 	tstls	r7, sp, lsl #6
    3944:	0000027c 	andeq	r0, r0, ip, ror r2
    3948:	0006540c 	andeq	r5, r6, ip, lsl #8
    394c:	7c930700 	ldcvc	7, cr0, [r3], {0}
    3950:	00000002 	andeq	r0, r0, r2
    3954:	0000870c 	andeq	r8, r0, ip, lsl #14
    3958:	89960700 	ldmibhi	r6, {r8, r9, sl}
    395c:	01000000 	mrseq	r0, (UNDEF: 0)
    3960:	0002050c 	andeq	r0, r2, ip, lsl #10
    3964:	aa9b0700 	bge	fe6c556c <__SP_usr_+0xfe665aec>
    3968:	02000000 	andeq	r0, r0, #0
    396c:	00890e00 	addeq	r0, r9, r0, lsl #28
    3970:	34020000 	strcc	r0, [r2], #-0
    3974:	07000006 	streq	r0, [r0, -r6]
    3978:	00024f9d 	muleq	r2, sp, pc	; <UNPREDICTABLE>
    397c:	00a80800 	adceq	r0, r8, r0, lsl #16
    3980:	07180000 	ldreq	r0, [r8, -r0]
    3984:	0002f8a6 	andeq	pc, r2, r6, lsr #17
    3988:	061e0c00 	ldreq	r0, [lr], -r0, lsl #24
    398c:	a8070000 	stmdage	r7, {}	; <UNPREDICTABLE>
    3990:	00000228 	andeq	r0, r0, r8, lsr #4
    3994:	13590c00 	cmpne	r9, #0, 24
    3998:	aa070000 	bge	1c39a0 <__SP_usr_+0x163f20>
    399c:	0000021d 	andeq	r0, r0, sp, lsl r2
    39a0:	05300c04 	ldreq	r0, [r0, #-3076]!	; 0xc04
    39a4:	ac070000 	stcge	0, cr0, [r7], {-0}
    39a8:	000002f8 	strdeq	r0, [r0], -r8
    39ac:	00ef0c0c 	rsceq	r0, pc, ip, lsl #24
    39b0:	af070000 	svcge	0x00070000
    39b4:	000002fd 	strdeq	r0, [r0], -sp
    39b8:	64690910 	strbtvs	r0, [r9], #-2320	; 0x910
    39bc:	08b20700 	ldmeq	r2!, {r8, r9, sl}
    39c0:	14000003 	strne	r0, [r0], #-3
    39c4:	0000680c 	andeq	r6, r0, ip, lsl #16
    39c8:	7cbd0700 	ldcvc	7, cr0, [sp]
    39cc:	15000002 	strne	r0, [r0, #-2]
    39d0:	0002700c 	andeq	r7, r2, ip
    39d4:	0dbf0700 	ldceq	7, cr0, [pc]	; 39dc <unused+0x39d8>
    39d8:	16000003 	strne	r0, [r0], -r3
    39dc:	00030f0c 	andeq	r0, r3, ip, lsl #30
    39e0:	12c10700 	sbcne	r0, r1, #0, 14
    39e4:	17000003 	strne	r0, [r0, -r3]
    39e8:	02440e00 	subeq	r0, r4, #0, 28
    39ec:	020e0000 	andeq	r0, lr, #0
    39f0:	04000003 	streq	r0, [r0], #-3
    39f4:	00028104 	andeq	r8, r2, r4, lsl #2
    39f8:	009f0e00 	addseq	r0, pc, r0, lsl #28
    39fc:	940e0000 	strls	r0, [lr], #-0
    3a00:	0e000000 	cdpeq	0, 0, cr0, cr0, cr0, {0}
    3a04:	00000239 	andeq	r0, r0, r9, lsr r2
    3a08:	00024902 	andeq	r4, r2, r2, lsl #18
    3a0c:	8cd50700 	ldclhi	7, cr0, [r5], {0}
    3a10:	04000002 	streq	r0, [r0], #-2
    3a14:	00032804 	andeq	r2, r3, r4, lsl #16
    3a18:	03170e00 	tsteq	r7, #0, 28
    3a1c:	ab0f0000 	blge	3c3a24 <__SP_usr_+0x363fa4>
    3a20:	01000014 	tsteq	r0, r4, lsl r0
    3a24:	00c28049 	sbceq	r8, r2, r9, asr #32
    3a28:	00002400 	andeq	r2, r0, r0, lsl #8
    3a2c:	109c0100 	addsne	r0, ip, r0, lsl #2
    3a30:	00001331 	andeq	r1, r0, r1, lsr r3
    3a34:	882c5401 	stmdahi	ip!, {r0, sl, ip, lr}
    3a38:	00100000 	andseq	r0, r0, r0
    3a3c:	9c010000 	stcls	0, cr0, [r1], {-0}
    3a40:	0014260f 	andseq	r2, r4, pc, lsl #12
    3a44:	a4700100 	ldrbtge	r0, [r0], #-256	; 0x100
    3a48:	140000c2 	strne	r0, [r0], #-194	; 0xc2
    3a4c:	01000000 	mrseq	r0, (UNDEF: 0)
    3a50:	130a0f9c 	movwne	r0, #44956	; 0xaf9c
    3a54:	74010000 	strvc	r0, [r1], #-0
    3a58:	0000c2b8 			; <UNDEFINED> instruction: 0x0000c2b8
    3a5c:	00000014 	andeq	r0, r0, r4, lsl r0
    3a60:	690f9c01 	stmdbvs	pc, {r0, sl, fp, ip, pc}	; <UNPREDICTABLE>
    3a64:	01000014 	tsteq	r0, r4, lsl r0
    3a68:	00c2cc7b 	sbceq	ip, r2, fp, ror ip
    3a6c:	00002000 	andeq	r2, r0, r0
    3a70:	0f9c0100 	svceq	0x009c0100
    3a74:	000014c4 	andeq	r1, r0, r4, asr #9
    3a78:	c2ec8b01 	rscgt	r8, ip, #1024	; 0x400
    3a7c:	002c0000 	eoreq	r0, ip, r0
    3a80:	9c010000 	stcls	0, cr0, [r1], {-0}
    3a84:	00132011 	andseq	r2, r3, r1, lsl r0
    3a88:	189f0100 	ldmne	pc, {r8}	; <UNPREDICTABLE>
    3a8c:	ac0000c3 	stcge	0, cr0, [r0], {195}	; 0xc3
    3a90:	01000000 	mrseq	r0, (UNDEF: 0)
    3a94:	0003d39c 	muleq	r3, ip, r3
    3a98:	05ff1200 	ldrbeq	r1, [pc, #512]!	; 3ca0 <unused+0x3c9c>
    3a9c:	a0010000 	andge	r0, r1, r0
    3aa0:	000003d3 	ldrdeq	r0, [r0], -r3
    3aa4:	136f9102 	cmnne	pc, #-2147483648	; 0x80000000
    3aa8:	00001522 	andeq	r1, r0, r2, lsr #10
    3aac:	0233a201 	eorseq	sl, r3, #268435456	; 0x10000000
    3ab0:	91020000 	mrsls	r0, (UNDEF: 2)
    3ab4:	13cd1370 	bicne	r1, sp, #112, 6	; 0xc0000001
    3ab8:	a3010000 	movwge	r0, #4096	; 0x1000
    3abc:	00000322 	andeq	r0, r0, r2, lsr #6
    3ac0:	00749102 	rsbseq	r9, r4, r2, lsl #2
    3ac4:	00007e0e 	andeq	r7, r0, lr, lsl #28
    3ac8:	12d11400 	sbcsne	r1, r1, #0, 8
    3acc:	c0010000 	andgt	r0, r1, r0
    3ad0:	00000025 	andeq	r0, r0, r5, lsr #32
    3ad4:	0000c3c4 	andeq	ip, r0, r4, asr #7
    3ad8:	00000030 	andeq	r0, r0, r0, lsr r0
    3adc:	040e9c01 	streq	r9, [lr], #-3073	; 0xc01
    3ae0:	ff120000 			; <UNDEFINED> instruction: 0xff120000
    3ae4:	01000005 	tsteq	r0, r5
    3ae8:	0003d3c1 	andeq	sp, r3, r1, asr #7
    3aec:	6f910200 	svcvs	0x00910200
    3af0:	706d7415 	rsbvc	r7, sp, r5, lsl r4
    3af4:	25c30100 	strbcs	r0, [r3, #256]	; 0x100
    3af8:	02000000 	andeq	r0, r0, #0
    3afc:	16007791 			; <UNDEFINED> instruction: 0x16007791
    3b00:	00001438 	andeq	r1, r0, r8, lsr r4
    3b04:	01d12f01 	bicseq	r2, r1, r1, lsl #30
    3b08:	03050000 	movweq	r0, #20480	; 0x5000
    3b0c:	0000966c 	andeq	r9, r0, ip, ror #12
    3b10:	0001dc0a 	andeq	sp, r1, sl, lsl #24
    3b14:	00042f00 	andeq	r2, r4, r0, lsl #30
    3b18:	01ca0b00 	biceq	r0, sl, r0, lsl #22
    3b1c:	00310000 	eorseq	r0, r1, r0
    3b20:	00135416 	andseq	r5, r3, r6, lsl r4
    3b24:	1f2a0100 	svcne	0x002a0100
    3b28:	05000004 	streq	r0, [r0, #-4]
    3b2c:	0095a403 	addseq	sl, r5, r3, lsl #8
    3b30:	03220a00 			; <UNDEFINED> instruction: 0x03220a00
    3b34:	04500000 	ldrbeq	r0, [r0], #-0
    3b38:	ca0b0000 	bgt	2c3b40 <__SP_usr_+0x2640c0>
    3b3c:	01000001 	tsteq	r0, r1
    3b40:	00541700 	subseq	r1, r4, r0, lsl #14
    3b44:	ee070000 	cdp	0, 0, cr0, cr7, cr0, {0}
    3b48:	00045c01 	andeq	r5, r4, r1, lsl #24
    3b4c:	04400e00 	strbeq	r0, [r0], #-3584	; 0xe00
    3b50:	4a160000 	bmi	583b58 <__SP_usr_+0x5240d8>
    3b54:	01000014 	tsteq	r0, r4, lsl r0
    3b58:	00047234 	andeq	r7, r4, r4, lsr r2
    3b5c:	b0030500 	andlt	r0, r3, r0, lsl #10
    3b60:	18000096 	stmdane	r0, {r1, r2, r4, r7}
    3b64:	00000057 	andeq	r0, r0, r7, asr r0
    3b68:	0000ad00 	andeq	sl, r0, r0, lsl #26
    3b6c:	0a000400 	beq	4b74 <unused+0x4b70>
    3b70:	0400000f 	streq	r0, [r0], #-15
    3b74:	0006ba01 	andeq	fp, r6, r1, lsl #20
    3b78:	153d0100 	ldrne	r0, [sp, #-256]!	; 0x100
    3b7c:	057d0000 	ldrbeq	r0, [sp, #-0]!
    3b80:	883c0000 	ldmdahi	ip!, {}	; <UNPREDICTABLE>
    3b84:	004c0000 	subeq	r0, ip, r0
    3b88:	17140000 	ldrne	r0, [r4, -r0]
    3b8c:	01020000 	mrseq	r0, (UNDEF: 2)
    3b90:	00044e08 	andeq	r4, r4, r8, lsl #28
    3b94:	06010200 	streq	r0, [r1], -r0, lsl #4
    3b98:	00000450 	andeq	r0, r0, r0, asr r4
    3b9c:	dd070202 	sfmle	f0, 4, [r7, #-8]
    3ba0:	02000002 	andeq	r0, r0, #2
    3ba4:	04a30502 	strteq	r0, [r3], #1282	; 0x502
    3ba8:	dc030000 	stcle	0, cr0, [r3], {-0}
    3bac:	02000001 	andeq	r0, r0, #1
    3bb0:	00004c3f 	andeq	r4, r0, pc, lsr ip
    3bb4:	07040200 	streq	r0, [r4, -r0, lsl #4]
    3bb8:	000000ca 	andeq	r0, r0, sl, asr #1
    3bbc:	54050402 	strpl	r0, [r5], #-1026	; 0x402
    3bc0:	02000001 	andeq	r0, r0, #1
    3bc4:	00c50708 	sbceq	r0, r5, r8, lsl #14
    3bc8:	08020000 	stmdaeq	r2, {}	; <UNPREDICTABLE>
    3bcc:	00014f05 	andeq	r4, r1, r5, lsl #30
    3bd0:	07040200 	streq	r0, [r4, -r0, lsl #4]
    3bd4:	0000035e 	andeq	r0, r0, lr, asr r3
    3bd8:	69050404 	stmdbvs	r5, {r2, sl}
    3bdc:	0200746e 	andeq	r7, r0, #1845493760	; 0x6e000000
    3be0:	00cf0704 	sbceq	r0, pc, r4, lsl #14
    3be4:	2f050000 	svccs	0x00050000
    3be8:	01000015 	tsteq	r0, r5, lsl r0
    3bec:	00883c04 	addeq	r3, r8, r4, lsl #24
    3bf0:	00004c00 	andeq	r4, r0, r0, lsl #24
    3bf4:	ab9c0100 	blge	fe703ffc <__SP_usr_+0xfe6a457c>
    3bf8:	06000000 	streq	r0, [r0], -r0
    3bfc:	0401006e 	streq	r0, [r1], #-110	; 0x6e
    3c00:	00000041 	andeq	r0, r0, r1, asr #32
    3c04:	076c9102 	strbeq	r9, [ip, -r2, lsl #2]!
    3c08:	06010069 	streq	r0, [r1], -r9, rrx
    3c0c:	000000ab 	andeq	r0, r0, fp, lsr #1
    3c10:	00749102 	rsbseq	r9, r4, r2, lsl #2
    3c14:	00004108 	andeq	r4, r0, r8, lsl #2
    3c18:	00c70000 	sbceq	r0, r7, r0
    3c1c:	00020000 	andeq	r0, r2, r0
    3c20:	00000f80 	andeq	r0, r0, r0, lsl #31
    3c24:	17cb0104 	strbne	r0, [fp, r4, lsl #2]
    3c28:	c3f40000 	mvnsgt	r0, #0
    3c2c:	c3f80000 	mvnsgt	r0, #0
    3c30:	2e2e0000 	cdpcs	0, 2, cr0, cr14, cr0, {0}
    3c34:	2f2e2e2f 	svccs	0x002e2e2f
    3c38:	2e2f2e2e 	cdpcs	14, 2, cr2, cr15, cr14, {1}
    3c3c:	2e2e2f2e 	cdpcs	15, 2, cr2, cr14, cr14, {1}
    3c40:	2f2e2e2f 	svccs	0x002e2e2f
    3c44:	6863616d 	stmdavs	r3!, {r0, r2, r3, r5, r6, r8, sp, lr}^
    3c48:	73656e69 	cmnvc	r5, #1680	; 0x690
    3c4c:	726f632f 	rsbvc	r6, pc, #-1140850688	; 0xbc000000
    3c50:	2d786574 	cfldr64cs	mvdx6, [r8, #-464]!	; 0xfffffe30
    3c54:	72612f61 	rsbvc	r2, r1, #388	; 0x184
    3c58:	2f37766d 	svccs	0x0037766d
    3c5c:	326d6362 	rsbcc	r6, sp, #-2013265919	; 0x88000001
    3c60:	2f363338 	svccs	0x00363338
    3c64:	32697072 	rsbcc	r7, r9, #114	; 0x72
    3c68:	6970722f 	ldmdbvs	r0!, {r0, r1, r2, r3, r5, r9, ip, sp, lr}^
    3c6c:	70745f32 	rsbsvc	r5, r4, r2, lsr pc
    3c70:	6c735f6c 	ldclvs	15, cr5, [r3], #-432	; 0xfffffe50
    3c74:	2e706565 	cdpcs	5, 7, cr6, cr0, cr5, {3}
    3c78:	552f0053 	strpl	r0, [pc, #-83]!	; 3c2d <unused+0x3c29>
    3c7c:	73726573 	cmnvc	r2, #482344960	; 0x1cc00000
    3c80:	7661442f 	strbtvc	r4, [r1], -pc, lsr #8
    3c84:	61476469 	cmpvs	r7, r9, ror #8
    3c88:	6f697272 	svcvs	0x00697272
    3c8c:	69472f75 	stmdbvs	r7, {r0, r2, r4, r5, r6, r8, r9, sl, fp, sp}^
    3c90:	62754874 	rsbsvs	r4, r5, #116, 16	; 0x740000
    3c94:	6172742f 	cmnvs	r2, pc, lsr #8
    3c98:	6c6f706d 	stclvs	0, cr7, [pc], #-436	; 3aec <unused+0x3ae8>
    3c9c:	2f656e69 	svccs	0x00656e69
    3ca0:	6d617865 	stclvs	8, cr7, [r1, #-404]!	; 0xfffffe6c
    3ca4:	73656c70 	cmnvc	r5, #112, 24	; 0x7000
    3ca8:	726f632f 	rsbvc	r6, pc, #-1140850688	; 0xbc000000
    3cac:	2d786574 	cfldr64cs	mvdx6, [r8, #-464]!	; 0xfffffe30
    3cb0:	72612f61 	rsbvc	r2, r1, #388	; 0x184
    3cb4:	2f37766d 	svccs	0x0037766d
    3cb8:	326d6362 	rsbcc	r6, sp, #-2013265919	; 0x88000001
    3cbc:	2f363338 	svccs	0x00363338
    3cc0:	32697072 	rsbcc	r7, r9, #114	; 0x72
    3cc4:	696c622f 	stmdbvs	ip!, {r0, r1, r2, r3, r5, r9, sp, lr}^
    3cc8:	535f6b6e 	cmppl	pc, #112640	; 0x1b800
    3ccc:	54524154 	ldrbpl	r4, [r2], #-340	; 0x154
    3cd0:	5152495f 	cmppl	r2, pc, asr r9
    3cd4:	554e4700 	strbpl	r4, [lr, #-1792]	; 0x700
    3cd8:	20534120 	subscs	r4, r3, r0, lsr #2
    3cdc:	34322e32 	ldrtcc	r2, [r2], #-3634	; 0xe32
    3ce0:	0100302e 	tsteq	r0, lr, lsr #32
    3ce4:	0000ce80 	andeq	ip, r0, r0, lsl #29
    3ce8:	94000200 	strls	r0, [r0], #-512	; 0x200
    3cec:	0400000f 	streq	r0, [r0], #-15
    3cf0:	00184201 	andseq	r4, r8, r1, lsl #4
    3cf4:	00800000 	addeq	r0, r0, r0
    3cf8:	0083b400 	addeq	fp, r3, r0, lsl #8
    3cfc:	2f2e2e00 	svccs	0x002e2e00
    3d00:	2e2f2e2e 	cdpcs	14, 2, cr2, cr15, cr14, {1}
    3d04:	2e2e2f2e 	cdpcs	15, 2, cr2, cr14, cr14, {1}
    3d08:	2f2e2e2f 	svccs	0x002e2e2f
    3d0c:	6d2f2e2e 	stcvs	14, cr2, [pc, #-184]!	; 3c5c <unused+0x3c58>
    3d10:	69686361 	stmdbvs	r8!, {r0, r5, r6, r8, r9, sp, lr}^
    3d14:	2f73656e 	svccs	0x0073656e
    3d18:	74726f63 	ldrbtvc	r6, [r2], #-3939	; 0xf63
    3d1c:	612d7865 			; <UNDEFINED> instruction: 0x612d7865
    3d20:	6d72612f 	ldfvse	f6, [r2, #-188]!	; 0xffffff44
    3d24:	622f3776 	eorvs	r3, pc, #30932992	; 0x1d80000
    3d28:	38326d63 	ldmdacc	r2!, {r0, r1, r5, r6, r8, sl, fp, sp, lr}
    3d2c:	722f3633 	eorvc	r3, pc, #53477376	; 0x3300000
    3d30:	2f326970 	svccs	0x00326970
    3d34:	32697072 	rsbcc	r7, r9, #114	; 0x72
    3d38:	6f6f625f 	svcvs	0x006f625f
    3d3c:	72747374 	rsbsvc	r7, r4, #116, 6	; 0xd0000001
    3d40:	735f7061 	cmpvc	pc, #97	; 0x61
    3d44:	65676174 	strbvs	r6, [r7, #-372]!	; 0x174
    3d48:	00532e31 	subseq	r2, r3, r1, lsr lr
    3d4c:	6573552f 	ldrbvs	r5, [r3, #-1327]!	; 0x52f
    3d50:	442f7372 	strtmi	r7, [pc], #-882	; 3d58 <unused+0x3d54>
    3d54:	64697661 	strbtvs	r7, [r9], #-1633	; 0x661
    3d58:	72726147 	rsbsvc	r6, r2, #-1073741807	; 0xc0000011
    3d5c:	2f756f69 	svccs	0x00756f69
    3d60:	48746947 	ldmdami	r4!, {r0, r1, r2, r6, r8, fp, sp, lr}^
    3d64:	742f6275 	strtvc	r6, [pc], #-629	; 3d6c <unused+0x3d68>
    3d68:	706d6172 	rsbvc	r6, sp, r2, ror r1
    3d6c:	6e696c6f 	cdpvs	12, 6, cr6, cr9, cr15, {3}
    3d70:	78652f65 	stmdavc	r5!, {r0, r2, r5, r6, r8, r9, sl, fp, sp}^
    3d74:	6c706d61 	ldclvs	13, cr6, [r0], #-388	; 0xfffffe7c
    3d78:	632f7365 			; <UNDEFINED> instruction: 0x632f7365
    3d7c:	6574726f 	ldrbvs	r7, [r4, #-623]!	; 0x26f
    3d80:	2f612d78 	svccs	0x00612d78
    3d84:	766d7261 	strbtvc	r7, [sp], -r1, ror #4
    3d88:	63622f37 	cmnvs	r2, #55, 30	; 0xdc
    3d8c:	3338326d 	teqcc	r8, #-805306362	; 0xd0000006
    3d90:	70722f36 	rsbsvc	r2, r2, r6, lsr pc
    3d94:	622f3269 	eorvs	r3, pc, #-1879048186	; 0x90000006
    3d98:	6b6e696c 	blvs	1b9e350 <__SP_usr_+0x1b3e8d0>
    3d9c:	4154535f 	cmpmi	r4, pc, asr r3
    3da0:	495f5452 	ldmdbmi	pc, {r1, r4, r6, sl, ip, lr}^	; <UNPREDICTABLE>
    3da4:	47005152 	smlsdmi	r0, r2, r1, r5
    3da8:	4120554e 			; <UNDEFINED> instruction: 0x4120554e
    3dac:	2e322053 	mrccs	0, 1, r2, cr2, cr3, {2}
    3db0:	302e3432 	eorcc	r3, lr, r2, lsr r4
    3db4:	80800100 	addhi	r0, r0, r0, lsl #2
    3db8:	04000000 	streq	r0, [r0], #-0
    3dbc:	000fa800 	andeq	sl, pc, r0, lsl #16
    3dc0:	ba010400 	blt	44dc8 <vectors_end+0x36748>
    3dc4:	01000006 	tsteq	r0, r6
    3dc8:	00001599 	muleq	r0, r9, r5
    3dcc:	0000057d 	andeq	r0, r0, sp, ror r5
    3dd0:	00008888 	andeq	r8, r0, r8, lsl #17
    3dd4:	00000010 	andeq	r0, r0, r0, lsl r0
    3dd8:	000019bd 			; <UNDEFINED> instruction: 0x000019bd
    3ddc:	4e080102 	adfmie	f0, f0, f2
    3de0:	02000004 	andeq	r0, r0, #4
    3de4:	04500601 	ldrbeq	r0, [r0], #-1537	; 0x601
    3de8:	02020000 	andeq	r0, r2, #0
    3dec:	0002dd07 	andeq	sp, r2, r7, lsl #26
    3df0:	05020200 	streq	r0, [r2, #-512]	; 0x200
    3df4:	000004a3 	andeq	r0, r0, r3, lsr #9
    3df8:	ca070402 	bgt	1c4e08 <__SP_usr_+0x165388>
    3dfc:	02000000 	andeq	r0, r0, #0
    3e00:	01540504 	cmpeq	r4, r4, lsl #10
    3e04:	08020000 	stmdaeq	r2, {}	; <UNPREDICTABLE>
    3e08:	0000c507 	andeq	ip, r0, r7, lsl #10
    3e0c:	05080200 	streq	r0, [r8, #-512]	; 0x200
    3e10:	0000014f 	andeq	r0, r0, pc, asr #2
    3e14:	5e070402 	cdppl	4, 0, cr0, cr7, cr2, {0}
    3e18:	03000003 	movweq	r0, #3
    3e1c:	6e690504 	cdpvs	5, 6, cr0, cr9, cr4, {0}
    3e20:	04020074 	streq	r0, [r2], #-116	; 0x74
    3e24:	0000cf07 	andeq	ip, r0, r7, lsl #30
    3e28:	157e0400 	ldrbne	r0, [lr, #-1024]!	; 0x400
    3e2c:	27010000 	strcs	r0, [r1, -r0]
    3e30:	00008888 	andeq	r8, r0, r8, lsl #17
    3e34:	00000010 	andeq	r0, r0, r0, lsl r0
    3e38:	83009c01 	movwhi	r9, #3073	; 0xc01
    3e3c:	04000000 	streq	r0, [r0], #-0
    3e40:	000fe800 	andeq	lr, pc, r0, lsl #16
    3e44:	ba010400 	blt	44e4c <vectors_end+0x367cc>
    3e48:	01000006 	tsteq	r0, r6
    3e4c:	000015f5 	strdeq	r1, [r0], -r5
    3e50:	0000057d 	andeq	r0, r0, sp, ror r5
    3e54:	000002c0 	andeq	r0, r0, r0, asr #5
    3e58:	00000000 	andeq	r0, r0, r0
    3e5c:	00001a43 	andeq	r1, r0, r3, asr #20
    3e60:	4e080102 	adfmie	f0, f0, f2
    3e64:	02000004 	andeq	r0, r0, #4
    3e68:	04500601 	ldrbeq	r0, [r0], #-1537	; 0x601
    3e6c:	02020000 	andeq	r0, r2, #0
    3e70:	0002dd07 	andeq	sp, r2, r7, lsl #26
    3e74:	05020200 	streq	r0, [r2, #-512]	; 0x200
    3e78:	000004a3 	andeq	r0, r0, r3, lsr #9
    3e7c:	ca070402 	bgt	1c4e8c <__SP_usr_+0x16540c>
    3e80:	02000000 	andeq	r0, r0, #0
    3e84:	01540504 	cmpeq	r4, r4, lsl #10
    3e88:	08020000 	stmdaeq	r2, {}	; <UNPREDICTABLE>
    3e8c:	0000c507 	andeq	ip, r0, r7, lsl #10
    3e90:	05080200 	streq	r0, [r8, #-512]	; 0x200
    3e94:	0000014f 	andeq	r0, r0, pc, asr #2
    3e98:	5e070402 	cdppl	4, 0, cr0, cr7, cr2, {0}
    3e9c:	03000003 	movweq	r0, #3
    3ea0:	0000163d 	andeq	r1, r0, sp, lsr r6
    3ea4:	c3f82901 	mvnsgt	r2, #16384	; 0x4000
    3ea8:	00300000 	eorseq	r0, r0, r0
    3eac:	9c010000 	stcls	0, cr0, [r1], {-0}
    3eb0:	0015e804 	andseq	lr, r5, r4, lsl #16
    3eb4:	28330100 	ldmdacs	r3!, {r8}
    3eb8:	240000c4 	strcs	r0, [r0], #-196	; 0xc4
    3ebc:	01000000 	mrseq	r0, (UNDEF: 0)
    3ec0:	012b009c 			; <UNDEFINED> instruction: 0x012b009c
    3ec4:	00040000 	andeq	r0, r4, r0
    3ec8:	00001037 	andeq	r1, r0, r7, lsr r0
    3ecc:	06ba0104 	ldrteq	r0, [sl], r4, lsl #2
    3ed0:	8e010000 	cdphi	0, 0, cr0, cr1, cr0, {0}
    3ed4:	7d000016 	stcvc	0, cr0, [r0, #-88]	; 0xffffffa8
    3ed8:	98000005 	stmdals	r0, {r0, r2}
    3edc:	68000088 	stmdavs	r0, {r3, r7}
    3ee0:	c7000000 	strgt	r0, [r0, -r0]
    3ee4:	0200001a 	andeq	r0, r0, #26
    3ee8:	044e0801 	strbeq	r0, [lr], #-2049	; 0x801
    3eec:	01020000 	mrseq	r0, (UNDEF: 2)
    3ef0:	00045006 	andeq	r5, r4, r6
    3ef4:	07020200 	streq	r0, [r2, -r0, lsl #4]
    3ef8:	000002dd 	ldrdeq	r0, [r0], -sp
    3efc:	a3050202 	movwge	r0, #20994	; 0x5202
    3f00:	03000004 	movweq	r0, #4
    3f04:	000001dc 	ldrdeq	r0, [r0], -ip
    3f08:	004c3f02 	subeq	r3, ip, r2, lsl #30
    3f0c:	04020000 	streq	r0, [r2], #-0
    3f10:	0000ca07 	andeq	ip, r0, r7, lsl #20
    3f14:	05040200 	streq	r0, [r4, #-512]	; 0x200
    3f18:	00000154 	andeq	r0, r0, r4, asr r1
    3f1c:	c5070802 	strgt	r0, [r7, #-2050]	; 0x802
    3f20:	02000000 	andeq	r0, r0, #0
    3f24:	014f0508 	cmpeq	pc, r8, lsl #10
    3f28:	04020000 	streq	r0, [r2], #-0
    3f2c:	00035e07 	andeq	r5, r3, r7, lsl #28
    3f30:	11920300 	orrsne	r0, r2, r0, lsl #6
    3f34:	2a030000 	bcs	c3f3c <__SP_usr_+0x644bc>
    3f38:	0000007a 	andeq	r0, r0, sl, ror r0
    3f3c:	00800404 	addeq	r0, r0, r4, lsl #8
    3f40:	8b050000 	blhi	143f48 <__SP_usr_+0xe44c8>
    3f44:	06000000 	streq	r0, [r0], -r0
    3f48:	0000008b 	andeq	r0, r0, fp, lsl #1
    3f4c:	91040400 	tstls	r4, r0, lsl #8
    3f50:	07000000 	streq	r0, [r0, -r0]
    3f54:	00116308 	andseq	r6, r1, r8, lsl #6
    3f58:	31030800 	tstcc	r3, r0, lsl #16
    3f5c:	000000b7 	strheq	r0, [r0], -r7
    3f60:	00052409 	andeq	r2, r5, r9, lsl #8
    3f64:	b7320300 	ldrlt	r0, [r2, -r0, lsl #6]!
    3f68:	00000000 	andeq	r0, r0, r0
    3f6c:	00121a09 	andseq	r1, r2, r9, lsl #20
    3f70:	bc360300 	ldclt	3, cr0, [r6], #-0
    3f74:	04000000 	streq	r0, [r0], #-0
    3f78:	006f0a00 	rsbeq	r0, pc, r0, lsl #20
    3f7c:	040b0000 	streq	r0, [fp], #-0
    3f80:	0010ef03 	andseq	lr, r0, r3, lsl #30
    3f84:	92420300 	subls	r0, r2, #0, 6
    3f88:	0c000000 	stceq	0, cr0, [r0], {-0}
    3f8c:	00001667 	andeq	r1, r0, r7, ror #12
    3f90:	88982301 	ldmhi	r8, {r0, r8, r9, sp}
    3f94:	00680000 	rsbeq	r0, r8, r0
    3f98:	9c010000 	stcls	0, cr0, [r1], {-0}
    3f9c:	00000109 	andeq	r0, r0, r9, lsl #2
    3fa0:	0016830d 	andseq	r8, r6, sp, lsl #6
    3fa4:	41250100 			; <UNDEFINED> instruction: 0x41250100
    3fa8:	02000000 	andeq	r0, r0, #0
    3fac:	590d7491 	stmdbpl	sp, {r0, r4, r7, sl, ip, sp, lr}
    3fb0:	01000016 	tsteq	r0, r6, lsl r0
    3fb4:	00010926 	andeq	r0, r1, r6, lsr #18
    3fb8:	6c910200 	lfmvs	f0, 4, [r1], {0}
    3fbc:	00164e0d 	andseq	r4, r6, sp, lsl #28
    3fc0:	6f280100 	svcvs	0x00280100
    3fc4:	02000000 	andeq	r0, r0, #0
    3fc8:	0e007091 	mcreq	0, 0, r7, cr0, cr1, {4}
    3fcc:	00000041 	andeq	r0, r0, r1, asr #32
    3fd0:	0000be0f 	andeq	fp, r0, pc, lsl #28
    3fd4:	00011e00 	andeq	r1, r1, r0, lsl #28
    3fd8:	00681000 	rsbeq	r1, r8, r0
    3fdc:	001e0000 	andseq	r0, lr, r0
    3fe0:	0010a511 	andseq	sl, r0, r1, lsl r5
    3fe4:	29210100 	stmdbcs	r1!, {r8}
    3fe8:	0a000001 	beq	3ff4 <unused+0x3ff0>
    3fec:	0000010e 	andeq	r0, r0, lr, lsl #2
    3ff0:	0000cd00 	andeq	ip, r0, r0, lsl #26
    3ff4:	fe000200 	cdp2	2, 0, cr0, cr0, cr0, {0}
    3ff8:	04000010 	streq	r0, [r0], #-16
    3ffc:	001bad01 	andseq	sl, fp, r1, lsl #26
    4000:	00c44c00 	sbceq	r4, r4, r0, lsl #24
    4004:	00c5cc00 	sbceq	ip, r5, r0, lsl #24
    4008:	2f2e2e00 	svccs	0x002e2e00
    400c:	2e2f2e2e 	cdpcs	14, 2, cr2, cr15, cr14, {1}
    4010:	2e2e2f2e 	cdpcs	15, 2, cr2, cr14, cr14, {1}
    4014:	2f2e2e2f 	svccs	0x002e2e2f
    4018:	6d2f2e2e 	stcvs	14, cr2, [pc, #-184]!	; 3f68 <unused+0x3f64>
    401c:	69686361 	stmdbvs	r8!, {r0, r5, r6, r8, r9, sp, lr}^
    4020:	2f73656e 	svccs	0x0073656e
    4024:	74726f63 	ldrbtvc	r6, [r2], #-3939	; 0xf63
    4028:	612d7865 			; <UNDEFINED> instruction: 0x612d7865
    402c:	6d72612f 	ldfvse	f6, [r2, #-188]!	; 0xffffff44
    4030:	622f3776 	eorvs	r3, pc, #30932992	; 0x1d80000
    4034:	38326d63 	ldmdacc	r2!, {r0, r1, r5, r6, r8, sl, fp, sp, lr}
    4038:	722f3633 	eorvc	r3, pc, #53477376	; 0x3300000
    403c:	2f326970 	svccs	0x00326970
    4040:	32697072 	rsbcc	r7, r9, #114	; 0x72
    4044:	6378655f 	cmnvs	r8, #398458880	; 0x17c00000
    4048:	69747065 	ldmdbvs	r4!, {r0, r2, r5, r6, ip, sp, lr}^
    404c:	635f6e6f 	cmpvs	pc, #1776	; 0x6f0
    4050:	68637461 	stmdavs	r3!, {r0, r5, r6, sl, ip, sp, lr}^
    4054:	2f00532e 	svccs	0x0000532e
    4058:	72657355 	rsbvc	r7, r5, #1409286145	; 0x54000001
    405c:	61442f73 	hvcvs	17139	; 0x42f3
    4060:	47646976 			; <UNDEFINED> instruction: 0x47646976
    4064:	69727261 	ldmdbvs	r2!, {r0, r5, r6, r9, ip, sp, lr}^
    4068:	472f756f 	strmi	r7, [pc, -pc, ror #10]!
    406c:	75487469 	strbvc	r7, [r8, #-1129]	; 0x469
    4070:	72742f62 	rsbsvc	r2, r4, #392	; 0x188
    4074:	6f706d61 	svcvs	0x00706d61
    4078:	656e696c 	strbvs	r6, [lr, #-2412]!	; 0x96c
    407c:	6178652f 	cmnvs	r8, pc, lsr #10
    4080:	656c706d 	strbvs	r7, [ip, #-109]!	; 0x6d
    4084:	6f632f73 	svcvs	0x00632f73
    4088:	78657472 	stmdavc	r5!, {r1, r4, r5, r6, sl, ip, sp, lr}^
    408c:	612f612d 			; <UNDEFINED> instruction: 0x612f612d
    4090:	37766d72 			; <UNDEFINED> instruction: 0x37766d72
    4094:	6d63622f 	sfmvs	f6, 2, [r3, #-188]!	; 0xffffff44
    4098:	36333832 			; <UNDEFINED> instruction: 0x36333832
    409c:	6970722f 	ldmdbvs	r0!, {r0, r1, r2, r3, r5, r9, ip, sp, lr}^
    40a0:	6c622f32 	stclvs	15, cr2, [r2], #-200	; 0xffffff38
    40a4:	5f6b6e69 	svcpl	0x006b6e69
    40a8:	52415453 	subpl	r5, r1, #1392508928	; 0x53000000
    40ac:	52495f54 	subpl	r5, r9, #84, 30	; 0x150
    40b0:	4e470051 	mcrmi	0, 2, r0, cr7, cr1, {2}
    40b4:	53412055 	movtpl	r2, #4181	; 0x1055
    40b8:	322e3220 	eorcc	r3, lr, #32, 4
    40bc:	00302e34 	eorseq	r2, r0, r4, lsr lr
    40c0:	01fb8001 	mvnseq	r8, r1
    40c4:	00040000 	andeq	r0, r4, r0
    40c8:	00001112 	andeq	r1, r0, r2, lsl r1
    40cc:	06ba0104 	ldrteq	r0, [sl], r4, lsl #2
    40d0:	f1010000 	setend	le
    40d4:	7d000016 	stcvc	0, cr0, [r0, #-88]	; 0xffffffa8
    40d8:	00000005 	andeq	r0, r0, r5
    40dc:	34000089 	strcc	r0, [r0], #-137	; 0x89
    40e0:	42000003 	andmi	r0, r0, #3
    40e4:	0200001c 	andeq	r0, r0, #28
    40e8:	000001ae 	andeq	r0, r0, lr, lsr #3
    40ec:	00302302 	eorseq	r2, r0, r2, lsl #6
    40f0:	01030000 	mrseq	r0, (UNDEF: 3)
    40f4:	00044e08 	andeq	r4, r4, r8, lsl #28
    40f8:	06010300 	streq	r0, [r1], -r0, lsl #6
    40fc:	00000450 	andeq	r0, r0, r0, asr r4
    4100:	dd070203 	sfmle	f0, 4, [r7, #-12]
    4104:	03000002 	movweq	r0, #2
    4108:	04a30502 	strteq	r0, [r3], #1282	; 0x502
    410c:	dc020000 	stcle	0, cr0, [r2], {-0}
    4110:	02000001 	andeq	r0, r0, #1
    4114:	0000573f 	andeq	r5, r0, pc, lsr r7
    4118:	07040300 	streq	r0, [r4, -r0, lsl #6]
    411c:	000000ca 	andeq	r0, r0, sl, asr #1
    4120:	54050403 	strpl	r0, [r5], #-1027	; 0x403
    4124:	03000001 	movweq	r0, #1
    4128:	00c50708 	sbceq	r0, r5, r8, lsl #14
    412c:	08030000 	stmdaeq	r3, {}	; <UNPREDICTABLE>
    4130:	00014f05 	andeq	r4, r1, r5, lsl #30
    4134:	17670400 	strbne	r0, [r7, -r0, lsl #8]!
    4138:	16010000 	strne	r0, [r1], -r0
    413c:	00008900 	andeq	r8, r0, r0, lsl #18
    4140:	00000014 	andeq	r0, r0, r4, lsl r0
    4144:	6f049c01 	svcvs	0x00049c01
    4148:	01000017 	tsteq	r0, r7, lsl r0
    414c:	0089141a 	addeq	r1, r9, sl, lsl r4
    4150:	00001400 	andeq	r1, r0, r0, lsl #8
    4154:	049c0100 	ldreq	r0, [ip], #256	; 0x100
    4158:	00001777 	andeq	r1, r0, r7, ror r7
    415c:	89281e01 	stmdbhi	r8!, {r0, r9, sl, fp, ip}
    4160:	00140000 	andseq	r0, r4, r0
    4164:	9c010000 	stcls	0, cr0, [r1], {-0}
    4168:	00177f05 	andseq	r7, r7, r5, lsl #30
    416c:	3c230100 	stfccs	f0, [r3], #-0
    4170:	1c000089 	stcne	0, cr0, [r0], {137}	; 0x89
    4174:	01000000 	mrseq	r0, (UNDEF: 0)
    4178:	0000ca9c 	muleq	r0, ip, sl
    417c:	74730600 	ldrbtvc	r0, [r3], #-1536	; 0x600
    4180:	23010072 	movwcs	r0, #4210	; 0x1072
    4184:	000000ca 	andeq	r0, r0, sl, asr #1
    4188:	00749102 	rsbseq	r9, r4, r2, lsl #2
    418c:	00d00407 	sbcseq	r0, r0, r7, lsl #8
    4190:	30080000 	andcc	r0, r8, r0
    4194:	04000000 	streq	r0, [r0], #-0
    4198:	00001787 	andeq	r1, r0, r7, lsl #15
    419c:	89582901 	ldmdbhi	r8, {r0, r8, fp, sp}^
    41a0:	00140000 	andseq	r0, r4, r0
    41a4:	9c010000 	stcls	0, cr0, [r1], {-0}
    41a8:	00178f04 	andseq	r8, r7, r4, lsl #30
    41ac:	6c2e0100 	stfvss	f0, [lr], #-0
    41b0:	14000089 	strne	r0, [r0], #-137	; 0x89
    41b4:	01000000 	mrseq	r0, (UNDEF: 0)
    41b8:	1797049c 			; <UNDEFINED> instruction: 0x1797049c
    41bc:	33010000 	movwcc	r0, #4096	; 0x1000
    41c0:	00008980 	andeq	r8, r0, r0, lsl #19
    41c4:	00000014 	andeq	r0, r0, r4, lsl r0
    41c8:	49049c01 	stmdbmi	r4, {r0, sl, fp, ip, pc}
    41cc:	01000017 	tsteq	r0, r7, lsl r0
    41d0:	00899438 	addeq	r9, r9, r8, lsr r4
    41d4:	00001400 	andeq	r1, r0, r0, lsl #8
    41d8:	049c0100 	ldreq	r0, [ip], #256	; 0x100
    41dc:	000016de 	ldrdeq	r1, [r0], -lr
    41e0:	89a83d01 	stmibhi	r8!, {r0, r8, sl, fp, ip, sp}
    41e4:	00140000 	andseq	r0, r4, r0
    41e8:	9c010000 	stcls	0, cr0, [r1], {-0}
    41ec:	00175305 	andseq	r5, r7, r5, lsl #6
    41f0:	bc420100 	stflte	f0, [r2], {-0}
    41f4:	1c000089 	stcne	0, cr0, [r0], {137}	; 0x89
    41f8:	01000000 	mrseq	r0, (UNDEF: 0)
    41fc:	00014e9c 	muleq	r1, ip, lr
    4200:	756e0600 	strbvc	r0, [lr, #-1536]!	; 0x600
    4204:	4201006d 	andmi	r0, r1, #109	; 0x6d
    4208:	0000004c 	andeq	r0, r0, ip, asr #32
    420c:	00749102 	rsbseq	r9, r4, r2, lsl #2
    4210:	00179f04 	andseq	r9, r7, r4, lsl #30
    4214:	d8470100 	stmdale	r7, {r8}^
    4218:	14000089 	strne	r0, [r0], #-137	; 0x89
    421c:	01000000 	mrseq	r0, (UNDEF: 0)
    4220:	1735049c 			; <UNDEFINED> instruction: 0x1735049c
    4224:	4c010000 	stcmi	0, cr0, [r1], {-0}
    4228:	000089ec 	andeq	r8, r0, ip, ror #19
    422c:	00000014 	andeq	r0, r0, r4, lsl r0
    4230:	3e099c01 	cdpcc	12, 0, cr9, cr9, cr1, {0}
    4234:	01000017 	tsteq	r0, r7, lsl r0
    4238:	008a0051 	addeq	r0, sl, r1, asr r0
    423c:	0001bc00 	andeq	fp, r1, r0, lsl #24
    4240:	a39c0100 	orrsge	r0, ip, #0, 2
    4244:	0a000001 	beq	4250 <unused+0x424c>
    4248:	00001744 	andeq	r1, r0, r4, asr #14
    424c:	01a35201 			; <UNDEFINED> instruction: 0x01a35201
    4250:	91030000 	mrsls	r0, (UNDEF: 3)
    4254:	d80a7fb4 	stmdale	sl, {r2, r4, r5, r7, r8, r9, sl, fp, ip, sp, lr}
    4258:	01000005 	tsteq	r0, r5
    425c:	00002553 	andeq	r2, r0, r3, asr r5
    4260:	77910200 	ldrvc	r0, [r1, r0, lsl #4]
    4264:	004c0b00 	subeq	r0, ip, r0, lsl #22
    4268:	01b30000 			; <UNDEFINED> instruction: 0x01b30000
    426c:	b30c0000 	movwlt	r0, #49152	; 0xc000
    4270:	0f000001 	svceq	0x00000001
    4274:	07040300 	streq	r0, [r4, -r0, lsl #6]
    4278:	0000035e 	andeq	r0, r0, lr, asr r3
    427c:	0016d00d 	andseq	sp, r6, sp
    4280:	bc7a0100 	ldflte	f0, [sl], #-0
    4284:	3000008b 	andcc	r0, r0, fp, lsl #1
    4288:	01000000 	mrseq	r0, (UNDEF: 0)
    428c:	16e60d9c 	usatne	r0, #6, ip, lsl #27
    4290:	80010000 	andhi	r0, r1, r0
    4294:	00008bec 	andeq	r8, r0, ip, ror #23
    4298:	00000018 	andeq	r0, r0, r8, lsl r0
    429c:	a70d9c01 	strge	r9, [sp, -r1, lsl #24]
    42a0:	01000017 	tsteq	r0, r7, lsl r0
    42a4:	008c0484 	addeq	r0, ip, r4, lsl #9
    42a8:	00001800 	andeq	r1, r0, r0, lsl #16
    42ac:	0d9c0100 	ldfeqs	f0, [ip]
    42b0:	0000175d 	andeq	r1, r0, sp, asr r7
    42b4:	8c1c8801 	ldchi	8, cr8, [ip], {1}
    42b8:	00180000 	andseq	r0, r8, r0
    42bc:	9c010000 	stcls	0, cr0, [r1], {-0}
    42c0:	00023300 	andeq	r3, r2, r0, lsl #6
    42c4:	e2000400 	and	r0, r0, #0, 8
    42c8:	04000011 	streq	r0, [r0], #-17
    42cc:	0006ba01 	andeq	fp, r6, r1, lsl #20
    42d0:	17f20100 	ldrbne	r0, [r2, r0, lsl #2]!
    42d4:	057d0000 	ldrbeq	r0, [sp, #-0]!
    42d8:	8c340000 	ldchi	0, cr0, [r4], #-0
    42dc:	04080000 	streq	r0, [r8], #-0
    42e0:	1d4c0000 	stclne	0, cr0, [ip, #-0]
    42e4:	ae020000 	cdpge	0, 0, cr0, cr2, cr0, {0}
    42e8:	02000001 	andeq	r0, r0, #1
    42ec:	00003023 	andeq	r3, r0, r3, lsr #32
    42f0:	08010300 	stmdaeq	r1, {r8, r9}
    42f4:	0000044e 	andeq	r0, r0, lr, asr #8
    42f8:	50060103 	andpl	r0, r6, r3, lsl #2
    42fc:	03000004 	movweq	r0, #4
    4300:	02dd0702 	sbcseq	r0, sp, #524288	; 0x80000
    4304:	02030000 	andeq	r0, r3, #0
    4308:	0004a305 	andeq	sl, r4, r5, lsl #6
    430c:	01dc0200 	bicseq	r0, ip, r0, lsl #4
    4310:	3f020000 	svccc	0x00020000
    4314:	00000057 	andeq	r0, r0, r7, asr r0
    4318:	ca070403 	bgt	1c532c <__SP_usr_+0x1658ac>
    431c:	03000000 	movweq	r0, #0
    4320:	01540504 	cmpeq	r4, r4, lsl #10
    4324:	08030000 	stmdaeq	r3, {}	; <UNPREDICTABLE>
    4328:	0000c507 	andeq	ip, r0, r7, lsl #10
    432c:	05080300 	streq	r0, [r8, #-768]	; 0x300
    4330:	0000014f 	andeq	r0, r0, pc, asr #2
    4334:	5e070403 	cdppl	4, 0, cr0, cr7, cr3, {0}
    4338:	04000003 	streq	r0, [r0], #-3
    433c:	6e690504 	cdpvs	5, 6, cr0, cr9, cr4, {0}
    4340:	04030074 	streq	r0, [r3], #-116	; 0x74
    4344:	0000cf07 	andeq	ip, r0, r7, lsl #30
    4348:	183d0500 	ldmdane	sp!, {r8, sl}
    434c:	0c010000 	stceq	0, cr0, [r1], {-0}
    4350:	00008c34 	andeq	r8, r0, r4, lsr ip
    4354:	0000001c 	andeq	r0, r0, ip, lsl r0
    4358:	00aa9c01 	adceq	r9, sl, r1, lsl #24
    435c:	64060000 	strvs	r0, [r6], #-0
    4360:	810c0100 	mrshi	r0, (UNDEF: 28)
    4364:	02000000 	andeq	r0, r0, #0
    4368:	07007491 			; <UNDEFINED> instruction: 0x07007491
    436c:	000017d6 	ldrdeq	r1, [r0], -r6
    4370:	8c501001 	mrrchi	0, 0, r1, r0, cr1
    4374:	017c0000 	cmneq	ip, r0
    4378:	9c010000 	stcls	0, cr0, [r1], {-0}
    437c:	000000cd 	andeq	r0, r0, sp, asr #1
    4380:	00617208 	rsbeq	r7, r1, r8, lsl #4
    4384:	00811101 	addeq	r1, r1, r1, lsl #2
    4388:	91020000 	mrsls	r0, (UNDEF: 2)
    438c:	b0090074 	andlt	r0, r9, r4, ror r0
    4390:	01000017 	tsteq	r0, r7, lsl r0
    4394:	00002539 	andeq	r2, r0, r9, lsr r5
    4398:	008dcc00 	addeq	ip, sp, r0, lsl #24
    439c:	00005400 	andeq	r5, r0, r0, lsl #8
    43a0:	039c0100 	orrseq	r0, ip, #0, 2
    43a4:	06000001 	streq	r0, [r0], -r1
    43a8:	00727473 	rsbseq	r7, r2, r3, ror r4
    43ac:	01033901 	tsteq	r3, r1, lsl #18
    43b0:	91020000 	mrsls	r0, (UNDEF: 2)
    43b4:	6572086c 	ldrbvs	r0, [r2, #-2156]!	; 0x86c
    43b8:	3a010074 	bcc	44590 <vectors_end+0x35f10>
    43bc:	00000025 	andeq	r0, r0, r5, lsr #32
    43c0:	00779102 	rsbseq	r9, r7, r2, lsl #2
    43c4:	0109040a 	tsteq	r9, sl, lsl #8
    43c8:	300b0000 	andcc	r0, fp, r0
    43cc:	05000000 	streq	r0, [r0, #-0]
    43d0:	0000185c 	andeq	r1, r0, ip, asr r8
    43d4:	8e204301 	cdphi	3, 2, cr4, cr0, cr1, {0}
    43d8:	00500000 	subseq	r0, r0, r0
    43dc:	9c010000 	stcls	0, cr0, [r1], {-0}
    43e0:	00000130 	andeq	r0, r0, r0, lsr r1
    43e4:	01006306 	tsteq	r0, r6, lsl #6
    43e8:	00003043 	andeq	r3, r0, r3, asr #32
    43ec:	77910200 	ldrvc	r0, [r1, r0, lsl #4]
    43f0:	187e0c00 	ldmdane	lr!, {sl, fp}^
    43f4:	5c010000 	stcpl	0, cr0, [r1], {-0}
    43f8:	00008e70 	andeq	r8, r0, r0, ror lr
    43fc:	00000060 	andeq	r0, r0, r0, rrx
    4400:	016e9c01 	cmneq	lr, r1, lsl #24
    4404:	770d0000 	strvc	r0, [sp, -r0]
    4408:	01000018 	tsteq	r0, r8, lsl r0
    440c:	0001035c 	andeq	r0, r1, ip, asr r3
    4410:	6c910200 	lfmvs	f0, 4, [r1], {0}
    4414:	0003710d 	andeq	r7, r3, sp, lsl #2
    4418:	255c0100 	ldrbcs	r0, [ip, #-256]	; 0x100
    441c:	02000000 	andeq	r0, r0, #0
    4420:	69086b91 	stmdbvs	r8, {r0, r4, r7, r8, r9, fp, sp, lr}
    4424:	255d0100 	ldrbcs	r0, [sp, #-256]	; 0x100
    4428:	02000000 	andeq	r0, r0, #0
    442c:	0c007791 	stceq	7, cr7, [r0], {145}	; 0x91
    4430:	000017e0 	andeq	r1, r0, r0, ror #15
    4434:	8ed06501 	cdphi	5, 13, cr6, cr0, cr1, {0}
    4438:	00400000 	subeq	r0, r0, r0
    443c:	9c010000 	stcls	0, cr0, [r1], {-0}
    4440:	00000192 	muleq	r0, r2, r1
    4444:	72747306 	rsbsvc	r7, r4, #402653184	; 0x18000000
    4448:	03650100 	cmneq	r5, #0, 2
    444c:	02000001 	andeq	r0, r0, #1
    4450:	0c007491 	cfstrseq	mvf7, [r0], {145}	; 0x91
    4454:	000017c3 	andeq	r1, r0, r3, asr #15
    4458:	8f106c01 	svchi	0x00106c01
    445c:	00300000 	eorseq	r0, r0, r0
    4460:	9c010000 	stcls	0, cr0, [r1], {-0}
    4464:	000001b6 			; <UNDEFINED> instruction: 0x000001b6
    4468:	72747306 	rsbsvc	r7, r4, #402653184	; 0x18000000
    446c:	036c0100 	cmneq	ip, #0, 2
    4470:	02000001 	andeq	r0, r0, #1
    4474:	0e007491 	mcreq	4, 0, r7, cr0, cr1, {4}
    4478:	0000184f 	andeq	r1, r0, pc, asr #16
    447c:	8f407101 	svchi	0x00407101
    4480:	00240000 	eoreq	r0, r4, r0
    4484:	9c010000 	stcls	0, cr0, [r1], {-0}
    4488:	00186c0c 	andseq	r6, r8, ip, lsl #24
    448c:	648a0100 	strvs	r0, [sl], #256	; 0x100
    4490:	9400008f 	strls	r0, [r0], #-143	; 0x8f
    4494:	01000000 	mrseq	r0, (UNDEF: 0)
    4498:	0002039c 	muleq	r2, ip, r3
    449c:	00640600 	rsbeq	r0, r4, r0, lsl #12
    44a0:	00818a01 	addeq	r8, r1, r1, lsl #20
    44a4:	91020000 	mrsls	r0, (UNDEF: 2)
    44a8:	6272086c 	rsbsvs	r0, r2, #108, 16	; 0x6c0000
    44ac:	818d0100 	orrhi	r0, sp, r0, lsl #2
    44b0:	02000000 	andeq	r0, r0, #0
    44b4:	72087491 	andvc	r7, r8, #-1862270976	; 0x91000000
    44b8:	8e010063 	cdphi	0, 0, cr0, cr1, cr3, {3}
    44bc:	00000081 	andeq	r0, r0, r1, lsl #1
    44c0:	00709102 	rsbseq	r9, r0, r2, lsl #2
    44c4:	0018450c 	andseq	r4, r8, ip, lsl #10
    44c8:	f89c0100 			; <UNDEFINED> instruction: 0xf89c0100
    44cc:	3000008f 	andcc	r0, r0, pc, lsl #1
    44d0:	01000000 	mrseq	r0, (UNDEF: 0)
    44d4:	0002259c 	muleq	r2, ip, r5
    44d8:	00640600 	rsbeq	r0, r4, r0, lsl #12
    44dc:	00819c01 	addeq	r9, r1, r1, lsl #24
    44e0:	91020000 	mrsls	r0, (UNDEF: 2)
    44e4:	b90f0074 	stmdblt	pc, {r2, r4, r5, r6}	; <UNPREDICTABLE>
    44e8:	01000017 	tsteq	r0, r7, lsl r0
    44ec:	009028a3 	addseq	r2, r0, r3, lsr #17
    44f0:	00001400 	andeq	r1, r0, r0, lsl #8
    44f4:	009c0100 	addseq	r0, ip, r0, lsl #2

Disassembly of section .debug_abbrev:

00000000 <.debug_abbrev>:
       0:	25011101 	strcs	r1, [r1, #-257]	; 0x101
       4:	030b130e 	movweq	r1, #45838	; 0xb30e
       8:	550e1b0e 	strpl	r1, [lr, #-2830]	; 0xb0e
       c:	10011117 	andne	r1, r1, r7, lsl r1
      10:	02000017 	andeq	r0, r0, #23
      14:	0e030016 	mcreq	0, 0, r0, cr3, cr6, {0}
      18:	0b3b0b3a 	bleq	ec2d08 <__SP_usr_+0xe63288>
      1c:	00001349 	andeq	r1, r0, r9, asr #6
      20:	0b002403 	bleq	9034 <test_uart+0xc>
      24:	030b3e0b 	movweq	r3, #48651	; 0xbe0b
      28:	0400000e 	streq	r0, [r0], #-14
      2c:	0e030113 	mcreq	1, 0, r0, cr3, cr3, {0}
      30:	0b3a0b0b 	bleq	e82c64 <__SP_usr_+0xe231e4>
      34:	13010b3b 	movwne	r0, #6971	; 0x1b3b
      38:	0d050000 	stceq	0, cr0, [r5, #-0]
      3c:	3a080300 	bcc	200c44 <__SP_usr_+0x1a11c4>
      40:	490b3b0b 	stmdbmi	fp, {r0, r1, r3, r8, r9, fp, ip, sp}
      44:	000b3813 	andeq	r3, fp, r3, lsl r8
      48:	01010600 	tsteq	r1, r0, lsl #12
      4c:	13011349 	movwne	r1, #4937	; 0x1349
      50:	21070000 	mrscs	r0, (UNDEF: 7)
      54:	2f134900 	svccs	0x00134900
      58:	0800000b 	stmdaeq	r0, {r0, r1, r3}
      5c:	0e03000d 	cdpeq	0, 0, cr0, cr3, cr13, {0}
      60:	0b3b0b3a 	bleq	ec2d50 <__SP_usr_+0xe632d0>
      64:	0b381349 	bleq	e04d90 <__SP_usr_+0xda5310>
      68:	0f090000 	svceq	0x00090000
      6c:	490b0b00 	stmdbmi	fp, {r8, r9, fp}
      70:	0a000013 	beq	c4 <unused+0xc0>
      74:	19270015 	stmdbne	r7!, {r0, r2, r4}
      78:	130b0000 	movwne	r0, #45056	; 0xb000
      7c:	3a0b0b01 	bcc	2c2c88 <__SP_usr_+0x263208>
      80:	010b3b0b 	tsteq	fp, fp, lsl #22
      84:	0c000013 	stceq	0, cr0, [r0], {19}
      88:	13490026 	movtne	r0, #36902	; 0x9026
      8c:	0d0d0000 	stceq	0, cr0, [sp, #-0]
      90:	3a0e0300 	bcc	380c98 <__SP_usr_+0x321218>
      94:	49053b0b 	stmdbmi	r5, {r0, r1, r3, r8, r9, fp, ip, sp}
      98:	000b3813 	andeq	r3, fp, r3, lsl r8
      9c:	00160e00 	andseq	r0, r6, r0, lsl #28
      a0:	0b3a0e03 	bleq	e838b4 <__SP_usr_+0xe23e34>
      a4:	1349053b 	movtne	r0, #38203	; 0x953b
      a8:	130f0000 	movwne	r0, #61440	; 0xf000
      ac:	3a0b0b01 	bcc	2c2cb8 <__SP_usr_+0x263238>
      b0:	01053b0b 	tsteq	r5, fp, lsl #22
      b4:	10000013 	andne	r0, r0, r3, lsl r0
      b8:	0803000d 	stmdaeq	r3, {r0, r2, r3}
      bc:	053b0b3a 	ldreq	r0, [fp, #-2874]!	; 0xb3a
      c0:	0b381349 	bleq	e04dec <__SP_usr_+0xda536c>
      c4:	15110000 	ldrne	r0, [r1, #-0]
      c8:	01192701 	tsteq	r9, r1, lsl #14
      cc:	12000013 	andne	r0, r0, #19
      d0:	13490005 	movtne	r0, #36869	; 0x9005
      d4:	2e130000 	cdpcs	0, 1, cr0, cr3, cr0, {0}
      d8:	03193f01 	tsteq	r9, #1, 30
      dc:	3b0b3a0e 	blcc	2ce91c <__SP_usr_+0x26ee9c>
      e0:	4919270b 	ldmdbmi	r9, {r0, r1, r3, r8, r9, sl, sp}
      e4:	12011113 	andne	r1, r1, #-1073741820	; 0xc0000004
      e8:	97184006 	ldrls	r4, [r8, -r6]
      ec:	13011942 	movwne	r1, #6466	; 0x1942
      f0:	05140000 	ldreq	r0, [r4, #-0]
      f4:	3a0e0300 	bcc	380cfc <__SP_usr_+0x32127c>
      f8:	490b3b0b 	stmdbmi	fp, {r0, r1, r3, r8, r9, fp, ip, sp}
      fc:	00180213 	andseq	r0, r8, r3, lsl r2
     100:	00341500 	eorseq	r1, r4, r0, lsl #10
     104:	0b3a0e03 	bleq	e83918 <__SP_usr_+0xe23e98>
     108:	13490b3b 	movtne	r0, #39739	; 0x9b3b
     10c:	00001802 	andeq	r1, r0, r2, lsl #16
     110:	0b002416 	bleq	9170 <tpl_dispatch_table+0x28>
     114:	030b3e0b 	movweq	r3, #48651	; 0xbe0b
     118:	17000008 	strne	r0, [r0, -r8]
     11c:	193f012e 	ldmdbne	pc!, {r1, r2, r3, r5, r8}	; <UNPREDICTABLE>
     120:	0b3a0e03 	bleq	e83934 <__SP_usr_+0xe23eb4>
     124:	19270b3b 	stmdbne	r7!, {r0, r1, r3, r4, r5, r8, r9, fp}
     128:	06120111 			; <UNDEFINED> instruction: 0x06120111
     12c:	42961840 	addsmi	r1, r6, #64, 16	; 0x400000
     130:	00130119 	andseq	r0, r3, r9, lsl r1
     134:	00341800 	eorseq	r1, r4, r0, lsl #16
     138:	0b3a0e03 	bleq	e8394c <__SP_usr_+0xe23ecc>
     13c:	1349053b 	movtne	r0, #38203	; 0x953b
     140:	00001802 	andeq	r1, r0, r2, lsl #16
     144:	11010b19 	tstne	r1, r9, lsl fp
     148:	00061201 	andeq	r1, r6, r1, lsl #4
     14c:	00341a00 	eorseq	r1, r4, r0, lsl #20
     150:	0b3a0803 	bleq	e82164 <__SP_usr_+0xe226e4>
     154:	1349053b 	movtne	r0, #38203	; 0x953b
     158:	00001802 	andeq	r1, r0, r2, lsl #16
     15c:	3f012e1b 	svccc	0x00012e1b
     160:	3a0e0319 	bcc	380dcc <__SP_usr_+0x32134c>
     164:	27053b0b 	strcs	r3, [r5, -fp, lsl #22]
     168:	12011119 	andne	r1, r1, #1073741830	; 0x40000006
     16c:	96184006 	ldrls	r4, [r8], -r6
     170:	13011942 	movwne	r1, #6466	; 0x1942
     174:	051c0000 	ldreq	r0, [ip, #-0]
     178:	3a0e0300 	bcc	380d80 <__SP_usr_+0x321300>
     17c:	49053b0b 	stmdbmi	r5, {r0, r1, r3, r8, r9, fp, ip, sp}
     180:	00180213 	andseq	r0, r8, r3, lsl r2
     184:	002e1d00 	eoreq	r1, lr, r0, lsl #26
     188:	0e03193f 	mcreq	9, 0, r1, cr3, cr15, {1}
     18c:	053b0b3a 	ldreq	r0, [fp, #-2874]!	; 0xb3a
     190:	13491927 	movtne	r1, #39207	; 0x9927
     194:	06120111 			; <UNDEFINED> instruction: 0x06120111
     198:	42971840 	addsmi	r1, r7, #64, 16	; 0x400000
     19c:	1e000019 	mcrne	0, 0, r0, cr0, cr9, {0}
     1a0:	193f012e 	ldmdbne	pc!, {r1, r2, r3, r5, r8}	; <UNPREDICTABLE>
     1a4:	0b3a0e03 	bleq	e839b8 <__SP_usr_+0xe23f38>
     1a8:	1927053b 	stmdbne	r7!, {r0, r1, r3, r4, r5, r8, sl}
     1ac:	01111349 	tsteq	r1, r9, asr #6
     1b0:	18400612 	stmdane	r0, {r1, r4, r9, sl}^
     1b4:	01194296 			; <UNDEFINED> instruction: 0x01194296
     1b8:	1f000013 	svcne	0x00000013
     1bc:	193f012e 	ldmdbne	pc!, {r1, r2, r3, r5, r8}	; <UNPREDICTABLE>
     1c0:	0b3a0e03 	bleq	e839d4 <__SP_usr_+0xe23f54>
     1c4:	1927053b 	stmdbne	r7!, {r0, r1, r3, r4, r5, r8, sl}
     1c8:	01111349 	tsteq	r1, r9, asr #6
     1cc:	18400612 	stmdane	r0, {r1, r4, r9, sl}^
     1d0:	01194297 			; <UNDEFINED> instruction: 0x01194297
     1d4:	20000013 	andcs	r0, r0, r3, lsl r0
     1d8:	193f012e 	ldmdbne	pc!, {r1, r2, r3, r5, r8}	; <UNPREDICTABLE>
     1dc:	0b3a0e03 	bleq	e839f0 <__SP_usr_+0xe23f70>
     1e0:	1927053b 	stmdbne	r7!, {r0, r1, r3, r4, r5, r8, sl}
     1e4:	06120111 			; <UNDEFINED> instruction: 0x06120111
     1e8:	42971840 	addsmi	r1, r7, #64, 16	; 0x400000
     1ec:	00130119 	andseq	r0, r3, r9, lsl r1
     1f0:	002e2100 	eoreq	r2, lr, r0, lsl #2
     1f4:	0e03193f 	mcreq	9, 0, r1, cr3, cr15, {1}
     1f8:	053b0b3a 	ldreq	r0, [fp, #-2874]!	; 0xb3a
     1fc:	01111927 	tsteq	r1, r7, lsr #18
     200:	18400612 	stmdane	r0, {r1, r4, r9, sl}^
     204:	00194296 	mulseq	r9, r6, r2
     208:	00342200 	eorseq	r2, r4, r0, lsl #4
     20c:	0b3a0e03 	bleq	e83a20 <__SP_usr_+0xe23fa0>
     210:	1349053b 	movtne	r0, #38203	; 0x953b
     214:	193c193f 	ldmdbne	ip!, {r0, r1, r2, r3, r4, r5, r8, fp, ip}
     218:	34230000 	strtcc	r0, [r3], #-0
     21c:	3a0e0300 	bcc	380e24 <__SP_usr_+0x3213a4>
     220:	490b3b0b 	stmdbmi	fp, {r0, r1, r3, r8, r9, fp, ip, sp}
     224:	02193f13 	andseq	r3, r9, #19, 30	; 0x4c
     228:	24000018 	strcs	r0, [r0], #-24
     22c:	00000021 	andeq	r0, r0, r1, lsr #32
     230:	03003425 	movweq	r3, #1061	; 0x425
     234:	3b0b3a0e 	blcc	2cea74 <__SP_usr_+0x26eff4>
     238:	3f13490b 	svccc	0x0013490b
     23c:	00193c19 	andseq	r3, r9, r9, lsl ip
     240:	11010000 	mrsne	r0, (UNDEF: 1)
     244:	130e2501 	movwne	r2, #58625	; 0xe501
     248:	1b0e030b 	blne	380e7c <__SP_usr_+0x3213fc>
     24c:	1117550e 	tstne	r7, lr, lsl #10
     250:	00171001 	andseq	r1, r7, r1
     254:	00160200 	andseq	r0, r6, r0, lsl #4
     258:	0b3a0e03 	bleq	e83a6c <__SP_usr_+0xe23fec>
     25c:	13490b3b 	movtne	r0, #39739	; 0x9b3b
     260:	24030000 	strcs	r0, [r3], #-0
     264:	3e0b0b00 	vmlacc.f64	d0, d11, d0
     268:	000e030b 	andeq	r0, lr, fp, lsl #6
     26c:	000f0400 	andeq	r0, pc, r0, lsl #8
     270:	13490b0b 	movtne	r0, #39691	; 0x9b0b
     274:	15050000 	strne	r0, [r5, #-0]
     278:	01192701 	tsteq	r9, r1, lsl #14
     27c:	06000013 			; <UNDEFINED> instruction: 0x06000013
     280:	13490005 	movtne	r0, #36869	; 0x9005
     284:	13070000 	movwne	r0, #28672	; 0x7000
     288:	0b0e0301 	bleq	380e94 <__SP_usr_+0x321414>
     28c:	3b0b3a0b 	blcc	2ceac0 <__SP_usr_+0x26f040>
     290:	0013010b 	andseq	r0, r3, fp, lsl #2
     294:	000d0800 	andeq	r0, sp, r0, lsl #16
     298:	0b3a0e03 	bleq	e83aac <__SP_usr_+0xe2402c>
     29c:	13490b3b 	movtne	r0, #39739	; 0x9b3b
     2a0:	00000b38 	andeq	r0, r0, r8, lsr fp
     2a4:	49002609 	stmdbmi	r0, {r0, r3, r9, sl, sp}
     2a8:	0a000013 	beq	2fc <unused+0x2f8>
     2ac:	193f002e 	ldmdbne	pc!, {r1, r2, r3, r5}	; <UNPREDICTABLE>
     2b0:	0b3a0e03 	bleq	e83ac4 <__SP_usr_+0xe24044>
     2b4:	19270b3b 	stmdbne	r7!, {r0, r1, r3, r4, r5, r8, r9, fp}
     2b8:	06120111 			; <UNDEFINED> instruction: 0x06120111
     2bc:	42971840 	addsmi	r1, r7, #64, 16	; 0x400000
     2c0:	0b000019 	bleq	32c <unused+0x328>
     2c4:	193f012e 	ldmdbne	pc!, {r1, r2, r3, r5, r8}	; <UNPREDICTABLE>
     2c8:	0b3a0e03 	bleq	e83adc <__SP_usr_+0xe2405c>
     2cc:	19270b3b 	stmdbne	r7!, {r0, r1, r3, r4, r5, r8, r9, fp}
     2d0:	06120111 			; <UNDEFINED> instruction: 0x06120111
     2d4:	42971840 	addsmi	r1, r7, #64, 16	; 0x400000
     2d8:	00130119 	andseq	r0, r3, r9, lsl r1
     2dc:	00050c00 	andeq	r0, r5, r0, lsl #24
     2e0:	0b3a0e03 	bleq	e83af4 <__SP_usr_+0xe24074>
     2e4:	13490b3b 	movtne	r0, #39739	; 0x9b3b
     2e8:	00001802 	andeq	r1, r0, r2, lsl #16
     2ec:	0300340d 	movweq	r3, #1037	; 0x40d
     2f0:	3b0b3a0e 	blcc	2ceb30 <__SP_usr_+0x26f0b0>
     2f4:	0213490b 	andseq	r4, r3, #180224	; 0x2c000
     2f8:	0e000018 	mcreq	0, 0, r0, cr0, cr8, {0}
     2fc:	0e03012e 	adfeqsp	f0, f3, #0.5
     300:	0b3b0b3a 	bleq	ec2ff0 <__SP_usr_+0xe63570>
     304:	13491927 	movtne	r1, #39207	; 0x9927
     308:	06120111 			; <UNDEFINED> instruction: 0x06120111
     30c:	42971840 	addsmi	r1, r7, #64, 16	; 0x400000
     310:	00130119 	andseq	r0, r3, r9, lsl r1
     314:	010b0f00 	tsteq	fp, r0, lsl #30
     318:	06120111 			; <UNDEFINED> instruction: 0x06120111
     31c:	2e100000 	cdpcs	0, 1, cr0, cr0, cr0, {0}
     320:	03193f01 	tsteq	r9, #1, 30
     324:	3b0b3a0e 	blcc	2ceb64 <__SP_usr_+0x26f0e4>
     328:	11192705 	tstne	r9, r5, lsl #14
     32c:	40061201 	andmi	r1, r6, r1, lsl #4
     330:	19429618 	stmdbne	r2, {r3, r4, r9, sl, ip, pc}^
     334:	00001301 	andeq	r1, r0, r1, lsl #6
     338:	03000511 	movweq	r0, #1297	; 0x511
     33c:	3b0b3a0e 	blcc	2ceb7c <__SP_usr_+0x26f0fc>
     340:	02134905 	andseq	r4, r3, #81920	; 0x14000
     344:	12000018 	andne	r0, r0, #24
     348:	0e030034 	mcreq	0, 0, r0, cr3, cr4, {1}
     34c:	053b0b3a 	ldreq	r0, [fp, #-2874]!	; 0xb3a
     350:	18021349 	stmdane	r2, {r0, r3, r6, r8, r9, ip}
     354:	01000000 	mrseq	r0, (UNDEF: 0)
     358:	0e250111 	mcreq	1, 1, r0, cr5, cr1, {0}
     35c:	0e030b13 	vmoveq.32	d3[0], r0
     360:	17550e1b 	smmlane	r5, fp, lr, r0
     364:	17100111 			; <UNDEFINED> instruction: 0x17100111
     368:	16020000 	strne	r0, [r2], -r0
     36c:	3a0e0300 	bcc	380f74 <__SP_usr_+0x3214f4>
     370:	490b3b0b 	stmdbmi	fp, {r0, r1, r3, r8, r9, fp, ip, sp}
     374:	03000013 	movweq	r0, #19
     378:	0b0b0024 	bleq	2c0410 <__SP_usr_+0x260990>
     37c:	0e030b3e 	vmoveq.16	d3[0], r0
     380:	0f040000 	svceq	0x00040000
     384:	490b0b00 	stmdbmi	fp, {r8, r9, fp}
     388:	05000013 	streq	r0, [r0, #-19]
     38c:	19270015 	stmdbne	r7!, {r0, r2, r4}
     390:	15060000 	strne	r0, [r6, #-0]
     394:	01192701 	tsteq	r9, r1, lsl #14
     398:	07000013 	smladeq	r0, r3, r0, r0
     39c:	13490005 	movtne	r0, #36869	; 0x9005
     3a0:	26080000 	strcs	r0, [r8], -r0
     3a4:	00134900 	andseq	r4, r3, r0, lsl #18
     3a8:	01130900 	tsteq	r3, r0, lsl #18
     3ac:	0b0b0e03 	bleq	2c3bc0 <__SP_usr_+0x264140>
     3b0:	0b3b0b3a 	bleq	ec30a0 <__SP_usr_+0xe63620>
     3b4:	00001301 	andeq	r1, r0, r1, lsl #6
     3b8:	03000d0a 	movweq	r0, #3338	; 0xd0a
     3bc:	3b0b3a0e 	blcc	2cebfc <__SP_usr_+0x26f17c>
     3c0:	3813490b 	ldmdacc	r3, {r0, r1, r3, r8, fp, lr}
     3c4:	0b00000b 	bleq	3f8 <unused+0x3f4>
     3c8:	193f012e 	ldmdbne	pc!, {r1, r2, r3, r5, r8}	; <UNPREDICTABLE>
     3cc:	0b3a0e03 	bleq	e83be0 <__SP_usr_+0xe24160>
     3d0:	19270b3b 	stmdbne	r7!, {r0, r1, r3, r4, r5, r8, r9, fp}
     3d4:	06120111 			; <UNDEFINED> instruction: 0x06120111
     3d8:	42961840 	addsmi	r1, r6, #64, 16	; 0x400000
     3dc:	00130119 	andseq	r0, r3, r9, lsl r1
     3e0:	00050c00 	andeq	r0, r5, r0, lsl #24
     3e4:	0b3a0e03 	bleq	e83bf8 <__SP_usr_+0xe24178>
     3e8:	13490b3b 	movtne	r0, #39739	; 0x9b3b
     3ec:	00001802 	andeq	r1, r0, r2, lsl #16
     3f0:	3f012e0d 	svccc	0x00012e0d
     3f4:	3a0e0319 	bcc	381060 <__SP_usr_+0x3215e0>
     3f8:	270b3b0b 	strcs	r3, [fp, -fp, lsl #22]
     3fc:	12011119 	andne	r1, r1, #1073741830	; 0x40000006
     400:	96184006 	ldrls	r4, [r8], -r6
     404:	00001942 	andeq	r1, r0, r2, asr #18
     408:	0300340e 	movweq	r3, #1038	; 0x40e
     40c:	3b0b3a0e 	blcc	2cec4c <__SP_usr_+0x26f1cc>
     410:	0213490b 	andseq	r4, r3, #180224	; 0x2c000
     414:	00000018 	andeq	r0, r0, r8, lsl r0
     418:	25011101 	strcs	r1, [r1, #-257]	; 0x101
     41c:	030b130e 	movweq	r1, #45838	; 0xb30e
     420:	100e1b0e 	andne	r1, lr, lr, lsl #22
     424:	02000017 	andeq	r0, r0, #23
     428:	0b0b0024 	bleq	2c04c0 <__SP_usr_+0x260a40>
     42c:	0e030b3e 	vmoveq.16	d3[0], r0
     430:	01000000 	mrseq	r0, (UNDEF: 0)
     434:	0e250111 	mcreq	1, 1, r0, cr5, cr1, {0}
     438:	0e030b13 	vmoveq.32	d3[0], r0
     43c:	17550e1b 	smmlane	r5, fp, lr, r0
     440:	17100111 			; <UNDEFINED> instruction: 0x17100111
     444:	16020000 	strne	r0, [r2], -r0
     448:	3a0e0300 	bcc	381050 <__SP_usr_+0x3215d0>
     44c:	490b3b0b 	stmdbmi	fp, {r0, r1, r3, r8, r9, fp, ip, sp}
     450:	03000013 	movweq	r0, #19
     454:	0b0b0024 	bleq	2c04ec <__SP_usr_+0x260a6c>
     458:	0e030b3e 	vmoveq.16	d3[0], r0
     45c:	2e040000 	cdpcs	0, 0, cr0, cr4, cr0, {0}
     460:	03193f01 	tsteq	r9, #1, 30
     464:	3b0b3a0e 	blcc	2ceca4 <__SP_usr_+0x26f224>
     468:	4919270b 	ldmdbmi	r9, {r0, r1, r3, r8, r9, sl, sp}
     46c:	12011113 	andne	r1, r1, #-1073741820	; 0xc0000004
     470:	96184006 	ldrls	r4, [r8], -r6
     474:	13011942 	movwne	r1, #6466	; 0x1942
     478:	34050000 	strcc	r0, [r5], #-0
     47c:	3a0e0300 	bcc	381084 <__SP_usr_+0x321604>
     480:	490b3b0b 	stmdbmi	fp, {r0, r1, r3, r8, r9, fp, ip, sp}
     484:	00180213 	andseq	r0, r8, r3, lsl r2
     488:	012e0600 			; <UNDEFINED> instruction: 0x012e0600
     48c:	0e03193f 	mcreq	9, 0, r1, cr3, cr15, {1}
     490:	0b3b0b3a 	bleq	ec3180 <__SP_usr_+0xe63700>
     494:	01111927 	tsteq	r1, r7, lsr #18
     498:	18400612 	stmdane	r0, {r1, r4, r9, sl}^
     49c:	01194296 			; <UNDEFINED> instruction: 0x01194296
     4a0:	07000013 	smladeq	r0, r3, r0, r0
     4a4:	0e030005 	cdpeq	0, 0, cr0, cr3, cr5, {0}
     4a8:	0b3b0b3a 	bleq	ec3198 <__SP_usr_+0xe63718>
     4ac:	18021349 	stmdane	r2, {r0, r3, r6, r8, r9, ip}
     4b0:	26080000 	strcs	r0, [r8], -r0
     4b4:	00134900 	andseq	r4, r3, r0, lsl #18
     4b8:	11010000 	mrsne	r0, (UNDEF: 1)
     4bc:	130e2501 	movwne	r2, #58625	; 0xe501
     4c0:	1b0e030b 	blne	3810f4 <__SP_usr_+0x321674>
     4c4:	1117550e 	tstne	r7, lr, lsl #10
     4c8:	00171001 	andseq	r1, r7, r1
     4cc:	00240200 	eoreq	r0, r4, r0, lsl #4
     4d0:	0b3e0b0b 	bleq	f83104 <__SP_usr_+0xf23684>
     4d4:	00000e03 	andeq	r0, r0, r3, lsl #28
     4d8:	03001603 	movweq	r1, #1539	; 0x603
     4dc:	3b0b3a0e 	blcc	2ced1c <__SP_usr_+0x26f29c>
     4e0:	0013490b 	andseq	r4, r3, fp, lsl #18
     4e4:	012e0400 			; <UNDEFINED> instruction: 0x012e0400
     4e8:	0e03193f 	mcreq	9, 0, r1, cr3, cr15, {1}
     4ec:	0b3b0b3a 	bleq	ec31dc <__SP_usr_+0xe6375c>
     4f0:	01111927 	tsteq	r1, r7, lsr #18
     4f4:	18400612 	stmdane	r0, {r1, r4, r9, sl}^
     4f8:	01194296 			; <UNDEFINED> instruction: 0x01194296
     4fc:	05000013 	streq	r0, [r0, #-19]
     500:	0e030005 	cdpeq	0, 0, cr0, cr3, cr5, {0}
     504:	0b3b0b3a 	bleq	ec31f4 <__SP_usr_+0xe63774>
     508:	18021349 	stmdane	r2, {r0, r3, r6, r8, r9, ip}
     50c:	26060000 	strcs	r0, [r6], -r0
     510:	00134900 	andseq	r4, r3, r0, lsl #18
     514:	11010000 	mrsne	r0, (UNDEF: 1)
     518:	130e2501 	movwne	r2, #58625	; 0xe501
     51c:	1b0e030b 	blne	381150 <__SP_usr_+0x3216d0>
     520:	1117550e 	tstne	r7, lr, lsl #10
     524:	00171001 	andseq	r1, r7, r1
     528:	00160200 	andseq	r0, r6, r0, lsl #4
     52c:	0b3a0e03 	bleq	e83d40 <__SP_usr_+0xe242c0>
     530:	13490b3b 	movtne	r0, #39739	; 0x9b3b
     534:	24030000 	strcs	r0, [r3], #-0
     538:	3e0b0b00 	vmlacc.f64	d0, d11, d0
     53c:	000e030b 	andeq	r0, lr, fp, lsl #6
     540:	01130400 	tsteq	r3, r0, lsl #8
     544:	0b0b0e03 	bleq	2c3d58 <__SP_usr_+0x2642d8>
     548:	0b3b0b3a 	bleq	ec3238 <__SP_usr_+0xe637b8>
     54c:	00001301 	andeq	r1, r0, r1, lsl #6
     550:	03000d05 	movweq	r0, #3333	; 0xd05
     554:	3b0b3a08 	blcc	2ced7c <__SP_usr_+0x26f2fc>
     558:	3813490b 	ldmdacc	r3, {r0, r1, r3, r8, fp, lr}
     55c:	0600000b 	streq	r0, [r0], -fp
     560:	13490101 	movtne	r0, #37121	; 0x9101
     564:	00001301 	andeq	r1, r0, r1, lsl #6
     568:	49002107 	stmdbmi	r0, {r0, r1, r2, r8, sp}
     56c:	000b2f13 	andeq	r2, fp, r3, lsl pc
     570:	000d0800 	andeq	r0, sp, r0, lsl #16
     574:	0b3a0e03 	bleq	e83d88 <__SP_usr_+0xe24308>
     578:	13490b3b 	movtne	r0, #39739	; 0x9b3b
     57c:	00000b38 	andeq	r0, r0, r8, lsr fp
     580:	0b000f09 	bleq	41ac <unused+0x41a8>
     584:	0013490b 	andseq	r4, r3, fp, lsl #18
     588:	00150a00 	andseq	r0, r5, r0, lsl #20
     58c:	00001927 	andeq	r1, r0, r7, lsr #18
     590:	0b01130b 	bleq	451c4 <vectors_end+0x36b44>
     594:	3b0b3a0b 	blcc	2cedc8 <__SP_usr_+0x26f348>
     598:	0013010b 	andseq	r0, r3, fp, lsl #2
     59c:	00260c00 	eoreq	r0, r6, r0, lsl #24
     5a0:	00001349 	andeq	r1, r0, r9, asr #6
     5a4:	0300130d 	movweq	r1, #781	; 0x30d
     5a8:	00193c0e 	andseq	r3, r9, lr, lsl #24
     5ac:	000d0e00 	andeq	r0, sp, r0, lsl #28
     5b0:	0b3a0e03 	bleq	e83dc4 <__SP_usr_+0xe24344>
     5b4:	1349053b 	movtne	r0, #38203	; 0x953b
     5b8:	00000b38 	andeq	r0, r0, r8, lsr fp
     5bc:	0300160f 	movweq	r1, #1551	; 0x60f
     5c0:	3b0b3a0e 	blcc	2cee00 <__SP_usr_+0x26f380>
     5c4:	00134905 	andseq	r4, r3, r5, lsl #18
     5c8:	00261000 	eoreq	r1, r6, r0
     5cc:	2e110000 	cdpcs	0, 1, cr0, cr1, cr0, {0}
     5d0:	03193f01 	tsteq	r9, #1, 30
     5d4:	3b0b3a0e 	blcc	2cee14 <__SP_usr_+0x26f394>
     5d8:	4919270b 	ldmdbmi	r9, {r0, r1, r3, r8, r9, sl, sp}
     5dc:	12011113 	andne	r1, r1, #-1073741820	; 0xc0000004
     5e0:	97184006 	ldrls	r4, [r8, -r6]
     5e4:	13011942 	movwne	r1, #6466	; 0x1942
     5e8:	34120000 	ldrcc	r0, [r2], #-0
     5ec:	3a0e0300 	bcc	3811f4 <__SP_usr_+0x321774>
     5f0:	490b3b0b 	stmdbmi	fp, {r0, r1, r3, r8, r9, fp, ip, sp}
     5f4:	00180213 	andseq	r0, r8, r3, lsl r2
     5f8:	002e1300 	eoreq	r1, lr, r0, lsl #6
     5fc:	0e03193f 	mcreq	9, 0, r1, cr3, cr15, {1}
     600:	0b3b0b3a 	bleq	ec32f0 <__SP_usr_+0xe63870>
     604:	01111927 	tsteq	r1, r7, lsr #18
     608:	18400612 	stmdane	r0, {r1, r4, r9, sl}^
     60c:	00194297 	mulseq	r9, r7, r2
     610:	002e1400 	eoreq	r1, lr, r0, lsl #8
     614:	0e03193f 	mcreq	9, 0, r1, cr3, cr15, {1}
     618:	0b3b0b3a 	bleq	ec3308 <__SP_usr_+0xe63888>
     61c:	01111927 	tsteq	r1, r7, lsr #18
     620:	18400612 	stmdane	r0, {r1, r4, r9, sl}^
     624:	00194296 	mulseq	r9, r6, r2
     628:	012e1500 			; <UNDEFINED> instruction: 0x012e1500
     62c:	0e03193f 	mcreq	9, 0, r1, cr3, cr15, {1}
     630:	0b3b0b3a 	bleq	ec3320 <__SP_usr_+0xe638a0>
     634:	13491927 	movtne	r1, #39207	; 0x9927
     638:	06120111 			; <UNDEFINED> instruction: 0x06120111
     63c:	42961840 	addsmi	r1, r6, #64, 16	; 0x400000
     640:	00130119 	andseq	r0, r3, r9, lsl r1
     644:	012e1600 			; <UNDEFINED> instruction: 0x012e1600
     648:	0e03193f 	mcreq	9, 0, r1, cr3, cr15, {1}
     64c:	0b3b0b3a 	bleq	ec333c <__SP_usr_+0xe638bc>
     650:	01111927 	tsteq	r1, r7, lsr #18
     654:	18400612 	stmdane	r0, {r1, r4, r9, sl}^
     658:	01194297 			; <UNDEFINED> instruction: 0x01194297
     65c:	17000013 	smladne	r0, r3, r0, r0
     660:	08030005 	stmdaeq	r3, {r0, r2}
     664:	0b3b0b3a 	bleq	ec3354 <__SP_usr_+0xe638d4>
     668:	18021349 	stmdane	r2, {r0, r3, r6, r8, r9, ip}
     66c:	34180000 	ldrcc	r0, [r8], #-0
     670:	3a0e0300 	bcc	381278 <__SP_usr_+0x3217f8>
     674:	49053b0b 	stmdbmi	r5, {r0, r1, r3, r8, r9, fp, ip, sp}
     678:	3c193f13 	ldccc	15, cr3, [r9], {19}
     67c:	19000019 	stmdbne	r0, {r0, r3, r4}
     680:	0e030034 	mcreq	0, 0, r0, cr3, cr4, {1}
     684:	0b3b0b3a 	bleq	ec3374 <__SP_usr_+0xe638f4>
     688:	193f1349 	ldmdbne	pc!, {r0, r3, r6, r8, r9, ip}	; <UNPREDICTABLE>
     68c:	00001802 	andeq	r1, r0, r2, lsl #16
     690:	4900351a 	stmdbmi	r0, {r1, r3, r4, r8, sl, ip, sp}
     694:	00000013 	andeq	r0, r0, r3, lsl r0
     698:	25011101 	strcs	r1, [r1, #-257]	; 0x101
     69c:	030b130e 	movweq	r1, #45838	; 0xb30e
     6a0:	550e1b0e 	strpl	r1, [lr, #-2830]	; 0xb0e
     6a4:	10011117 	andne	r1, r1, r7, lsl r1
     6a8:	02000017 	andeq	r0, r0, #23
     6ac:	0e030016 	mcreq	0, 0, r0, cr3, cr6, {0}
     6b0:	0b3b0b3a 	bleq	ec33a0 <__SP_usr_+0xe63920>
     6b4:	00001349 	andeq	r1, r0, r9, asr #6
     6b8:	0b002403 	bleq	96cc <blink_stack_zone+0xc>
     6bc:	030b3e0b 	movweq	r3, #48651	; 0xbe0b
     6c0:	0400000e 	streq	r0, [r0], #-14
     6c4:	0e030113 	mcreq	1, 0, r0, cr3, cr3, {0}
     6c8:	0b3a0b0b 	bleq	e832fc <__SP_usr_+0xe2387c>
     6cc:	13010b3b 	movwne	r0, #6971	; 0x1b3b
     6d0:	0d050000 	stceq	0, cr0, [r5, #-0]
     6d4:	3a080300 	bcc	2012dc <__SP_usr_+0x1a185c>
     6d8:	490b3b0b 	stmdbmi	fp, {r0, r1, r3, r8, r9, fp, ip, sp}
     6dc:	000b3813 	andeq	r3, fp, r3, lsl r8
     6e0:	01010600 	tsteq	r1, r0, lsl #12
     6e4:	13011349 	movwne	r1, #4937	; 0x1349
     6e8:	21070000 	mrscs	r0, (UNDEF: 7)
     6ec:	2f134900 	svccs	0x00134900
     6f0:	0800000b 	stmdaeq	r0, {r0, r1, r3}
     6f4:	0e03000d 	cdpeq	0, 0, cr0, cr3, cr13, {0}
     6f8:	0b3b0b3a 	bleq	ec33e8 <__SP_usr_+0xe63968>
     6fc:	0b381349 	bleq	e05428 <__SP_usr_+0xda59a8>
     700:	0f090000 	svceq	0x00090000
     704:	490b0b00 	stmdbmi	fp, {r8, r9, fp}
     708:	0a000013 	beq	75c <unused+0x758>
     70c:	19270015 	stmdbne	r7!, {r0, r2, r4}
     710:	130b0000 	movwne	r0, #45056	; 0xb000
     714:	3a0b0b01 	bcc	2c3320 <__SP_usr_+0x2638a0>
     718:	010b3b0b 	tsteq	fp, fp, lsl #22
     71c:	0c000013 	stceq	0, cr0, [r0], {19}
     720:	13490026 	movtne	r0, #36902	; 0x9026
     724:	130d0000 	movwne	r0, #53248	; 0xd000
     728:	3c0e0300 	stccc	3, cr0, [lr], {-0}
     72c:	0e000019 	mcreq	0, 0, r0, cr0, cr9, {0}
     730:	0e03000d 	cdpeq	0, 0, cr0, cr3, cr13, {0}
     734:	053b0b3a 	ldreq	r0, [fp, #-2874]!	; 0xb3a
     738:	0b381349 	bleq	e05464 <__SP_usr_+0xda59e4>
     73c:	160f0000 	strne	r0, [pc], -r0
     740:	3a0e0300 	bcc	381348 <__SP_usr_+0x3218c8>
     744:	49053b0b 	stmdbmi	r5, {r0, r1, r3, r8, r9, fp, ip, sp}
     748:	10000013 	andne	r0, r0, r3, lsl r0
     74c:	193f012e 	ldmdbne	pc!, {r1, r2, r3, r5, r8}	; <UNPREDICTABLE>
     750:	0b3a0e03 	bleq	e83f64 <__SP_usr_+0xe244e4>
     754:	19270b3b 	stmdbne	r7!, {r0, r1, r3, r4, r5, r8, r9, fp}
     758:	01111349 	tsteq	r1, r9, asr #6
     75c:	18400612 	stmdane	r0, {r1, r4, r9, sl}^
     760:	01194296 			; <UNDEFINED> instruction: 0x01194296
     764:	11000013 	tstne	r0, r3, lsl r0
     768:	0e030005 	cdpeq	0, 0, cr0, cr3, cr5, {0}
     76c:	0b3b0b3a 	bleq	ec345c <__SP_usr_+0xe639dc>
     770:	18021349 	stmdane	r2, {r0, r3, r6, r8, r9, ip}
     774:	34120000 	ldrcc	r0, [r2], #-0
     778:	3a0e0300 	bcc	381380 <__SP_usr_+0x321900>
     77c:	490b3b0b 	stmdbmi	fp, {r0, r1, r3, r8, r9, fp, ip, sp}
     780:	00180213 	andseq	r0, r8, r3, lsl r2
     784:	012e1300 			; <UNDEFINED> instruction: 0x012e1300
     788:	0e03193f 	mcreq	9, 0, r1, cr3, cr15, {1}
     78c:	053b0b3a 	ldreq	r0, [fp, #-2874]!	; 0xb3a
     790:	13491927 	movtne	r1, #39207	; 0x9927
     794:	06120111 			; <UNDEFINED> instruction: 0x06120111
     798:	42961840 	addsmi	r1, r6, #64, 16	; 0x400000
     79c:	00130119 	andseq	r0, r3, r9, lsl r1
     7a0:	00051400 	andeq	r1, r5, r0, lsl #8
     7a4:	0b3a0e03 	bleq	e83fb8 <__SP_usr_+0xe24538>
     7a8:	1349053b 	movtne	r0, #38203	; 0x953b
     7ac:	00001802 	andeq	r1, r0, r2, lsl #16
     7b0:	03003415 	movweq	r3, #1045	; 0x415
     7b4:	3b0b3a0e 	blcc	2ceff4 <__SP_usr_+0x26f574>
     7b8:	02134905 	andseq	r4, r3, #81920	; 0x14000
     7bc:	16000018 			; <UNDEFINED> instruction: 0x16000018
     7c0:	0e030034 	mcreq	0, 0, r0, cr3, cr4, {1}
     7c4:	053b0b3a 	ldreq	r0, [fp, #-2874]!	; 0xb3a
     7c8:	193f1349 	ldmdbne	pc!, {r0, r3, r6, r8, r9, ip}	; <UNPREDICTABLE>
     7cc:	0000193c 	andeq	r1, r0, ip, lsr r9
     7d0:	03003417 	movweq	r3, #1047	; 0x417
     7d4:	3b0b3a0e 	blcc	2cf014 <__SP_usr_+0x26f594>
     7d8:	3f13490b 	svccc	0x0013490b
     7dc:	00193c19 	andseq	r3, r9, r9, lsl ip
     7e0:	11010000 	mrsne	r0, (UNDEF: 1)
     7e4:	130e2501 	movwne	r2, #58625	; 0xe501
     7e8:	1b0e030b 	blne	38141c <__SP_usr_+0x32199c>
     7ec:	1117550e 	tstne	r7, lr, lsl #10
     7f0:	00171001 	andseq	r1, r7, r1
     7f4:	00160200 	andseq	r0, r6, r0, lsl #4
     7f8:	0b3a0e03 	bleq	e8400c <__SP_usr_+0xe2458c>
     7fc:	13490b3b 	movtne	r0, #39739	; 0x9b3b
     800:	24030000 	strcs	r0, [r3], #-0
     804:	3e0b0b00 	vmlacc.f64	d0, d11, d0
     808:	000e030b 	andeq	r0, lr, fp, lsl #6
     80c:	01130400 	tsteq	r3, r0, lsl #8
     810:	0b0b0e03 	bleq	2c4024 <__SP_usr_+0x2645a4>
     814:	0b3b0b3a 	bleq	ec3504 <__SP_usr_+0xe63a84>
     818:	00001301 	andeq	r1, r0, r1, lsl #6
     81c:	03000d05 	movweq	r0, #3333	; 0xd05
     820:	3b0b3a08 	blcc	2cf048 <__SP_usr_+0x26f5c8>
     824:	3813490b 	ldmdacc	r3, {r0, r1, r3, r8, fp, lr}
     828:	0600000b 	streq	r0, [r0], -fp
     82c:	13490101 	movtne	r0, #37121	; 0x9101
     830:	00001301 	andeq	r1, r0, r1, lsl #6
     834:	49002107 	stmdbmi	r0, {r0, r1, r2, r8, sp}
     838:	000b2f13 	andeq	r2, fp, r3, lsl pc
     83c:	000d0800 	andeq	r0, sp, r0, lsl #16
     840:	0b3a0e03 	bleq	e84054 <__SP_usr_+0xe245d4>
     844:	13490b3b 	movtne	r0, #39739	; 0x9b3b
     848:	00000b38 	andeq	r0, r0, r8, lsr fp
     84c:	0b000f09 	bleq	4478 <unused+0x4474>
     850:	0013490b 	andseq	r4, r3, fp, lsl #18
     854:	00150a00 	andseq	r0, r5, r0, lsl #20
     858:	00001927 	andeq	r1, r0, r7, lsr #18
     85c:	4900260b 	stmdbmi	r0, {r0, r1, r3, r9, sl, sp}
     860:	0c000013 	stceq	0, cr0, [r0], {19}
     864:	0b0b0113 	bleq	2c0cb8 <__SP_usr_+0x261238>
     868:	0b3b0b3a 	bleq	ec3558 <__SP_usr_+0xe63ad8>
     86c:	00001301 	andeq	r1, r0, r1, lsl #6
     870:	03000d0d 	movweq	r0, #3341	; 0xd0d
     874:	3b0b3a0e 	blcc	2cf0b4 <__SP_usr_+0x26f634>
     878:	38134905 	ldmdacc	r3, {r0, r2, r8, fp, lr}
     87c:	0e00000b 	cdpeq	0, 0, cr0, cr0, cr11, {0}
     880:	0e030016 	mcreq	0, 0, r0, cr3, cr6, {0}
     884:	053b0b3a 	ldreq	r0, [fp, #-2874]!	; 0xb3a
     888:	00001349 	andeq	r1, r0, r9, asr #6
     88c:	3f012e0f 	svccc	0x00012e0f
     890:	3a0e0319 	bcc	3814fc <__SP_usr_+0x321a7c>
     894:	270b3b0b 	strcs	r3, [fp, -fp, lsl #22]
     898:	12011119 	andne	r1, r1, #1073741830	; 0x40000006
     89c:	97184006 	ldrls	r4, [r8, -r6]
     8a0:	13011942 	movwne	r1, #6466	; 0x1942
     8a4:	05100000 	ldreq	r0, [r0, #-0]
     8a8:	3a0e0300 	bcc	3814b0 <__SP_usr_+0x321a30>
     8ac:	490b3b0b 	stmdbmi	fp, {r0, r1, r3, r8, r9, fp, ip, sp}
     8b0:	00180213 	andseq	r0, r8, r3, lsl r2
     8b4:	00341100 	eorseq	r1, r4, r0, lsl #2
     8b8:	0b3a0803 	bleq	e828cc <__SP_usr_+0xe22e4c>
     8bc:	13490b3b 	movtne	r0, #39739	; 0x9b3b
     8c0:	00001802 	andeq	r1, r0, r2, lsl #16
     8c4:	11010b12 	tstne	r1, r2, lsl fp
     8c8:	00061201 	andeq	r1, r6, r1, lsl #4
     8cc:	00341300 	eorseq	r1, r4, r0, lsl #6
     8d0:	0b3a0e03 	bleq	e840e4 <__SP_usr_+0xe24664>
     8d4:	13490b3b 	movtne	r0, #39739	; 0x9b3b
     8d8:	00001802 	andeq	r1, r0, r2, lsl #16
     8dc:	3f012e14 	svccc	0x00012e14
     8e0:	3a0e0319 	bcc	38154c <__SP_usr_+0x321acc>
     8e4:	270b3b0b 	strcs	r3, [fp, -fp, lsl #22]
     8e8:	11134919 	tstne	r3, r9, lsl r9
     8ec:	40061201 	andmi	r1, r6, r1, lsl #4
     8f0:	19429618 	stmdbne	r2, {r3, r4, r9, sl, ip, pc}^
     8f4:	00001301 	andeq	r1, r0, r1, lsl #6
     8f8:	03003415 	movweq	r3, #1045	; 0x415
     8fc:	3b0b3a0e 	blcc	2cf13c <__SP_usr_+0x26f6bc>
     900:	3f13490b 	svccc	0x0013490b
     904:	00193c19 	andseq	r3, r9, r9, lsl ip
     908:	00341600 	eorseq	r1, r4, r0, lsl #12
     90c:	0b3a0e03 	bleq	e84120 <__SP_usr_+0xe246a0>
     910:	13490b3b 	movtne	r0, #39739	; 0x9b3b
     914:	1802193f 	stmdane	r2, {r0, r1, r2, r3, r4, r5, r8, fp, ip}
     918:	34170000 	ldrcc	r0, [r7], #-0
     91c:	3a0e0300 	bcc	381524 <__SP_usr_+0x321aa4>
     920:	49053b0b 	stmdbmi	r5, {r0, r1, r3, r8, r9, fp, ip, sp}
     924:	3c193f13 	ldccc	15, cr3, [r9], {19}
     928:	18000019 	stmdane	r0, {r0, r3, r4}
     92c:	00000021 	andeq	r0, r0, r1, lsr #32
     930:	01110100 	tsteq	r1, r0, lsl #2
     934:	0b130e25 	bleq	4c41d0 <__SP_usr_+0x464750>
     938:	0e1b0e03 	cdpeq	14, 1, cr0, cr11, cr3, {0}
     93c:	01111755 	tsteq	r1, r5, asr r7
     940:	00001710 	andeq	r1, r0, r0, lsl r7
     944:	03001602 	movweq	r1, #1538	; 0x602
     948:	3b0b3a0e 	blcc	2cf188 <__SP_usr_+0x26f708>
     94c:	0013490b 	andseq	r4, r3, fp, lsl #18
     950:	00240300 	eoreq	r0, r4, r0, lsl #6
     954:	0b3e0b0b 	bleq	f83588 <__SP_usr_+0xf23b08>
     958:	00000e03 	andeq	r0, r0, r3, lsl #28
     95c:	03011304 	movweq	r1, #4868	; 0x1304
     960:	3a0b0b0e 	bcc	2c35a0 <__SP_usr_+0x263b20>
     964:	010b3b0b 	tsteq	fp, fp, lsl #22
     968:	05000013 	streq	r0, [r0, #-19]
     96c:	0e03000d 	cdpeq	0, 0, cr0, cr3, cr13, {0}
     970:	0b3b0b3a 	bleq	ec3660 <__SP_usr_+0xe63be0>
     974:	0b381349 	bleq	e056a0 <__SP_usr_+0xda5c20>
     978:	0f060000 	svceq	0x00060000
     97c:	490b0b00 	stmdbmi	fp, {r8, r9, fp}
     980:	07000013 	smladeq	r0, r3, r0, r0
     984:	19270115 	stmdbne	r7!, {r0, r2, r4, r8}
     988:	00001301 	andeq	r1, r0, r1, lsl #6
     98c:	49000508 	stmdbmi	r0, {r3, r8, sl}
     990:	09000013 	stmdbeq	r0, {r0, r1, r4}
     994:	13490026 	movtne	r0, #36902	; 0x9026
     998:	2e0a0000 	cdpcs	0, 0, cr0, cr10, cr0, {0}
     99c:	03193f01 	tsteq	r9, #1, 30
     9a0:	3b0b3a0e 	blcc	2cf1e0 <__SP_usr_+0x26f760>
     9a4:	1119270b 	tstne	r9, fp, lsl #14
     9a8:	40061201 	andmi	r1, r6, r1, lsl #4
     9ac:	19429618 	stmdbne	r2, {r3, r4, r9, sl, ip, pc}^
     9b0:	00001301 	andeq	r1, r0, r1, lsl #6
     9b4:	0300050b 	movweq	r0, #1291	; 0x50b
     9b8:	3b0b3a0e 	blcc	2cf1f8 <__SP_usr_+0x26f778>
     9bc:	0213490b 	andseq	r4, r3, #180224	; 0x2c000
     9c0:	0c000018 	stceq	0, cr0, [r0], {24}
     9c4:	0e030034 	mcreq	0, 0, r0, cr3, cr4, {1}
     9c8:	0b3b0b3a 	bleq	ec36b8 <__SP_usr_+0xe63c38>
     9cc:	18021349 	stmdane	r2, {r0, r3, r6, r8, r9, ip}
     9d0:	2e0d0000 	cdpcs	0, 0, cr0, cr13, cr0, {0}
     9d4:	03193f01 	tsteq	r9, #1, 30
     9d8:	3b0b3a0e 	blcc	2cf218 <__SP_usr_+0x26f798>
     9dc:	4919270b 	ldmdbmi	r9, {r0, r1, r3, r8, r9, sl, sp}
     9e0:	12011113 	andne	r1, r1, #-1073741820	; 0xc0000004
     9e4:	96184006 	ldrls	r4, [r8], -r6
     9e8:	13011942 	movwne	r1, #6466	; 0x1942
     9ec:	0b0e0000 	bleq	3809f4 <__SP_usr_+0x320f74>
     9f0:	12011101 	andne	r1, r1, #1073741824	; 0x40000000
     9f4:	0f000006 	svceq	0x00000006
     9f8:	08030034 	stmdaeq	r3, {r2, r4, r5}
     9fc:	0b3b0b3a 	bleq	ec36ec <__SP_usr_+0xe63c6c>
     a00:	18021349 	stmdane	r2, {r0, r3, r6, r8, r9, ip}
     a04:	2e100000 	cdpcs	0, 1, cr0, cr0, cr0, {0}
     a08:	03193f01 	tsteq	r9, #1, 30
     a0c:	3b0b3a0e 	blcc	2cf24c <__SP_usr_+0x26f7cc>
     a10:	49192705 	ldmdbmi	r9, {r0, r2, r8, r9, sl, sp}
     a14:	12011113 	andne	r1, r1, #-1073741820	; 0xc0000004
     a18:	96184006 	ldrls	r4, [r8], -r6
     a1c:	13011942 	movwne	r1, #6466	; 0x1942
     a20:	05110000 	ldreq	r0, [r1, #-0]
     a24:	3a0e0300 	bcc	38162c <__SP_usr_+0x321bac>
     a28:	49053b0b 	stmdbmi	r5, {r0, r1, r3, r8, r9, fp, ip, sp}
     a2c:	00180213 	andseq	r0, r8, r3, lsl r2
     a30:	00341200 	eorseq	r1, r4, r0, lsl #4
     a34:	0b3a0e03 	bleq	e84248 <__SP_usr_+0xe247c8>
     a38:	1349053b 	movtne	r0, #38203	; 0x953b
     a3c:	00001802 	andeq	r1, r0, r2, lsl #16
     a40:	49010113 	stmdbmi	r1, {r0, r1, r4, r8}
     a44:	00130113 	andseq	r0, r3, r3, lsl r1
     a48:	00211400 	eoreq	r1, r1, r0, lsl #8
     a4c:	0b2f1349 	bleq	bc5778 <__SP_usr_+0xb65cf8>
     a50:	34150000 	ldrcc	r0, [r5], #-0
     a54:	3a0e0300 	bcc	38165c <__SP_usr_+0x321bdc>
     a58:	490b3b0b 	stmdbmi	fp, {r0, r1, r3, r8, r9, fp, ip, sp}
     a5c:	3c193f13 	ldccc	15, cr3, [r9], {19}
     a60:	16000019 			; <UNDEFINED> instruction: 0x16000019
     a64:	0e030034 	mcreq	0, 0, r0, cr3, cr4, {1}
     a68:	0b3b0b3a 	bleq	ec3758 <__SP_usr_+0xe63cd8>
     a6c:	193f1349 	ldmdbne	pc!, {r0, r3, r6, r8, r9, ip}	; <UNPREDICTABLE>
     a70:	00001802 	andeq	r1, r0, r2, lsl #16
     a74:	01110100 	tsteq	r1, r0, lsl #2
     a78:	0b130e25 	bleq	4c4314 <__SP_usr_+0x464894>
     a7c:	0e1b0e03 	cdpeq	14, 1, cr0, cr11, cr3, {0}
     a80:	01111755 	tsteq	r1, r5, asr r7
     a84:	00001710 	andeq	r1, r0, r0, lsl r7
     a88:	03001602 	movweq	r1, #1538	; 0x602
     a8c:	3b0b3a0e 	blcc	2cf2cc <__SP_usr_+0x26f84c>
     a90:	0013490b 	andseq	r4, r3, fp, lsl #18
     a94:	00240300 	eoreq	r0, r4, r0, lsl #6
     a98:	0b3e0b0b 	bleq	f836cc <__SP_usr_+0xf23c4c>
     a9c:	00000e03 	andeq	r0, r0, r3, lsl #28
     aa0:	0b000f04 	bleq	46b8 <unused+0x46b4>
     aa4:	0013490b 	andseq	r4, r3, fp, lsl #18
     aa8:	002e0500 	eoreq	r0, lr, r0, lsl #10
     aac:	0e03193f 	mcreq	9, 0, r1, cr3, cr15, {1}
     ab0:	0b3b0b3a 	bleq	ec37a0 <__SP_usr_+0xe63d20>
     ab4:	01111927 	tsteq	r1, r7, lsr #18
     ab8:	18400612 	stmdane	r0, {r1, r4, r9, sl}^
     abc:	00194296 	mulseq	r9, r6, r2
     ac0:	002e0600 	eoreq	r0, lr, r0, lsl #12
     ac4:	0e03193f 	mcreq	9, 0, r1, cr3, cr15, {1}
     ac8:	0b3b0b3a 	bleq	ec37b8 <__SP_usr_+0xe63d38>
     acc:	01111927 	tsteq	r1, r7, lsr #18
     ad0:	18400612 	stmdane	r0, {r1, r4, r9, sl}^
     ad4:	00194297 	mulseq	r9, r7, r2
     ad8:	012e0700 			; <UNDEFINED> instruction: 0x012e0700
     adc:	0e03193f 	mcreq	9, 0, r1, cr3, cr15, {1}
     ae0:	0b3b0b3a 	bleq	ec37d0 <__SP_usr_+0xe63d50>
     ae4:	13491927 	movtne	r1, #39207	; 0x9927
     ae8:	06120111 			; <UNDEFINED> instruction: 0x06120111
     aec:	42961840 	addsmi	r1, r6, #64, 16	; 0x400000
     af0:	00130119 	andseq	r0, r3, r9, lsl r1
     af4:	00340800 	eorseq	r0, r4, r0, lsl #16
     af8:	0b3a0803 	bleq	e82b0c <__SP_usr_+0xe2308c>
     afc:	13490b3b 	movtne	r0, #39739	; 0x9b3b
     b00:	00001802 	andeq	r1, r0, r2, lsl #16
     b04:	0b002409 	bleq	9b30 <tpl_put_new_proc+0x1c>
     b08:	030b3e0b 	movweq	r3, #48651	; 0xbe0b
     b0c:	0a000008 	beq	b34 <unused+0xb30>
     b10:	193f012e 	ldmdbne	pc!, {r1, r2, r3, r5, r8}	; <UNPREDICTABLE>
     b14:	0b3a0e03 	bleq	e84328 <__SP_usr_+0xe248a8>
     b18:	19270b3b 	stmdbne	r7!, {r0, r1, r3, r4, r5, r8, r9, fp}
     b1c:	06120111 			; <UNDEFINED> instruction: 0x06120111
     b20:	42971840 	addsmi	r1, r7, #64, 16	; 0x400000
     b24:	00130119 	andseq	r0, r3, r9, lsl r1
     b28:	00050b00 	andeq	r0, r5, r0, lsl #22
     b2c:	0b3a0e03 	bleq	e84340 <__SP_usr_+0xe248c0>
     b30:	13490b3b 	movtne	r0, #39739	; 0x9b3b
     b34:	00001802 	andeq	r1, r0, r2, lsl #16
     b38:	3f012e0c 	svccc	0x00012e0c
     b3c:	3a0e0319 	bcc	3817a8 <__SP_usr_+0x321d28>
     b40:	110b3b0b 	tstne	fp, fp, lsl #22
     b44:	40061201 	andmi	r1, r6, r1, lsl #4
     b48:	19429618 	stmdbne	r2, {r3, r4, r9, sl, ip, pc}^
     b4c:	00001301 	andeq	r1, r0, r1, lsl #6
     b50:	0300340d 	movweq	r3, #1037	; 0x40d
     b54:	3b0b3a0e 	blcc	2cf394 <__SP_usr_+0x26f914>
     b58:	0213490b 	andseq	r4, r3, #180224	; 0x2c000
     b5c:	0e000018 	mcreq	0, 0, r0, cr0, cr8, {0}
     b60:	0e030034 	mcreq	0, 0, r0, cr3, cr4, {1}
     b64:	0b3b0b3a 	bleq	ec3854 <__SP_usr_+0xe63dd4>
     b68:	193f1349 	ldmdbne	pc!, {r0, r3, r6, r8, r9, ip}	; <UNPREDICTABLE>
     b6c:	0000193c 	andeq	r1, r0, ip, lsr r9
     b70:	4900260f 	stmdbmi	r0, {r0, r1, r2, r3, r9, sl, sp}
     b74:	10000013 	andne	r0, r0, r3, lsl r0
     b78:	0e030034 	mcreq	0, 0, r0, cr3, cr4, {1}
     b7c:	0b3b0b3a 	bleq	ec386c <__SP_usr_+0xe63dec>
     b80:	193f1349 	ldmdbne	pc!, {r0, r3, r6, r8, r9, ip}	; <UNPREDICTABLE>
     b84:	00001802 	andeq	r1, r0, r2, lsl #16
     b88:	49003511 	stmdbmi	r0, {r0, r4, r8, sl, ip, sp}
     b8c:	00000013 	andeq	r0, r0, r3, lsl r0
     b90:	25011101 	strcs	r1, [r1, #-257]	; 0x101
     b94:	030b130e 	movweq	r1, #45838	; 0xb30e
     b98:	550e1b0e 	strpl	r1, [lr, #-2830]	; 0xb0e
     b9c:	10011117 	andne	r1, r1, r7, lsl r1
     ba0:	02000017 	andeq	r0, r0, #23
     ba4:	0e030016 	mcreq	0, 0, r0, cr3, cr6, {0}
     ba8:	0b3b0b3a 	bleq	ec3898 <__SP_usr_+0xe63e18>
     bac:	00001349 	andeq	r1, r0, r9, asr #6
     bb0:	0b002403 	bleq	9bc4 <tpl_put_new_proc+0xb0>
     bb4:	030b3e0b 	movweq	r3, #48651	; 0xbe0b
     bb8:	0400000e 	streq	r0, [r0], #-14
     bbc:	0e030113 	mcreq	1, 0, r0, cr3, cr3, {0}
     bc0:	0b3a0b0b 	bleq	e837f4 <__SP_usr_+0xe23d74>
     bc4:	13010b3b 	movwne	r0, #6971	; 0x1b3b
     bc8:	0d050000 	stceq	0, cr0, [r5, #-0]
     bcc:	3a080300 	bcc	2017d4 <__SP_usr_+0x1a1d54>
     bd0:	490b3b0b 	stmdbmi	fp, {r0, r1, r3, r8, r9, fp, ip, sp}
     bd4:	000b3813 	andeq	r3, fp, r3, lsl r8
     bd8:	01010600 	tsteq	r1, r0, lsl #12
     bdc:	13011349 	movwne	r1, #4937	; 0x1349
     be0:	21070000 	mrscs	r0, (UNDEF: 7)
     be4:	2f134900 	svccs	0x00134900
     be8:	0800000b 	stmdaeq	r0, {r0, r1, r3}
     bec:	0e03000d 	cdpeq	0, 0, cr0, cr3, cr13, {0}
     bf0:	0b3b0b3a 	bleq	ec38e0 <__SP_usr_+0xe63e60>
     bf4:	0b381349 	bleq	e05920 <__SP_usr_+0xda5ea0>
     bf8:	0f090000 	svceq	0x00090000
     bfc:	490b0b00 	stmdbmi	fp, {r8, r9, fp}
     c00:	0a000013 	beq	c54 <unused+0xc50>
     c04:	19270015 	stmdbne	r7!, {r0, r2, r4}
     c08:	130b0000 	movwne	r0, #45056	; 0xb000
     c0c:	3a0b0b01 	bcc	2c3818 <__SP_usr_+0x263d98>
     c10:	010b3b0b 	tsteq	fp, fp, lsl #22
     c14:	0c000013 	stceq	0, cr0, [r0], {19}
     c18:	13490026 	movtne	r0, #36902	; 0x9026
     c1c:	0d0d0000 	stceq	0, cr0, [sp, #-0]
     c20:	3a0e0300 	bcc	381828 <__SP_usr_+0x321da8>
     c24:	49053b0b 	stmdbmi	r5, {r0, r1, r3, r8, r9, fp, ip, sp}
     c28:	000b3813 	andeq	r3, fp, r3, lsl r8
     c2c:	00160e00 	andseq	r0, r6, r0, lsl #28
     c30:	0b3a0e03 	bleq	e84444 <__SP_usr_+0xe249c4>
     c34:	1349053b 	movtne	r0, #38203	; 0x953b
     c38:	130f0000 	movwne	r0, #61440	; 0xf000
     c3c:	3a0b0b01 	bcc	2c3848 <__SP_usr_+0x263dc8>
     c40:	01053b0b 	tsteq	r5, fp, lsl #22
     c44:	10000013 	andne	r0, r0, r3, lsl r0
     c48:	0803000d 	stmdaeq	r3, {r0, r2, r3}
     c4c:	053b0b3a 	ldreq	r0, [fp, #-2874]!	; 0xb3a
     c50:	0b381349 	bleq	e0597c <__SP_usr_+0xda5efc>
     c54:	15110000 	ldrne	r0, [r1, #-0]
     c58:	01192701 	tsteq	r9, r1, lsl #14
     c5c:	12000013 	andne	r0, r0, #19
     c60:	13490005 	movtne	r0, #36869	; 0x9005
     c64:	26130000 	ldrcs	r0, [r3], -r0
     c68:	14000000 	strne	r0, [r0], #-0
     c6c:	0b0b000f 	bleq	2c0cb0 <__SP_usr_+0x261230>
     c70:	2e150000 	cdpcs	0, 1, cr0, cr5, cr0, {0}
     c74:	03193f00 	tsteq	r9, #0, 30
     c78:	3b0b3a0e 	blcc	2cf4b8 <__SP_usr_+0x26fa38>
     c7c:	1201110b 	andne	r1, r1, #-1073741822	; 0xc0000002
     c80:	96184006 	ldrls	r4, [r8], -r6
     c84:	00001942 	andeq	r1, r0, r2, asr #18
     c88:	3f002e16 	svccc	0x00002e16
     c8c:	3a0e0319 	bcc	3818f8 <__SP_usr_+0x321e78>
     c90:	11053b0b 	tstne	r5, fp, lsl #22
     c94:	40061201 	andmi	r1, r6, r1, lsl #4
     c98:	19429618 	stmdbne	r2, {r3, r4, r9, sl, ip, pc}^
     c9c:	34170000 	ldrcc	r0, [r7], #-0
     ca0:	3a0e0300 	bcc	3818a8 <__SP_usr_+0x321e28>
     ca4:	49053b0b 	stmdbmi	r5, {r0, r1, r3, r8, r9, fp, ip, sp}
     ca8:	02193f13 	andseq	r3, r9, #19, 30	; 0x4c
     cac:	18000018 	stmdane	r0, {r3, r4}
     cb0:	0e030034 	mcreq	0, 0, r0, cr3, cr4, {1}
     cb4:	0b3b0b3a 	bleq	ec39a4 <__SP_usr_+0xe63f24>
     cb8:	193f1349 	ldmdbne	pc!, {r0, r3, r6, r8, r9, ip}	; <UNPREDICTABLE>
     cbc:	00001802 	andeq	r1, r0, r2, lsl #16
     cc0:	03003419 	movweq	r3, #1049	; 0x419
     cc4:	3b0b3a0e 	blcc	2cf504 <__SP_usr_+0x26fa84>
     cc8:	3f13490b 	svccc	0x0013490b
     ccc:	00193c19 	andseq	r3, r9, r9, lsl ip
     cd0:	00341a00 	eorseq	r1, r4, r0, lsl #20
     cd4:	0b3a0803 	bleq	e82ce8 <__SP_usr_+0xe23268>
     cd8:	13490b3b 	movtne	r0, #39739	; 0x9b3b
     cdc:	1802193f 	stmdane	r2, {r0, r1, r2, r3, r4, r5, r8, fp, ip}
     ce0:	01000000 	mrseq	r0, (UNDEF: 0)
     ce4:	0e250111 	mcreq	1, 1, r0, cr5, cr1, {0}
     ce8:	0e030b13 	vmoveq.32	d3[0], r0
     cec:	17100e1b 			; <UNDEFINED> instruction: 0x17100e1b
     cf0:	16020000 	strne	r0, [r2], -r0
     cf4:	3a0e0300 	bcc	3818fc <__SP_usr_+0x321e7c>
     cf8:	490b3b0b 	stmdbmi	fp, {r0, r1, r3, r8, r9, fp, ip, sp}
     cfc:	03000013 	movweq	r0, #19
     d00:	0b0b000f 	bleq	2c0d44 <__SP_usr_+0x2612c4>
     d04:	00001349 	andeq	r1, r0, r9, asr #6
     d08:	27001504 	strcs	r1, [r0, -r4, lsl #10]
     d0c:	05000019 	streq	r0, [r0, #-25]
     d10:	0b0b0024 	bleq	2c0da8 <__SP_usr_+0x261328>
     d14:	0e030b3e 	vmoveq.16	d3[0], r0
     d18:	01060000 	mrseq	r0, (UNDEF: 6)
     d1c:	01134901 	tsteq	r3, r1, lsl #18
     d20:	07000013 	smladeq	r0, r3, r0, r0
     d24:	13490021 	movtne	r0, #36897	; 0x9021
     d28:	00000b2f 	andeq	r0, r0, pc, lsr #22
     d2c:	03003408 	movweq	r3, #1032	; 0x408
     d30:	3b0b3a0e 	blcc	2cf570 <__SP_usr_+0x26faf0>
     d34:	3f13490b 	svccc	0x0013490b
     d38:	00180219 	andseq	r0, r8, r9, lsl r2
     d3c:	00260900 	eoreq	r0, r6, r0, lsl #18
     d40:	00001349 	andeq	r1, r0, r9, asr #6
     d44:	00110100 	andseq	r0, r1, r0, lsl #2
     d48:	01110610 	tsteq	r1, r0, lsl r6
     d4c:	08030112 	stmdaeq	r3, {r1, r4, r8}
     d50:	0825081b 	stmdaeq	r5!, {r0, r1, r3, r4, fp}
     d54:	00000513 	andeq	r0, r0, r3, lsl r5
     d58:	00110100 	andseq	r0, r1, r0, lsl #2
     d5c:	01110610 	tsteq	r1, r0, lsl r6
     d60:	08030112 	stmdaeq	r3, {r1, r4, r8}
     d64:	0825081b 	stmdaeq	r5!, {r0, r1, r3, r4, fp}
     d68:	00000513 	andeq	r0, r0, r3, lsl r5
     d6c:	00110100 	andseq	r0, r1, r0, lsl #2
     d70:	01110610 	tsteq	r1, r0, lsl r6
     d74:	08030112 	stmdaeq	r3, {r1, r4, r8}
     d78:	0825081b 	stmdaeq	r5!, {r0, r1, r3, r4, fp}
     d7c:	00000513 	andeq	r0, r0, r3, lsl r5
     d80:	00110100 	andseq	r0, r1, r0, lsl #2
     d84:	01110610 	tsteq	r1, r0, lsl r6
     d88:	08030112 	stmdaeq	r3, {r1, r4, r8}
     d8c:	0825081b 	stmdaeq	r5!, {r0, r1, r3, r4, fp}
     d90:	00000513 	andeq	r0, r0, r3, lsl r5
     d94:	00110100 	andseq	r0, r1, r0, lsl #2
     d98:	01110610 	tsteq	r1, r0, lsl r6
     d9c:	08030112 	stmdaeq	r3, {r1, r4, r8}
     da0:	0825081b 	stmdaeq	r5!, {r0, r1, r3, r4, fp}
     da4:	00000513 	andeq	r0, r0, r3, lsl r5
     da8:	01110100 	tsteq	r1, r0, lsl #2
     dac:	0b130e25 	bleq	4c4648 <__SP_usr_+0x464bc8>
     db0:	0e1b0e03 	cdpeq	14, 1, cr0, cr11, cr3, {0}
     db4:	01111755 	tsteq	r1, r5, asr r7
     db8:	00001710 	andeq	r1, r0, r0, lsl r7
     dbc:	03001602 	movweq	r1, #1538	; 0x602
     dc0:	3b0b3a0e 	blcc	2cf600 <__SP_usr_+0x26fb80>
     dc4:	0013490b 	andseq	r4, r3, fp, lsl #18
     dc8:	00240300 	eoreq	r0, r4, r0, lsl #6
     dcc:	0b3e0b0b 	bleq	f83a00 <__SP_usr_+0xf23f80>
     dd0:	00000e03 	andeq	r0, r0, r3, lsl #28
     dd4:	0b000f04 	bleq	49ec <unused+0x49e8>
     dd8:	0013490b 	andseq	r4, r3, fp, lsl #18
     ddc:	00150500 	andseq	r0, r5, r0, lsl #10
     de0:	00001927 	andeq	r1, r0, r7, lsr #18
     de4:	0b010406 	bleq	41e04 <vectors_end+0x33784>
     de8:	3b0b3a0b 	blcc	2cf61c <__SP_usr_+0x26fb9c>
     dec:	0013010b 	andseq	r0, r3, fp, lsl #2
     df0:	00280700 	eoreq	r0, r8, r0, lsl #14
     df4:	0d1c0e03 	ldceq	14, cr0, [ip, #-12]
     df8:	13080000 	movwne	r0, #32768	; 0x8000
     dfc:	0b0e0301 	bleq	381a08 <__SP_usr_+0x321f88>
     e00:	3b0b3a0b 	blcc	2cf634 <__SP_usr_+0x26fbb4>
     e04:	0013010b 	andseq	r0, r3, fp, lsl #2
     e08:	000d0900 	andeq	r0, sp, r0, lsl #18
     e0c:	0b3a0803 	bleq	e82e20 <__SP_usr_+0xe233a0>
     e10:	13490b3b 	movtne	r0, #39739	; 0x9b3b
     e14:	00000b38 	andeq	r0, r0, r8, lsr fp
     e18:	4901010a 	stmdbmi	r1, {r1, r3, r8}
     e1c:	00130113 	andseq	r0, r3, r3, lsl r1
     e20:	00210b00 	eoreq	r0, r1, r0, lsl #22
     e24:	0b2f1349 	bleq	bc5b50 <__SP_usr_+0xb660d0>
     e28:	0d0c0000 	stceq	0, cr0, [ip, #-0]
     e2c:	3a0e0300 	bcc	381a34 <__SP_usr_+0x321fb4>
     e30:	490b3b0b 	stmdbmi	fp, {r0, r1, r3, r8, r9, fp, ip, sp}
     e34:	000b3813 	andeq	r3, fp, r3, lsl r8
     e38:	01130d00 	tsteq	r3, r0, lsl #26
     e3c:	0b3a0b0b 	bleq	e83a70 <__SP_usr_+0xe23ff0>
     e40:	13010b3b 	movwne	r0, #6971	; 0x1b3b
     e44:	260e0000 	strcs	r0, [lr], -r0
     e48:	00134900 	andseq	r4, r3, r0, lsl #18
     e4c:	002e0f00 	eoreq	r0, lr, r0, lsl #30
     e50:	0e03193f 	mcreq	9, 0, r1, cr3, cr15, {1}
     e54:	0b3b0b3a 	bleq	ec3b44 <__SP_usr_+0xe640c4>
     e58:	01111927 	tsteq	r1, r7, lsr #18
     e5c:	18400612 	stmdane	r0, {r1, r4, r9, sl}^
     e60:	00194297 	mulseq	r9, r7, r2
     e64:	002e1000 	eoreq	r1, lr, r0
     e68:	0e03193f 	mcreq	9, 0, r1, cr3, cr15, {1}
     e6c:	0b3b0b3a 	bleq	ec3b5c <__SP_usr_+0xe640dc>
     e70:	01111927 	tsteq	r1, r7, lsr #18
     e74:	18400612 	stmdane	r0, {r1, r4, r9, sl}^
     e78:	00194296 	mulseq	r9, r6, r2
     e7c:	012e1100 			; <UNDEFINED> instruction: 0x012e1100
     e80:	0e03193f 	mcreq	9, 0, r1, cr3, cr15, {1}
     e84:	0b3b0b3a 	bleq	ec3b74 <__SP_usr_+0xe640f4>
     e88:	01111927 	tsteq	r1, r7, lsr #18
     e8c:	18400612 	stmdane	r0, {r1, r4, r9, sl}^
     e90:	01194297 			; <UNDEFINED> instruction: 0x01194297
     e94:	12000013 	andne	r0, r0, #19
     e98:	0e030005 	cdpeq	0, 0, cr0, cr3, cr5, {0}
     e9c:	0b3b0b3a 	bleq	ec3b8c <__SP_usr_+0xe6410c>
     ea0:	18021349 	stmdane	r2, {r0, r3, r6, r8, r9, ip}
     ea4:	34130000 	ldrcc	r0, [r3], #-0
     ea8:	3a0e0300 	bcc	381ab0 <__SP_usr_+0x322030>
     eac:	490b3b0b 	stmdbmi	fp, {r0, r1, r3, r8, r9, fp, ip, sp}
     eb0:	00180213 	andseq	r0, r8, r3, lsl r2
     eb4:	012e1400 			; <UNDEFINED> instruction: 0x012e1400
     eb8:	0e03193f 	mcreq	9, 0, r1, cr3, cr15, {1}
     ebc:	0b3b0b3a 	bleq	ec3bac <__SP_usr_+0xe6412c>
     ec0:	13491927 	movtne	r1, #39207	; 0x9927
     ec4:	06120111 			; <UNDEFINED> instruction: 0x06120111
     ec8:	42971840 	addsmi	r1, r7, #64, 16	; 0x400000
     ecc:	00130119 	andseq	r0, r3, r9, lsl r1
     ed0:	00341500 	eorseq	r1, r4, r0, lsl #10
     ed4:	0b3a0803 	bleq	e82ee8 <__SP_usr_+0xe23468>
     ed8:	13490b3b 	movtne	r0, #39739	; 0x9b3b
     edc:	00001802 	andeq	r1, r0, r2, lsl #16
     ee0:	03003416 	movweq	r3, #1046	; 0x416
     ee4:	3b0b3a0e 	blcc	2cf724 <__SP_usr_+0x26fca4>
     ee8:	3f13490b 	svccc	0x0013490b
     eec:	00180219 	andseq	r0, r8, r9, lsl r2
     ef0:	00341700 	eorseq	r1, r4, r0, lsl #14
     ef4:	0b3a0e03 	bleq	e84708 <__SP_usr_+0xe24c88>
     ef8:	1349053b 	movtne	r0, #38203	; 0x953b
     efc:	193c193f 	ldmdbne	ip!, {r0, r1, r2, r3, r4, r5, r8, fp, ip}
     f00:	35180000 	ldrcc	r0, [r8, #-0]
     f04:	00134900 	andseq	r4, r3, r0, lsl #18
     f08:	11010000 	mrsne	r0, (UNDEF: 1)
     f0c:	130e2501 	movwne	r2, #58625	; 0xe501
     f10:	1b0e030b 	blne	381b44 <__SP_usr_+0x3220c4>
     f14:	1201110e 	andne	r1, r1, #-2147483645	; 0x80000003
     f18:	00171006 	andseq	r1, r7, r6
     f1c:	00240200 	eoreq	r0, r4, r0, lsl #4
     f20:	0b3e0b0b 	bleq	f83b54 <__SP_usr_+0xf240d4>
     f24:	00000e03 	andeq	r0, r0, r3, lsl #28
     f28:	03001603 	movweq	r1, #1539	; 0x603
     f2c:	3b0b3a0e 	blcc	2cf76c <__SP_usr_+0x26fcec>
     f30:	0013490b 	andseq	r4, r3, fp, lsl #18
     f34:	00240400 	eoreq	r0, r4, r0, lsl #8
     f38:	0b3e0b0b 	bleq	f83b6c <__SP_usr_+0xf240ec>
     f3c:	00000803 	andeq	r0, r0, r3, lsl #16
     f40:	3f012e05 	svccc	0x00012e05
     f44:	3a0e0319 	bcc	381bb0 <__SP_usr_+0x322130>
     f48:	270b3b0b 	strcs	r3, [fp, -fp, lsl #22]
     f4c:	12011119 	andne	r1, r1, #1073741830	; 0x40000006
     f50:	97184006 	ldrls	r4, [r8, -r6]
     f54:	13011942 	movwne	r1, #6466	; 0x1942
     f58:	05060000 	streq	r0, [r6, #-0]
     f5c:	3a080300 	bcc	201b64 <__SP_usr_+0x1a20e4>
     f60:	490b3b0b 	stmdbmi	fp, {r0, r1, r3, r8, r9, fp, ip, sp}
     f64:	00180213 	andseq	r0, r8, r3, lsl r2
     f68:	00340700 	eorseq	r0, r4, r0, lsl #14
     f6c:	0b3a0803 	bleq	e82f80 <__SP_usr_+0xe23500>
     f70:	13490b3b 	movtne	r0, #39739	; 0x9b3b
     f74:	00001802 	andeq	r1, r0, r2, lsl #16
     f78:	49003508 	stmdbmi	r0, {r3, r8, sl, ip, sp}
     f7c:	00000013 	andeq	r0, r0, r3, lsl r0
     f80:	10001101 	andne	r1, r0, r1, lsl #2
     f84:	12011106 	andne	r1, r1, #-2147483647	; 0x80000001
     f88:	1b080301 	blne	201b94 <__SP_usr_+0x1a2114>
     f8c:	13082508 	movwne	r2, #34056	; 0x8508
     f90:	00000005 	andeq	r0, r0, r5
     f94:	10001101 	andne	r1, r0, r1, lsl #2
     f98:	12011106 	andne	r1, r1, #-2147483647	; 0x80000001
     f9c:	1b080301 	blne	201ba8 <__SP_usr_+0x1a2128>
     fa0:	13082508 	movwne	r2, #34056	; 0x8508
     fa4:	00000005 	andeq	r0, r0, r5
     fa8:	25011101 	strcs	r1, [r1, #-257]	; 0x101
     fac:	030b130e 	movweq	r1, #45838	; 0xb30e
     fb0:	110e1b0e 	tstne	lr, lr, lsl #22
     fb4:	10061201 	andne	r1, r6, r1, lsl #4
     fb8:	02000017 	andeq	r0, r0, #23
     fbc:	0b0b0024 	bleq	2c1054 <__SP_usr_+0x2615d4>
     fc0:	0e030b3e 	vmoveq.16	d3[0], r0
     fc4:	24030000 	strcs	r0, [r3], #-0
     fc8:	3e0b0b00 	vmlacc.f64	d0, d11, d0
     fcc:	0008030b 	andeq	r0, r8, fp, lsl #6
     fd0:	002e0400 	eoreq	r0, lr, r0, lsl #8
     fd4:	0e03193f 	mcreq	9, 0, r1, cr3, cr15, {1}
     fd8:	0b3b0b3a 	bleq	ec3cc8 <__SP_usr_+0xe64248>
     fdc:	06120111 			; <UNDEFINED> instruction: 0x06120111
     fe0:	42961840 	addsmi	r1, r6, #64, 16	; 0x400000
     fe4:	00000019 	andeq	r0, r0, r9, lsl r0
     fe8:	25011101 	strcs	r1, [r1, #-257]	; 0x101
     fec:	030b130e 	movweq	r1, #45838	; 0xb30e
     ff0:	550e1b0e 	strpl	r1, [lr, #-2830]	; 0xb0e
     ff4:	10011117 	andne	r1, r1, r7, lsl r1
     ff8:	02000017 	andeq	r0, r0, #23
     ffc:	0b0b0024 	bleq	2c1094 <__SP_usr_+0x261614>
    1000:	0e030b3e 	vmoveq.16	d3[0], r0
    1004:	2e030000 	cdpcs	0, 0, cr0, cr3, cr0, {0}
    1008:	03193f00 	tsteq	r9, #0, 30
    100c:	3b0b3a0e 	blcc	2cf84c <__SP_usr_+0x26fdcc>
    1010:	1119270b 	tstne	r9, fp, lsl #14
    1014:	40061201 	andmi	r1, r6, r1, lsl #4
    1018:	19429618 	stmdbne	r2, {r3, r4, r9, sl, ip, pc}^
    101c:	2e040000 	cdpcs	0, 0, cr0, cr4, cr0, {0}
    1020:	03193f00 	tsteq	r9, #0, 30
    1024:	3b0b3a0e 	blcc	2cf864 <__SP_usr_+0x26fde4>
    1028:	1119270b 	tstne	r9, fp, lsl #14
    102c:	40061201 	andmi	r1, r6, r1, lsl #4
    1030:	19429718 	stmdbne	r2, {r3, r4, r8, r9, sl, ip, pc}^
    1034:	01000000 	mrseq	r0, (UNDEF: 0)
    1038:	0e250111 	mcreq	1, 1, r0, cr5, cr1, {0}
    103c:	0e030b13 	vmoveq.32	d3[0], r0
    1040:	01110e1b 	tsteq	r1, fp, lsl lr
    1044:	17100612 			; <UNDEFINED> instruction: 0x17100612
    1048:	24020000 	strcs	r0, [r2], #-0
    104c:	3e0b0b00 	vmlacc.f64	d0, d11, d0
    1050:	000e030b 	andeq	r0, lr, fp, lsl #6
    1054:	00160300 	andseq	r0, r6, r0, lsl #6
    1058:	0b3a0e03 	bleq	e8486c <__SP_usr_+0xe24dec>
    105c:	13490b3b 	movtne	r0, #39739	; 0x9b3b
    1060:	0f040000 	svceq	0x00040000
    1064:	490b0b00 	stmdbmi	fp, {r8, r9, fp}
    1068:	05000013 	streq	r0, [r0, #-19]
    106c:	19270115 	stmdbne	r7!, {r0, r2, r4, r8}
    1070:	00001301 	andeq	r1, r0, r1, lsl #6
    1074:	49000506 	stmdbmi	r0, {r1, r2, r8, sl}
    1078:	07000013 	smladeq	r0, r3, r0, r0
    107c:	00000026 	andeq	r0, r0, r6, lsr #32
    1080:	03011308 	movweq	r1, #4872	; 0x1308
    1084:	3a0b0b0e 	bcc	2c3cc4 <__SP_usr_+0x264244>
    1088:	010b3b0b 	tsteq	fp, fp, lsl #22
    108c:	09000013 	stmdbeq	r0, {r0, r1, r4}
    1090:	0e03000d 	cdpeq	0, 0, cr0, cr3, cr13, {0}
    1094:	0b3b0b3a 	bleq	ec3d84 <__SP_usr_+0xe64304>
    1098:	0b381349 	bleq	e05dc4 <__SP_usr_+0xda6344>
    109c:	260a0000 	strcs	r0, [sl], -r0
    10a0:	00134900 	andseq	r4, r3, r0, lsl #18
    10a4:	000f0b00 	andeq	r0, pc, r0, lsl #22
    10a8:	00000b0b 	andeq	r0, r0, fp, lsl #22
    10ac:	3f012e0c 	svccc	0x00012e0c
    10b0:	3a0e0319 	bcc	381d1c <__SP_usr_+0x32229c>
    10b4:	110b3b0b 	tstne	fp, fp, lsl #22
    10b8:	40061201 	andmi	r1, r6, r1, lsl #4
    10bc:	19429618 	stmdbne	r2, {r3, r4, r9, sl, ip, pc}^
    10c0:	00001301 	andeq	r1, r0, r1, lsl #6
    10c4:	0300340d 	movweq	r3, #1037	; 0x40d
    10c8:	3b0b3a0e 	blcc	2cf908 <__SP_usr_+0x26fe88>
    10cc:	0213490b 	andseq	r4, r3, #180224	; 0x2c000
    10d0:	0e000018 	mcreq	0, 0, r0, cr0, cr8, {0}
    10d4:	13490035 	movtne	r0, #36917	; 0x9035
    10d8:	010f0000 	mrseq	r0, CPSR
    10dc:	01134901 	tsteq	r3, r1, lsl #18
    10e0:	10000013 	andne	r0, r0, r3, lsl r0
    10e4:	13490021 	movtne	r0, #36897	; 0x9021
    10e8:	00000b2f 	andeq	r0, r0, pc, lsr #22
    10ec:	03003411 	movweq	r3, #1041	; 0x411
    10f0:	3b0b3a0e 	blcc	2cf930 <__SP_usr_+0x26feb0>
    10f4:	3f13490b 	svccc	0x0013490b
    10f8:	00193c19 	andseq	r3, r9, r9, lsl ip
    10fc:	11010000 	mrsne	r0, (UNDEF: 1)
    1100:	11061000 	mrsne	r1, (UNDEF: 6)
    1104:	03011201 	movweq	r1, #4609	; 0x1201
    1108:	25081b08 	strcs	r1, [r8, #-2824]	; 0xb08
    110c:	00051308 	andeq	r1, r5, r8, lsl #6
    1110:	11010000 	mrsne	r0, (UNDEF: 1)
    1114:	130e2501 	movwne	r2, #58625	; 0xe501
    1118:	1b0e030b 	blne	381d4c <__SP_usr_+0x3222cc>
    111c:	1201110e 	andne	r1, r1, #-2147483645	; 0x80000003
    1120:	00171006 	andseq	r1, r7, r6
    1124:	00160200 	andseq	r0, r6, r0, lsl #4
    1128:	0b3a0e03 	bleq	e8493c <__SP_usr_+0xe24ebc>
    112c:	13490b3b 	movtne	r0, #39739	; 0x9b3b
    1130:	24030000 	strcs	r0, [r3], #-0
    1134:	3e0b0b00 	vmlacc.f64	d0, d11, d0
    1138:	000e030b 	andeq	r0, lr, fp, lsl #6
    113c:	002e0400 	eoreq	r0, lr, r0, lsl #8
    1140:	0e03193f 	mcreq	9, 0, r1, cr3, cr15, {1}
    1144:	0b3b0b3a 	bleq	ec3e34 <__SP_usr_+0xe643b4>
    1148:	01111927 	tsteq	r1, r7, lsr #18
    114c:	18400612 	stmdane	r0, {r1, r4, r9, sl}^
    1150:	00194297 	mulseq	r9, r7, r2
    1154:	012e0500 			; <UNDEFINED> instruction: 0x012e0500
    1158:	0e03193f 	mcreq	9, 0, r1, cr3, cr15, {1}
    115c:	0b3b0b3a 	bleq	ec3e4c <__SP_usr_+0xe643cc>
    1160:	01111927 	tsteq	r1, r7, lsr #18
    1164:	18400612 	stmdane	r0, {r1, r4, r9, sl}^
    1168:	01194297 			; <UNDEFINED> instruction: 0x01194297
    116c:	06000013 			; <UNDEFINED> instruction: 0x06000013
    1170:	08030005 	stmdaeq	r3, {r0, r2}
    1174:	0b3b0b3a 	bleq	ec3e64 <__SP_usr_+0xe643e4>
    1178:	18021349 	stmdane	r2, {r0, r3, r6, r8, r9, ip}
    117c:	0f070000 	svceq	0x00070000
    1180:	490b0b00 	stmdbmi	fp, {r8, r9, fp}
    1184:	08000013 	stmdaeq	r0, {r0, r1, r4}
    1188:	13490026 	movtne	r0, #36902	; 0x9026
    118c:	2e090000 	cdpcs	0, 0, cr0, cr9, cr0, {0}
    1190:	03193f01 	tsteq	r9, #1, 30
    1194:	3b0b3a0e 	blcc	2cf9d4 <__SP_usr_+0x26ff54>
    1198:	1119270b 	tstne	r9, fp, lsl #14
    119c:	40061201 	andmi	r1, r6, r1, lsl #4
    11a0:	19429618 	stmdbne	r2, {r3, r4, r9, sl, ip, pc}^
    11a4:	00001301 	andeq	r1, r0, r1, lsl #6
    11a8:	0300340a 	movweq	r3, #1034	; 0x40a
    11ac:	3b0b3a0e 	blcc	2cf9ec <__SP_usr_+0x26ff6c>
    11b0:	0213490b 	andseq	r4, r3, #180224	; 0x2c000
    11b4:	0b000018 	bleq	121c <unused+0x1218>
    11b8:	13490101 	movtne	r0, #37121	; 0x9101
    11bc:	00001301 	andeq	r1, r0, r1, lsl #6
    11c0:	4900210c 	stmdbmi	r0, {r2, r3, r8, sp}
    11c4:	000b2f13 	andeq	r2, fp, r3, lsl pc
    11c8:	002e0d00 	eoreq	r0, lr, r0, lsl #26
    11cc:	0e03193f 	mcreq	9, 0, r1, cr3, cr15, {1}
    11d0:	0b3b0b3a 	bleq	ec3ec0 <__SP_usr_+0xe64440>
    11d4:	01111927 	tsteq	r1, r7, lsr #18
    11d8:	18400612 	stmdane	r0, {r1, r4, r9, sl}^
    11dc:	00194296 	mulseq	r9, r6, r2
    11e0:	11010000 	mrsne	r0, (UNDEF: 1)
    11e4:	130e2501 	movwne	r2, #58625	; 0xe501
    11e8:	1b0e030b 	blne	381e1c <__SP_usr_+0x32239c>
    11ec:	1201110e 	andne	r1, r1, #-2147483645	; 0x80000003
    11f0:	00171006 	andseq	r1, r7, r6
    11f4:	00160200 	andseq	r0, r6, r0, lsl #4
    11f8:	0b3a0e03 	bleq	e84a0c <__SP_usr_+0xe24f8c>
    11fc:	13490b3b 	movtne	r0, #39739	; 0x9b3b
    1200:	24030000 	strcs	r0, [r3], #-0
    1204:	3e0b0b00 	vmlacc.f64	d0, d11, d0
    1208:	000e030b 	andeq	r0, lr, fp, lsl #6
    120c:	00240400 	eoreq	r0, r4, r0, lsl #8
    1210:	0b3e0b0b 	bleq	f83e44 <__SP_usr_+0xf243c4>
    1214:	00000803 	andeq	r0, r0, r3, lsl #16
    1218:	3f012e05 	svccc	0x00012e05
    121c:	3a0e0319 	bcc	381e88 <__SP_usr_+0x322408>
    1220:	270b3b0b 	strcs	r3, [fp, -fp, lsl #22]
    1224:	12011119 	andne	r1, r1, #1073741830	; 0x40000006
    1228:	97184006 	ldrls	r4, [r8, -r6]
    122c:	13011942 	movwne	r1, #6466	; 0x1942
    1230:	05060000 	streq	r0, [r6, #-0]
    1234:	3a080300 	bcc	201e3c <__SP_usr_+0x1a23bc>
    1238:	490b3b0b 	stmdbmi	fp, {r0, r1, r3, r8, r9, fp, ip, sp}
    123c:	00180213 	andseq	r0, r8, r3, lsl r2
    1240:	012e0700 			; <UNDEFINED> instruction: 0x012e0700
    1244:	0e03193f 	mcreq	9, 0, r1, cr3, cr15, {1}
    1248:	0b3b0b3a 	bleq	ec3f38 <__SP_usr_+0xe644b8>
    124c:	06120111 			; <UNDEFINED> instruction: 0x06120111
    1250:	42961840 	addsmi	r1, r6, #64, 16	; 0x400000
    1254:	00130119 	andseq	r0, r3, r9, lsl r1
    1258:	00340800 	eorseq	r0, r4, r0, lsl #16
    125c:	0b3a0803 	bleq	e83270 <__SP_usr_+0xe237f0>
    1260:	13490b3b 	movtne	r0, #39739	; 0x9b3b
    1264:	00001802 	andeq	r1, r0, r2, lsl #16
    1268:	3f012e09 	svccc	0x00012e09
    126c:	3a0e0319 	bcc	381ed8 <__SP_usr_+0x322458>
    1270:	270b3b0b 	strcs	r3, [fp, -fp, lsl #22]
    1274:	11134919 	tstne	r3, r9, lsl r9
    1278:	40061201 	andmi	r1, r6, r1, lsl #4
    127c:	19429718 	stmdbne	r2, {r3, r4, r8, r9, sl, ip, pc}^
    1280:	00001301 	andeq	r1, r0, r1, lsl #6
    1284:	0b000f0a 	bleq	4eb4 <unused+0x4eb0>
    1288:	0013490b 	andseq	r4, r3, fp, lsl #18
    128c:	00260b00 	eoreq	r0, r6, r0, lsl #22
    1290:	00001349 	andeq	r1, r0, r9, asr #6
    1294:	3f012e0c 	svccc	0x00012e0c
    1298:	3a0e0319 	bcc	381f04 <__SP_usr_+0x322484>
    129c:	270b3b0b 	strcs	r3, [fp, -fp, lsl #22]
    12a0:	12011119 	andne	r1, r1, #1073741830	; 0x40000006
    12a4:	96184006 	ldrls	r4, [r8], -r6
    12a8:	13011942 	movwne	r1, #6466	; 0x1942
    12ac:	050d0000 	streq	r0, [sp, #-0]
    12b0:	3a0e0300 	bcc	381eb8 <__SP_usr_+0x322438>
    12b4:	490b3b0b 	stmdbmi	fp, {r0, r1, r3, r8, r9, fp, ip, sp}
    12b8:	00180213 	andseq	r0, r8, r3, lsl r2
    12bc:	002e0e00 	eoreq	r0, lr, r0, lsl #28
    12c0:	0e03193f 	mcreq	9, 0, r1, cr3, cr15, {1}
    12c4:	0b3b0b3a 	bleq	ec3fb4 <__SP_usr_+0xe64534>
    12c8:	06120111 			; <UNDEFINED> instruction: 0x06120111
    12cc:	42971840 	addsmi	r1, r7, #64, 16	; 0x400000
    12d0:	0f000019 	svceq	0x00000019
    12d4:	193f002e 	ldmdbne	pc!, {r1, r2, r3, r5}	; <UNPREDICTABLE>
    12d8:	0b3a0e03 	bleq	e84aec <__SP_usr_+0xe2506c>
    12dc:	01110b3b 	tsteq	r1, fp, lsr fp
    12e0:	18400612 	stmdane	r0, {r1, r4, r9, sl}^
    12e4:	00194296 	mulseq	r9, r6, r2
	...

Disassembly of section .debug_aranges:

00000000 <.debug_aranges>:
   0:	000000d4 	ldrdeq	r0, [r0], -r4
   4:	00000002 	andeq	r0, r0, r2
   8:	00040000 	andeq	r0, r4, r0
   c:	00000000 	andeq	r0, r0, r0
  10:	000097ec 	andeq	r9, r0, ip, ror #15
  14:	000000e4 	andeq	r0, r0, r4, ror #1
  18:	000098d0 	ldrdeq	r9, [r0], -r0
  1c:	000000ec 	andeq	r0, r0, ip, ror #1
  20:	000099bc 			; <UNDEFINED> instruction: 0x000099bc
  24:	00000158 	andeq	r0, r0, r8, asr r1
  28:	00009b14 	andeq	r9, r0, r4, lsl fp
  2c:	000000dc 	ldrdeq	r0, [r0], -ip
  30:	00009bf0 	strdeq	r9, [r0], -r0
  34:	000000b0 	strheq	r0, [r0], -r0	; <UNPREDICTABLE>
  38:	00009ca0 	andeq	r9, r0, r0, lsr #25
  3c:	00000048 	andeq	r0, r0, r8, asr #32
  40:	00009ce8 	andeq	r9, r0, r8, ror #25
  44:	000000c8 	andeq	r0, r0, r8, asr #1
  48:	00009db0 			; <UNDEFINED> instruction: 0x00009db0
  4c:	000000a4 	andeq	r0, r0, r4, lsr #1
  50:	00009e54 	andeq	r9, r0, r4, asr lr
  54:	000000c4 	andeq	r0, r0, r4, asr #1
  58:	00009f18 	andeq	r9, r0, r8, lsl pc
  5c:	0000007c 	andeq	r0, r0, ip, ror r0
  60:	00009f94 	muleq	r0, r4, pc	; <UNPREDICTABLE>
  64:	0000005c 	andeq	r0, r0, ip, asr r0
  68:	00009ff0 	strdeq	r9, [r0], -r0
  6c:	00000114 	andeq	r0, r0, r4, lsl r1
  70:	0000a104 	andeq	sl, r0, r4, lsl #2
  74:	000000b8 	strheq	r0, [r0], -r8
  78:	0000a1bc 			; <UNDEFINED> instruction: 0x0000a1bc
  7c:	00000074 	andeq	r0, r0, r4, ror r0
  80:	0000a230 	andeq	sl, r0, r0, lsr r2
  84:	0000006c 	andeq	r0, r0, ip, rrx
  88:	0000a29c 	muleq	r0, ip, r2
  8c:	00000050 	andeq	r0, r0, r0, asr r0
  90:	0000a2ec 	andeq	sl, r0, ip, ror #5
  94:	00000020 	andeq	r0, r0, r0, lsr #32
  98:	0000a30c 	andeq	sl, r0, ip, lsl #6
  9c:	000000c4 	andeq	r0, r0, r4, asr #1
  a0:	0000a3d0 	ldrdeq	sl, [r0], -r0
  a4:	00000058 	andeq	r0, r0, r8, asr r0
  a8:	0000a428 	andeq	sl, r0, r8, lsr #8
  ac:	0000003c 	andeq	r0, r0, ip, lsr r0
  b0:	0000a464 	andeq	sl, r0, r4, ror #8
  b4:	00000048 	andeq	r0, r0, r8, asr #32
  b8:	0000a4ac 	andeq	sl, r0, ip, lsr #9
  bc:	00000118 	andeq	r0, r0, r8, lsl r1
  c0:	0000a5c4 	andeq	sl, r0, r4, asr #11
  c4:	00000058 	andeq	r0, r0, r8, asr r0
  c8:	0000a61c 	andeq	sl, r0, ip, lsl r6
  cc:	00000078 	andeq	r0, r0, r8, ror r0
	...
  d8:	0000003c 	andeq	r0, r0, ip, lsr r0
  dc:	0bcf0002 	bleq	ff3c00ec <__SP_usr_+0xff36066c>
  e0:	00040000 	andeq	r0, r4, r0
  e4:	00000000 	andeq	r0, r0, r0
  e8:	0000a694 	muleq	r0, r4, r6
  ec:	00000024 	andeq	r0, r0, r4, lsr #32
  f0:	0000a6b8 			; <UNDEFINED> instruction: 0x0000a6b8
  f4:	000001b8 			; <UNDEFINED> instruction: 0x000001b8
  f8:	0000a870 	andeq	sl, r0, r0, ror r8
  fc:	000000dc 	ldrdeq	r0, [r0], -ip
 100:	0000a94c 	andeq	sl, r0, ip, asr #18
 104:	00000154 	andeq	r0, r0, r4, asr r1
 108:	0000aaa0 	andeq	sl, r0, r0, lsr #21
 10c:	000001a4 	andeq	r0, r0, r4, lsr #3
	...
 118:	00000024 	andeq	r0, r0, r4, lsr #32
 11c:	0f6b0002 	svceq	0x006b0002
 120:	00040000 	andeq	r0, r4, r0
 124:	00000000 	andeq	r0, r0, r0
 128:	0000ac44 	andeq	sl, r0, r4, asr #24
 12c:	00000024 	andeq	r0, r0, r4, lsr #32
 130:	0000ac68 	andeq	sl, r0, r8, ror #24
 134:	0000003c 	andeq	r0, r0, ip, lsr r0
	...
 140:	00000014 	andeq	r0, r0, r4, lsl r0
 144:	112c0002 			; <UNDEFINED> instruction: 0x112c0002
 148:	00040000 	andeq	r0, r4, r0
	...
 158:	0000002c 	andeq	r0, r0, ip, lsr #32
 15c:	11890002 	orrne	r0, r9, r2
 160:	00040000 	andeq	r0, r4, r0
 164:	00000000 	andeq	r0, r0, r0
 168:	0000aca4 	andeq	sl, r0, r4, lsr #25
 16c:	00000050 	andeq	r0, r0, r0, asr r0
 170:	0000acf4 	strdeq	sl, [r0], -r4
 174:	00000078 	andeq	r0, r0, r8, ror r0
 178:	0000ad6c 	andeq	sl, r0, ip, ror #26
 17c:	00000020 	andeq	r0, r0, r0, lsr #32
	...
 188:	0000001c 	andeq	r0, r0, ip, lsl r0
 18c:	12cc0002 	sbcne	r0, ip, #2
 190:	00040000 	andeq	r0, r4, r0
 194:	00000000 	andeq	r0, r0, r0
 198:	0000c5cc 	andeq	ip, r0, ip, asr #11
 19c:	0000003c 	andeq	r0, r0, ip, lsr r0
	...
 1a8:	00000064 	andeq	r0, r0, r4, rrx
 1ac:	137b0002 	cmnne	fp, #2
 1b0:	00040000 	andeq	r0, r4, r0
 1b4:	00000000 	andeq	r0, r0, r0
 1b8:	0000ad8c 	andeq	sl, r0, ip, lsl #27
 1bc:	00000070 	andeq	r0, r0, r0, ror r0
 1c0:	0000adfc 	strdeq	sl, [r0], -ip
 1c4:	0000005c 	andeq	r0, r0, ip, asr r0
 1c8:	0000ae58 	andeq	sl, r0, r8, asr lr
 1cc:	00000048 	andeq	r0, r0, r8, asr #32
 1d0:	0000aea0 	andeq	sl, r0, r0, lsr #29
 1d4:	00000070 	andeq	r0, r0, r0, ror r0
 1d8:	0000af10 	andeq	sl, r0, r0, lsl pc
 1dc:	00000048 	andeq	r0, r0, r8, asr #32
 1e0:	0000af58 	andeq	sl, r0, r8, asr pc
 1e4:	00000034 	andeq	r0, r0, r4, lsr r0
 1e8:	0000af8c 	andeq	sl, r0, ip, lsl #31
 1ec:	00000048 	andeq	r0, r0, r8, asr #32
 1f0:	0000afd4 	ldrdeq	sl, [r0], -r4
 1f4:	00000070 	andeq	r0, r0, r0, ror r0
 1f8:	0000b044 	andeq	fp, r0, r4, asr #32
 1fc:	0000007c 	andeq	r0, r0, ip, ror r0
 200:	0000b0c0 	andeq	fp, r0, r0, asr #1
 204:	0000001c 	andeq	r0, r0, ip, lsl r0
	...
 210:	00000044 	andeq	r0, r0, r4, asr #32
 214:	180c0002 	stmdane	ip, {r1}
 218:	00040000 	andeq	r0, r4, r0
 21c:	00000000 	andeq	r0, r0, r0
 220:	0000b0dc 	ldrdeq	fp, [r0], -ip
 224:	000000a8 	andeq	r0, r0, r8, lsr #1
 228:	0000b184 	andeq	fp, r0, r4, lsl #3
 22c:	000000cc 	andeq	r0, r0, ip, asr #1
 230:	0000b250 	andeq	fp, r0, r0, asr r2
 234:	00000140 	andeq	r0, r0, r0, asr #2
 238:	0000b390 	muleq	r0, r0, r3
 23c:	000000f4 	strdeq	r0, [r0], -r4
 240:	0000b484 	andeq	fp, r0, r4, lsl #9
 244:	00000090 	muleq	r0, r0, r0
 248:	0000b514 	andeq	fp, r0, r4, lsl r5
 24c:	000000a4 	andeq	r0, r0, r4, lsr #1
	...
 258:	0000002c 	andeq	r0, r0, ip, lsr #32
 25c:	1ceb0002 	stclne	0, cr0, [fp], #8
 260:	00040000 	andeq	r0, r4, r0
 264:	00000000 	andeq	r0, r0, r0
 268:	0000b5b8 			; <UNDEFINED> instruction: 0x0000b5b8
 26c:	0000009c 	muleq	r0, ip, r0
 270:	0000b654 	andeq	fp, r0, r4, asr r6
 274:	000001b8 			; <UNDEFINED> instruction: 0x000001b8
 278:	0000b80c 	andeq	fp, r0, ip, lsl #16
 27c:	00000150 	andeq	r0, r0, r0, asr r1
	...
 288:	00000044 	andeq	r0, r0, r4, asr #32
 28c:	22060002 	andcs	r0, r6, #2
 290:	00040000 	andeq	r0, r4, r0
 294:	00000000 	andeq	r0, r0, r0
 298:	0000b95c 	andeq	fp, r0, ip, asr r9
 29c:	00000040 	andeq	r0, r0, r0, asr #32
 2a0:	0000b99c 	muleq	r0, ip, r9
 2a4:	000000d0 	ldrdeq	r0, [r0], -r0	; <UNPREDICTABLE>
 2a8:	0000ba6c 	andeq	fp, r0, ip, ror #20
 2ac:	00000104 	andeq	r0, r0, r4, lsl #2
 2b0:	0000bb70 	andeq	fp, r0, r0, ror fp
 2b4:	000001d0 	ldrdeq	r0, [r0], -r0	; <UNPREDICTABLE>
 2b8:	0000bd40 	andeq	fp, r0, r0, asr #26
 2bc:	00000180 	andeq	r0, r0, r0, lsl #3
 2c0:	0000bec0 	andeq	fp, r0, r0, asr #29
 2c4:	000000b4 	strheq	r0, [r0], -r4
	...
 2d0:	00000044 	andeq	r0, r0, r4, asr #32
 2d4:	27360002 	ldrcs	r0, [r6, -r2]!
 2d8:	00040000 	andeq	r0, r4, r0
 2dc:	00000000 	andeq	r0, r0, r0
 2e0:	000083b4 			; <UNDEFINED> instruction: 0x000083b4
 2e4:	00000478 	andeq	r0, r0, r8, ror r4
 2e8:	0000c7e8 	andeq	ip, r0, r8, ror #15
 2ec:	00000214 	andeq	r0, r0, r4, lsl r2
 2f0:	0000c9fc 	strdeq	ip, [r0], -ip	; <UNPREDICTABLE>
 2f4:	0000001c 	andeq	r0, r0, ip, lsl r0
 2f8:	0000bf74 	andeq	fp, r0, r4, ror pc
 2fc:	00000020 	andeq	r0, r0, r0, lsr #32
 300:	0000bf94 	muleq	r0, r4, pc	; <UNPREDICTABLE>
 304:	00000028 	andeq	r0, r0, r8, lsr #32
 308:	0000bfbc 			; <UNDEFINED> instruction: 0x0000bfbc
 30c:	00000028 	andeq	r0, r0, r8, lsr #32
	...
 318:	00000024 	andeq	r0, r0, r4, lsr #32
 31c:	296c0002 	stmdbcs	ip!, {r1}^
 320:	00040000 	andeq	r0, r4, r0
 324:	00000000 	andeq	r0, r0, r0
 328:	0000bfe4 	andeq	fp, r0, r4, ror #31
 32c:	00000030 	andeq	r0, r0, r0, lsr r0
 330:	0000c014 	andeq	ip, r0, r4, lsl r0
 334:	00000010 	andeq	r0, r0, r0, lsl r0
	...
 340:	00000014 	andeq	r0, r0, r4, lsl r0
 344:	32e80002 	rsccc	r0, r8, #2
 348:	00040000 	andeq	r0, r4, r0
	...
 358:	0000001c 	andeq	r0, r0, ip, lsl r0
 35c:	337d0002 	cmncc	sp, #2
 360:	00040000 	andeq	r0, r4, r0
 364:	00000000 	andeq	r0, r0, r0
 368:	0000c608 	andeq	ip, r0, r8, lsl #12
 36c:	000001e0 	andeq	r0, r0, r0, ror #3
	...
 378:	0000001c 	andeq	r0, r0, ip, lsl r0
 37c:	34140002 	ldrcc	r0, [r4], #-2
 380:	00040000 	andeq	r0, r4, r0
 384:	00000000 	andeq	r0, r0, r0
 388:	0000c024 	andeq	ip, r0, r4, lsr #32
 38c:	00000114 	andeq	r0, r0, r4, lsl r1
	...
 398:	0000001c 	andeq	r0, r0, ip, lsl r0
 39c:	34c50002 	strbcc	r0, [r5], #2
 3a0:	00040000 	andeq	r0, r4, r0
 3a4:	00000000 	andeq	r0, r0, r0
 3a8:	0000c138 	andeq	ip, r0, r8, lsr r1
 3ac:	00000140 	andeq	r0, r0, r0, asr #2
	...
 3b8:	0000001c 	andeq	r0, r0, ip, lsl r0
 3bc:	357e0002 	ldrbcc	r0, [lr, #-2]!
 3c0:	00040000 	andeq	r0, r4, r0
 3c4:	00000000 	andeq	r0, r0, r0
 3c8:	0000c278 	andeq	ip, r0, r8, ror r2
 3cc:	00000008 	andeq	r0, r0, r8
	...
 3d8:	0000001c 	andeq	r0, r0, ip, lsl r0
 3dc:	36370002 	ldrtcc	r0, [r7], -r2
 3e0:	00040000 	andeq	r0, r4, r0
 3e4:	00000000 	andeq	r0, r0, r0
 3e8:	0000e618 	andeq	lr, r0, r8, lsl r6
 3ec:	00000068 	andeq	r0, r0, r8, rrx
	...
 3f8:	00000054 	andeq	r0, r0, r4, asr r0
 3fc:	36f10002 	ldrbtcc	r0, [r1], r2
 400:	00040000 	andeq	r0, r4, r0
 404:	00000000 	andeq	r0, r0, r0
 408:	0000882c 	andeq	r8, r0, ip, lsr #16
 40c:	00000010 	andeq	r0, r0, r0, lsl r0
 410:	0000c280 	andeq	ip, r0, r0, lsl #5
 414:	00000024 	andeq	r0, r0, r4, lsr #32
 418:	0000c2a4 	andeq	ip, r0, r4, lsr #5
 41c:	00000014 	andeq	r0, r0, r4, lsl r0
 420:	0000c2b8 			; <UNDEFINED> instruction: 0x0000c2b8
 424:	00000014 	andeq	r0, r0, r4, lsl r0
 428:	0000c2cc 	andeq	ip, r0, ip, asr #5
 42c:	00000020 	andeq	r0, r0, r0, lsr #32
 430:	0000c2ec 	andeq	ip, r0, ip, ror #5
 434:	0000002c 	andeq	r0, r0, ip, lsr #32
 438:	0000c318 	andeq	ip, r0, r8, lsl r3
 43c:	000000ac 	andeq	r0, r0, ip, lsr #1
 440:	0000c3c4 	andeq	ip, r0, r4, asr #7
 444:	00000030 	andeq	r0, r0, r0, lsr r0
	...
 450:	0000001c 	andeq	r0, r0, ip, lsl r0
 454:	3b690002 	blcc	1a40464 <__SP_usr_+0x19e09e4>
 458:	00040000 	andeq	r0, r4, r0
 45c:	00000000 	andeq	r0, r0, r0
 460:	0000883c 	andeq	r8, r0, ip, lsr r8
 464:	0000004c 	andeq	r0, r0, ip, asr #32
	...
 470:	0000001c 	andeq	r0, r0, ip, lsl r0
 474:	3c1a0002 	ldccc	0, cr0, [sl], {2}
 478:	00040000 	andeq	r0, r4, r0
 47c:	00000000 	andeq	r0, r0, r0
 480:	0000c3f4 	strdeq	ip, [r0], -r4
 484:	00000004 	andeq	r0, r0, r4
	...
 490:	0000001c 	andeq	r0, r0, ip, lsl r0
 494:	3ce50002 	stclcc	0, cr0, [r5], #8
 498:	00040000 	andeq	r0, r4, r0
 49c:	00000000 	andeq	r0, r0, r0
 4a0:	00008000 	andeq	r8, r0, r0
 4a4:	000003b4 			; <UNDEFINED> instruction: 0x000003b4
	...
 4b0:	0000001c 	andeq	r0, r0, ip, lsl r0
 4b4:	3db70002 	ldccc	0, cr0, [r7, #8]!
 4b8:	00040000 	andeq	r0, r4, r0
 4bc:	00000000 	andeq	r0, r0, r0
 4c0:	00008888 	andeq	r8, r0, r8, lsl #17
 4c4:	00000010 	andeq	r0, r0, r0, lsl r0
	...
 4d0:	00000024 	andeq	r0, r0, r4, lsr #32
 4d4:	3e3b0002 	cdpcc	0, 3, cr0, cr11, cr2, {0}
 4d8:	00040000 	andeq	r0, r4, r0
 4dc:	00000000 	andeq	r0, r0, r0
 4e0:	0000c3f8 	strdeq	ip, [r0], -r8
 4e4:	00000030 	andeq	r0, r0, r0, lsr r0
 4e8:	0000c428 	andeq	ip, r0, r8, lsr #8
 4ec:	00000024 	andeq	r0, r0, r4, lsr #32
	...
 4f8:	0000001c 	andeq	r0, r0, ip, lsl r0
 4fc:	3ec20002 	cdpcc	0, 12, cr0, cr2, cr2, {0}
 500:	00040000 	andeq	r0, r4, r0
 504:	00000000 	andeq	r0, r0, r0
 508:	00008898 	muleq	r0, r8, r8
 50c:	00000068 	andeq	r0, r0, r8, rrx
	...
 518:	0000001c 	andeq	r0, r0, ip, lsl r0
 51c:	3ff10002 	svccc	0x00f10002
 520:	00040000 	andeq	r0, r4, r0
 524:	00000000 	andeq	r0, r0, r0
 528:	0000c44c 	andeq	ip, r0, ip, asr #8
 52c:	00000180 	andeq	r0, r0, r0, lsl #3
	...
 538:	0000001c 	andeq	r0, r0, ip, lsl r0
 53c:	40c20002 	sbcmi	r0, r2, r2
 540:	00040000 	andeq	r0, r4, r0
 544:	00000000 	andeq	r0, r0, r0
 548:	00008900 	andeq	r8, r0, r0, lsl #18
 54c:	00000334 	andeq	r0, r0, r4, lsr r3
	...
 558:	0000001c 	andeq	r0, r0, ip, lsl r0
 55c:	42c10002 	sbcmi	r0, r1, #2
 560:	00040000 	andeq	r0, r4, r0
 564:	00000000 	andeq	r0, r0, r0
 568:	00008c34 	andeq	r8, r0, r4, lsr ip
 56c:	00000408 	andeq	r0, r0, r8, lsl #8
	...

Disassembly of section .debug_ranges:

00000000 <.debug_ranges>:
   0:	000097ec 	andeq	r9, r0, ip, ror #15
   4:	000098d0 	ldrdeq	r9, [r0], -r0
   8:	000098d0 	ldrdeq	r9, [r0], -r0
   c:	000099bc 			; <UNDEFINED> instruction: 0x000099bc
  10:	000099bc 			; <UNDEFINED> instruction: 0x000099bc
  14:	00009b14 	andeq	r9, r0, r4, lsl fp
  18:	00009b14 	andeq	r9, r0, r4, lsl fp
  1c:	00009bf0 	strdeq	r9, [r0], -r0
  20:	00009bf0 	strdeq	r9, [r0], -r0
  24:	00009ca0 	andeq	r9, r0, r0, lsr #25
  28:	00009ca0 	andeq	r9, r0, r0, lsr #25
  2c:	00009ce8 	andeq	r9, r0, r8, ror #25
  30:	00009ce8 	andeq	r9, r0, r8, ror #25
  34:	00009db0 			; <UNDEFINED> instruction: 0x00009db0
  38:	00009db0 			; <UNDEFINED> instruction: 0x00009db0
  3c:	00009e54 	andeq	r9, r0, r4, asr lr
  40:	00009e54 	andeq	r9, r0, r4, asr lr
  44:	00009f18 	andeq	r9, r0, r8, lsl pc
  48:	00009f18 	andeq	r9, r0, r8, lsl pc
  4c:	00009f94 	muleq	r0, r4, pc	; <UNPREDICTABLE>
  50:	00009f94 	muleq	r0, r4, pc	; <UNPREDICTABLE>
  54:	00009ff0 	strdeq	r9, [r0], -r0
  58:	00009ff0 	strdeq	r9, [r0], -r0
  5c:	0000a104 	andeq	sl, r0, r4, lsl #2
  60:	0000a104 	andeq	sl, r0, r4, lsl #2
  64:	0000a1bc 			; <UNDEFINED> instruction: 0x0000a1bc
  68:	0000a1bc 			; <UNDEFINED> instruction: 0x0000a1bc
  6c:	0000a230 	andeq	sl, r0, r0, lsr r2
  70:	0000a230 	andeq	sl, r0, r0, lsr r2
  74:	0000a29c 	muleq	r0, ip, r2
  78:	0000a29c 	muleq	r0, ip, r2
  7c:	0000a2ec 	andeq	sl, r0, ip, ror #5
  80:	0000a2ec 	andeq	sl, r0, ip, ror #5
  84:	0000a30c 	andeq	sl, r0, ip, lsl #6
  88:	0000a30c 	andeq	sl, r0, ip, lsl #6
  8c:	0000a3d0 	ldrdeq	sl, [r0], -r0
  90:	0000a3d0 	ldrdeq	sl, [r0], -r0
  94:	0000a428 	andeq	sl, r0, r8, lsr #8
  98:	0000a428 	andeq	sl, r0, r8, lsr #8
  9c:	0000a464 	andeq	sl, r0, r4, ror #8
  a0:	0000a464 	andeq	sl, r0, r4, ror #8
  a4:	0000a4ac 	andeq	sl, r0, ip, lsr #9
  a8:	0000a4ac 	andeq	sl, r0, ip, lsr #9
  ac:	0000a5c4 	andeq	sl, r0, r4, asr #11
  b0:	0000a5c4 	andeq	sl, r0, r4, asr #11
  b4:	0000a61c 	andeq	sl, r0, ip, lsl r6
  b8:	0000a61c 	andeq	sl, r0, ip, lsl r6
  bc:	0000a694 	muleq	r0, r4, r6
	...
  c8:	0000a694 	muleq	r0, r4, r6
  cc:	0000a6b8 			; <UNDEFINED> instruction: 0x0000a6b8
  d0:	0000a6b8 			; <UNDEFINED> instruction: 0x0000a6b8
  d4:	0000a870 	andeq	sl, r0, r0, ror r8
  d8:	0000a870 	andeq	sl, r0, r0, ror r8
  dc:	0000a94c 	andeq	sl, r0, ip, asr #18
  e0:	0000a94c 	andeq	sl, r0, ip, asr #18
  e4:	0000aaa0 	andeq	sl, r0, r0, lsr #21
  e8:	0000aaa0 	andeq	sl, r0, r0, lsr #21
  ec:	0000ac44 	andeq	sl, r0, r4, asr #24
	...
  f8:	0000ac44 	andeq	sl, r0, r4, asr #24
  fc:	0000ac68 	andeq	sl, r0, r8, ror #24
 100:	0000ac68 	andeq	sl, r0, r8, ror #24
 104:	0000aca4 	andeq	sl, r0, r4, lsr #25
	...
 110:	0000aca4 	andeq	sl, r0, r4, lsr #25
 114:	0000acf4 	strdeq	sl, [r0], -r4
 118:	0000acf4 	strdeq	sl, [r0], -r4
 11c:	0000ad6c 	andeq	sl, r0, ip, ror #26
 120:	0000ad6c 	andeq	sl, r0, ip, ror #26
 124:	0000ad8c 	andeq	sl, r0, ip, lsl #27
	...
 130:	0000c5cc 	andeq	ip, r0, ip, asr #11
 134:	0000c608 	andeq	ip, r0, r8, lsl #12
	...
 140:	0000ad8c 	andeq	sl, r0, ip, lsl #27
 144:	0000adfc 	strdeq	sl, [r0], -ip
 148:	0000adfc 	strdeq	sl, [r0], -ip
 14c:	0000ae58 	andeq	sl, r0, r8, asr lr
 150:	0000ae58 	andeq	sl, r0, r8, asr lr
 154:	0000aea0 	andeq	sl, r0, r0, lsr #29
 158:	0000aea0 	andeq	sl, r0, r0, lsr #29
 15c:	0000af10 	andeq	sl, r0, r0, lsl pc
 160:	0000af10 	andeq	sl, r0, r0, lsl pc
 164:	0000af58 	andeq	sl, r0, r8, asr pc
 168:	0000af58 	andeq	sl, r0, r8, asr pc
 16c:	0000af8c 	andeq	sl, r0, ip, lsl #31
 170:	0000af8c 	andeq	sl, r0, ip, lsl #31
 174:	0000afd4 	ldrdeq	sl, [r0], -r4
 178:	0000afd4 	ldrdeq	sl, [r0], -r4
 17c:	0000b044 	andeq	fp, r0, r4, asr #32
 180:	0000b044 	andeq	fp, r0, r4, asr #32
 184:	0000b0c0 	andeq	fp, r0, r0, asr #1
 188:	0000b0c0 	andeq	fp, r0, r0, asr #1
 18c:	0000b0dc 	ldrdeq	fp, [r0], -ip
	...
 198:	0000b0dc 	ldrdeq	fp, [r0], -ip
 19c:	0000b184 	andeq	fp, r0, r4, lsl #3
 1a0:	0000b184 	andeq	fp, r0, r4, lsl #3
 1a4:	0000b250 	andeq	fp, r0, r0, asr r2
 1a8:	0000b250 	andeq	fp, r0, r0, asr r2
 1ac:	0000b390 	muleq	r0, r0, r3
 1b0:	0000b390 	muleq	r0, r0, r3
 1b4:	0000b484 	andeq	fp, r0, r4, lsl #9
 1b8:	0000b484 	andeq	fp, r0, r4, lsl #9
 1bc:	0000b514 	andeq	fp, r0, r4, lsl r5
 1c0:	0000b514 	andeq	fp, r0, r4, lsl r5
 1c4:	0000b5b8 			; <UNDEFINED> instruction: 0x0000b5b8
	...
 1d0:	0000b5b8 			; <UNDEFINED> instruction: 0x0000b5b8
 1d4:	0000b654 	andeq	fp, r0, r4, asr r6
 1d8:	0000b654 	andeq	fp, r0, r4, asr r6
 1dc:	0000b80c 	andeq	fp, r0, ip, lsl #16
 1e0:	0000b80c 	andeq	fp, r0, ip, lsl #16
 1e4:	0000b95c 	andeq	fp, r0, ip, asr r9
	...
 1f0:	0000b95c 	andeq	fp, r0, ip, asr r9
 1f4:	0000b99c 	muleq	r0, ip, r9
 1f8:	0000b99c 	muleq	r0, ip, r9
 1fc:	0000ba6c 	andeq	fp, r0, ip, ror #20
 200:	0000ba6c 	andeq	fp, r0, ip, ror #20
 204:	0000bb70 	andeq	fp, r0, r0, ror fp
 208:	0000bb70 	andeq	fp, r0, r0, ror fp
 20c:	0000bd40 	andeq	fp, r0, r0, asr #26
 210:	0000bd40 	andeq	fp, r0, r0, asr #26
 214:	0000bec0 	andeq	fp, r0, r0, asr #29
 218:	0000bec0 	andeq	fp, r0, r0, asr #29
 21c:	0000bf74 	andeq	fp, r0, r4, ror pc
	...
 228:	000083b4 			; <UNDEFINED> instruction: 0x000083b4
 22c:	0000882c 	andeq	r8, r0, ip, lsr #16
 230:	0000c7e8 	andeq	ip, r0, r8, ror #15
 234:	0000c9fc 	strdeq	ip, [r0], -ip	; <UNPREDICTABLE>
 238:	0000c9fc 	strdeq	ip, [r0], -ip	; <UNPREDICTABLE>
 23c:	0000ca18 	andeq	ip, r0, r8, lsl sl
 240:	0000bf74 	andeq	fp, r0, r4, ror pc
 244:	0000bf94 	muleq	r0, r4, pc	; <UNPREDICTABLE>
 248:	0000bf94 	muleq	r0, r4, pc	; <UNPREDICTABLE>
 24c:	0000bfbc 			; <UNDEFINED> instruction: 0x0000bfbc
 250:	0000bfbc 			; <UNDEFINED> instruction: 0x0000bfbc
 254:	0000bfe4 	andeq	fp, r0, r4, ror #31
	...
 260:	0000bfe4 	andeq	fp, r0, r4, ror #31
 264:	0000c014 	andeq	ip, r0, r4, lsl r0
 268:	0000c014 	andeq	ip, r0, r4, lsl r0
 26c:	0000c024 	andeq	ip, r0, r4, lsr #32
	...
 278:	0000882c 	andeq	r8, r0, ip, lsr #16
 27c:	0000883c 	andeq	r8, r0, ip, lsr r8
 280:	0000c280 	andeq	ip, r0, r0, lsl #5
 284:	0000c2a4 	andeq	ip, r0, r4, lsr #5
 288:	0000c2a4 	andeq	ip, r0, r4, lsr #5
 28c:	0000c2b8 			; <UNDEFINED> instruction: 0x0000c2b8
 290:	0000c2b8 			; <UNDEFINED> instruction: 0x0000c2b8
 294:	0000c2cc 	andeq	ip, r0, ip, asr #5
 298:	0000c2cc 	andeq	ip, r0, ip, asr #5
 29c:	0000c2ec 	andeq	ip, r0, ip, ror #5
 2a0:	0000c2ec 	andeq	ip, r0, ip, ror #5
 2a4:	0000c318 	andeq	ip, r0, r8, lsl r3
 2a8:	0000c318 	andeq	ip, r0, r8, lsl r3
 2ac:	0000c3c4 	andeq	ip, r0, r4, asr #7
 2b0:	0000c3c4 	andeq	ip, r0, r4, asr #7
 2b4:	0000c3f4 	strdeq	ip, [r0], -r4
	...
 2c0:	0000c3f8 	strdeq	ip, [r0], -r8
 2c4:	0000c428 	andeq	ip, r0, r8, lsr #8
 2c8:	0000c428 	andeq	ip, r0, r8, lsr #8
 2cc:	0000c44c 	andeq	ip, r0, ip, asr #8
	...

Disassembly of section .debug_line:

00000000 <.debug_line>:
       0:	00000311 	andeq	r0, r0, r1, lsl r3
       4:	01640002 	cmneq	r4, r2
       8:	01020000 	mrseq	r0, (UNDEF: 2)
       c:	000d0efb 	strdeq	r0, [sp], -fp
      10:	01010101 	tsteq	r1, r1, lsl #2
      14:	01000000 	mrseq	r0, (UNDEF: 0)
      18:	2e010000 	cdpcs	0, 0, cr0, cr1, cr0, {0}
      1c:	2e2e2f2e 	cdpcs	15, 2, cr2, cr14, cr14, {1}
      20:	2f2e2e2f 	svccs	0x002e2e2f
      24:	2e2f2e2e 	cdpcs	14, 2, cr2, cr15, cr14, {1}
      28:	2e2e2f2e 	cdpcs	15, 2, cr2, cr14, cr14, {1}
      2c:	00736f2f 	rsbseq	r6, r3, pc, lsr #30
      30:	2e2f2e2e 	cdpcs	14, 2, cr2, cr15, cr14, {1}
      34:	2e2e2f2e 	cdpcs	15, 2, cr2, cr14, cr14, {1}
      38:	2f2e2e2f 	svccs	0x002e2e2f
      3c:	2e2f2e2e 	cdpcs	14, 2, cr2, cr15, cr14, {1}
      40:	616d2f2e 	cmnvs	sp, lr, lsr #30
      44:	6e696863 	cdpvs	8, 6, cr6, cr9, cr3, {3}
      48:	632f7365 			; <UNDEFINED> instruction: 0x632f7365
      4c:	6574726f 	ldrbvs	r7, [r4, #-623]!	; 0x26f
      50:	00612d78 	rsbeq	r2, r1, r8, ror sp
      54:	6e696c62 	cdpvs	12, 6, cr6, cr9, cr2, {3}
      58:	7400006b 	strvc	r0, [r0], #-107	; 0x6b
      5c:	6f5f6c70 	svcvs	0x005f6c70
      60:	656b5f73 	strbvs	r5, [fp, #-3955]!	; 0xf73
      64:	6c656e72 	stclvs	14, cr6, [r5], #-456	; 0xfffffe38
      68:	0100632e 	tsteq	r0, lr, lsr #6
      6c:	70740000 	rsbsvc	r0, r4, r0
      70:	736f5f6c 	cmnvc	pc, #108, 30	; 0x1b0
      74:	6474735f 	ldrbtvs	r7, [r4], #-863	; 0x35f
      78:	7079745f 	rsbsvc	r7, r9, pc, asr r4
      7c:	682e7365 	stmdavs	lr!, {r0, r2, r5, r6, r8, r9, ip, sp, lr}
      80:	00000200 	andeq	r0, r0, r0, lsl #4
      84:	5f6c7074 	svcpl	0x006c7074
      88:	5f707061 	svcpl	0x00707061
      8c:	74737563 	ldrbtvc	r7, [r3], #-1379	; 0x563
      90:	745f6d6f 	ldrbvc	r6, [pc], #-3439	; 98 <unused+0x94>
      94:	73657079 	cmnvc	r5, #121	; 0x79
      98:	0300682e 	movweq	r6, #2094	; 0x82e
      9c:	70740000 	rsbsvc	r0, r4, r0
      a0:	736f5f6c 	cmnvc	pc, #108, 30	; 0x1b0
      a4:	7375635f 	cmnvc	r5, #2080374785	; 0x7c000001
      a8:	5f6d6f74 	svcpl	0x006d6f74
      ac:	65707974 	ldrbvs	r7, [r0, #-2420]!	; 0x974
      b0:	00682e73 	rsbeq	r2, r8, r3, ror lr
      b4:	74000001 	strvc	r0, [r0], #-1
      b8:	6d5f6c70 	ldclvs	12, cr6, [pc, #-448]	; ffffff00 <__SP_usr_+0xfffa0480>
      bc:	69686361 	stmdbvs	r8!, {r0, r5, r6, r8, r9, sp, lr}^
      c0:	615f656e 	cmpvs	pc, lr, ror #10
      c4:	682e6d72 	stmdavs	lr!, {r1, r4, r5, r6, r8, sl, fp, sp, lr}
      c8:	00000200 	andeq	r0, r0, r0, lsl #4
      cc:	5f6c7074 	svcpl	0x006c7074
      d0:	6863616d 	stmdavs	r3!, {r0, r2, r3, r5, r6, r8, sp, lr}^
      d4:	2e656e69 	cdpcs	14, 6, cr6, cr5, cr9, {3}
      d8:	00020068 	andeq	r0, r2, r8, rrx
      dc:	6c707400 	cfldrdvs	mvd7, [r0], #-0
      e0:	5f736f5f 	svcpl	0x00736f5f
      e4:	65746e69 	ldrbvs	r6, [r4, #-3689]!	; 0xe69
      e8:	6c616e72 	stclvs	14, cr6, [r1], #-456	; 0xfffffe38
      ec:	7079745f 	rsbsvc	r7, r9, pc, asr r4
      f0:	682e7365 	stmdavs	lr!, {r0, r2, r5, r6, r8, r9, ip, sp, lr}
      f4:	00000100 	andeq	r0, r0, r0, lsl #2
      f8:	5f6c7074 	svcpl	0x006c7074
      fc:	6b5f736f 	blvs	17dcec0 <__SP_usr_+0x177d440>
     100:	656e7265 	strbvs	r7, [lr, #-613]!	; 0x265
     104:	00682e6c 	rsbeq	r2, r8, ip, ror #28
     108:	74000001 	strvc	r0, [r0], #-1
     10c:	6f5f6c70 	svcvs	0x005f6c70
     110:	65725f73 	ldrbvs	r5, [r2, #-3955]!	; 0xf73
     114:	72756f73 	rsbsvc	r6, r5, #460	; 0x1cc
     118:	6b5f6563 	blvs	17d96ac <__SP_usr_+0x1779c2c>
     11c:	656e7265 	strbvs	r7, [lr, #-613]!	; 0x265
     120:	00682e6c 	rsbeq	r2, r8, ip, ror #28
     124:	74000001 	strvc	r0, [r0], #-1
     128:	6f5f6c70 	svcvs	0x005f6c70
     12c:	79745f73 	ldmdbvc	r4!, {r0, r1, r4, r5, r6, r8, r9, sl, fp, ip, lr}^
     130:	2e736570 	mrccs	5, 3, r6, cr3, cr0, {3}
     134:	00010068 	andeq	r0, r1, r8, rrx
     138:	6c707400 	cfldrdvs	mvd7, [r0], #-0
     13c:	5f736f5f 	svcpl	0x00736f5f
     140:	656d6974 	strbvs	r6, [sp, #-2420]!	; 0x974
     144:	5f6a626f 	svcpl	0x006a626f
     148:	6e72656b 	cdpvs	5, 7, cr6, cr2, cr11, {3}
     14c:	682e6c65 	stmdavs	lr!, {r0, r2, r5, r6, sl, fp, sp, lr}
     150:	00000100 	andeq	r0, r0, r0, lsl #2
     154:	5f6c7074 	svcpl	0x006c7074
     158:	615f736f 	cmpvs	pc, pc, ror #6
     15c:	6d72616c 	ldfvse	f6, [r2, #-432]!	; 0xfffffe50
     160:	72656b5f 	rsbvc	r6, r5, #97280	; 0x17c00
     164:	2e6c656e 	cdpcs	5, 6, cr6, cr12, cr14, {3}
     168:	00010068 	andeq	r0, r1, r8, rrx
     16c:	05000000 	streq	r0, [r0, #-0]
     170:	0097ec02 	addseq	lr, r7, r2, lsl #24
     174:	01dd0300 	bicseq	r0, sp, r0, lsl #6
     178:	a39f9f01 	orrsge	r9, pc, #1, 30
     17c:	674b4c9d 			; <UNDEFINED> instruction: 0x674b4c9d
     180:	4b4c9d85 	blmi	132779c <__SP_usr_+0x12c7d1c>
     184:	03bb8467 			; <UNDEFINED> instruction: 0x03bb8467
     188:	689f820f 	ldmvs	pc, {r0, r1, r2, r3, r9, pc}	; <UNPREDICTABLE>
     18c:	5908d736 	stmdbpl	r8, {r1, r2, r4, r5, r8, r9, sl, ip, lr, pc}
     190:	74034bf3 	strvc	r4, [r3], #-3059	; 0xbf3
     194:	04020066 	streq	r0, [r2], #-102	; 0x66
     198:	02006701 	andeq	r6, r0, #262144	; 0x40000
     19c:	00830104 	addeq	r0, r3, r4, lsl #2
     1a0:	49010402 	stmdbmi	r1, {r1, sl}
     1a4:	01040200 	mrseq	r0, R12_usr
     1a8:	4a0e03b9 	bmi	381094 <__SP_usr_+0x321614>
     1ac:	9f4a0f03 	svcls	0x004a0f03
     1b0:	00673085 	rsbeq	r3, r7, r5, lsl #1
     1b4:	83010402 	movwhi	r0, #5122	; 0x1402
     1b8:	01040200 	mrseq	r0, R12_usr
     1bc:	04020083 	streq	r0, [r2], #-131	; 0x83
     1c0:	02004901 	andeq	r4, r0, #16384	; 0x4000
     1c4:	50b90104 	adcspl	r0, r9, r4, lsl #2
     1c8:	f749834c 			; <UNDEFINED> instruction: 0xf749834c
     1cc:	f45908d7 			; <UNDEFINED> instruction: 0xf45908d7
     1d0:	2e67036b 	cdpcs	3, 6, cr0, cr7, cr11, {3}
     1d4:	03d61c03 	bicseq	r1, r6, #768	; 0x300
     1d8:	08a34a0d 	stmiaeq	r3!, {r0, r2, r3, r9, fp, lr}
     1dc:	085281cc 	ldmdaeq	r2, {r2, r3, r6, r7, r8, pc}^
     1e0:	d89f4f1f 	ldmle	pc, {r0, r1, r2, r3, r4, r8, r9, sl, fp, lr}	; <UNPREDICTABLE>
     1e4:	4a0c0389 	bmi	301010 <__SP_usr_+0x2a1590>
     1e8:	81cb08a4 	bichi	r0, fp, r4, lsr #17
     1ec:	89d89f51 	ldmibhi	r8, {r0, r4, r6, r8, r9, sl, fp, ip, pc}^
     1f0:	694a0e03 	stmdbvs	sl, {r0, r1, r9, sl, fp}^
     1f4:	09035908 	stmdbeq	r3, {r3, r8, fp, ip, lr}
     1f8:	91086e82 	smlabbls	r8, r2, lr, r6
     1fc:	7908bf4f 	stmdbvc	r8, {r0, r1, r2, r3, r6, r8, r9, sl, fp, ip, sp, pc}
     200:	3503d788 	strcc	sp, [r3, #-1928]	; 0x788
     204:	9f4e6766 	svcls	0x004e6766
     208:	a068a068 	rsbge	sl, r8, r8, rrx
     20c:	2f4da068 	svccs	0x004da068
     210:	a3820b03 	orrge	r0, r2, #3072	; 0xc00
     214:	02004d81 	andeq	r4, r0, #8256	; 0x2040
     218:	66060104 	strvs	r0, [r6], -r4, lsl #2
     21c:	d8678406 	stmdale	r7!, {r1, r2, sl, pc}^
     220:	49835708 	stmibmi	r3, {r3, r8, r9, sl, ip, lr}
     224:	660b0331 			; <UNDEFINED> instruction: 0x660b0331
     228:	004d81a0 	subeq	r8, sp, r0, lsr #3
     22c:	06010402 	streq	r0, [r1], -r2, lsl #8
     230:	67840666 	strvs	r0, [r4, r6, ror #12]
     234:	660903d8 			; <UNDEFINED> instruction: 0x660903d8
     238:	f20d034e 	vcgt.s8	q0, <illegal reg q6.5>, q7
     23c:	0c03d8a1 	stceq	8, cr13, [r3], {161}	; 0xa1
     240:	0200a32e 	andeq	sl, r0, #-1207959552	; 0xb8000000
     244:	66060104 	strvs	r0, [r6], -r4, lsl #2
     248:	02040200 	andeq	r0, r4, #0, 4
     24c:	332d0682 			; <UNDEFINED> instruction: 0x332d0682
     250:	01040200 	mrseq	r0, R12_usr
     254:	03066606 	movweq	r6, #26118	; 0x6606
     258:	dea1ba11 	mcrle	10, 5, fp, cr1, cr1, {0}
     25c:	0c03bbbb 	stceq	11, cr11, [r3], {187}	; 0xbb
     260:	9e0b03ba 	mcrls	3, 0, r0, cr11, cr10, {5}
     264:	2fd60a03 	svccs	0x00d60a03
     268:	1403696e 	strne	r6, [r3], #-2414	; 0x96e
     26c:	f6f39f66 			; <UNDEFINED> instruction: 0xf6f39f66
     270:	03dd83c2 	bicseq	r8, sp, #134217731	; 0x8000003
     274:	036a4a0c 	cmneq	sl, #12, 20	; 0xc000
     278:	d5674a0a 	strble	r4, [r7, #-2570]!	; 0xa0a
     27c:	4d2f3086 	stcmi	0, cr3, [pc, #-536]!	; 6c <unused+0x68>
     280:	4a0c0384 	bmi	301098 <__SP_usr_+0x2a1618>
     284:	d94a1603 	stmdble	sl, {r0, r1, r9, sl, ip}^
     288:	ba1303c2 	blt	4c1198 <__SP_usr_+0x461718>
     28c:	039e0c03 	orrseq	r0, lr, #768	; 0x300
     290:	14032e0b 	strne	r2, [r3], #-3595	; 0xe0b
     294:	30d9a14a 	sbcscc	sl, r9, sl, asr #2
     298:	2f4d3684 	svccs	0x004d3684
     29c:	2e130383 	cdpcs	3, 1, cr0, cr3, cr3, {4}
     2a0:	852d4c9f 	strhi	r4, [sp, #-3231]!	; 0xc9f
     2a4:	820a032d 	andhi	r0, sl, #-1275068416	; 0xb4000000
     2a8:	0b038ac2 	bleq	e2db8 <__SP_usr_+0x83338>
     2ac:	694d8666 	stmdbvs	sp, {r1, r2, r5, r6, r9, sl, pc}^
     2b0:	2fba1003 	svccs	0x00ba1003
     2b4:	a0660d03 	rsbge	r0, r6, r3, lsl #26
     2b8:	836868a0 	cmnhi	r8, #160, 16	; 0xa00000
     2bc:	f34a0d03 	vpadd.f32	d16, d10, d3
     2c0:	2f4a3303 	svccs	0x004a3303
     2c4:	a0821003 	addge	r1, r2, r3
     2c8:	6769862d 	strbvs	r8, [r9, -sp, lsr #12]!
     2cc:	0384a152 	orreq	sl, r4, #-2147483628	; 0x80000014
     2d0:	69894a0b 	stmibvs	r9, {r0, r1, r3, r9, fp, lr}
     2d4:	02002208 	andeq	r2, r0, #8, 4	; 0x80000000
     2d8:	00d10204 	sbcseq	r0, r1, r4, lsl #4
     2dc:	06010402 	streq	r0, [r1], -r2, lsl #8
     2e0:	0d030666 	stceq	6, cr0, [r3, #-408]	; 0xfffffe68
     2e4:	22086866 	andcs	r6, r8, #6684672	; 0x660000
     2e8:	0200679f 	andeq	r6, r0, #41680896	; 0x27c0000
     2ec:	7a030204 	bvc	c0b04 <__SP_usr_+0x61084>
     2f0:	0402004a 	streq	r0, [r2], #-74	; 0x4a
     2f4:	06660601 	strbteq	r0, [r6], -r1, lsl #12
     2f8:	4e662e03 	cdpmi	14, 6, cr2, cr6, cr3, {0}
     2fc:	0a038551 	beq	e1848 <__SP_usr_+0x81dc8>
     300:	0b03bb2e 	bleq	eefc0 <__SP_usr_+0x8f540>
     304:	6b3230d6 	blvs	c8c664 <__SP_usr_+0xc2cbe4>
     308:	4f348450 	svcmi	0x00348450
     30c:	3350d7bb 	cmpcc	r0, #49020928	; 0x2ec0000
     310:	01000402 	tsteq	r0, r2, lsl #8
     314:	00018801 	andeq	r8, r1, r1, lsl #16
     318:	cc000200 	sfmgt	f0, 4, [r0], {-0}
     31c:	02000000 	andeq	r0, r0, #0
     320:	0d0efb01 	vstreq	d15, [lr, #-4]
     324:	01010100 	mrseq	r0, (UNDEF: 17)
     328:	00000001 	andeq	r0, r0, r1
     32c:	01000001 	tsteq	r0, r1
     330:	2e2f2e2e 	cdpcs	14, 2, cr2, cr15, cr14, {1}
     334:	2e2e2f2e 	cdpcs	15, 2, cr2, cr14, cr14, {1}
     338:	2f2e2e2f 	svccs	0x002e2e2f
     33c:	2e2f2e2e 	cdpcs	14, 2, cr2, cr15, cr14, {1}
     340:	736f2f2e 	cmnvc	pc, #46, 30	; 0xb8
     344:	2f2e2e00 	svccs	0x002e2e00
     348:	2e2f2e2e 	cdpcs	14, 2, cr2, cr15, cr14, {1}
     34c:	2e2e2f2e 	cdpcs	15, 2, cr2, cr14, cr14, {1}
     350:	2f2e2e2f 	svccs	0x002e2e2f
     354:	6d2f2e2e 	stcvs	14, cr2, [pc, #-184]!	; 2a4 <unused+0x2a0>
     358:	69686361 	stmdbvs	r8!, {r0, r5, r6, r8, r9, sp, lr}^
     35c:	2f73656e 	svccs	0x0073656e
     360:	74726f63 	ldrbtvc	r6, [r2], #-3939	; 0xf63
     364:	612d7865 			; <UNDEFINED> instruction: 0x612d7865
     368:	70740000 	rsbsvc	r0, r4, r0
     36c:	736f5f6c 	cmnvc	pc, #108, 30	; 0x1b0
     370:	6d69745f 	cfstrdvs	mvd7, [r9, #-380]!	; 0xfffffe84
     374:	6a626f65 	bvs	189c110 <__SP_usr_+0x183c690>
     378:	72656b5f 	rsbvc	r6, r5, #97280	; 0x17c00
     37c:	2e6c656e 	cdpcs	5, 6, cr6, cr12, cr14, {3}
     380:	00010063 	andeq	r0, r1, r3, rrx
     384:	6c707400 	cfldrdvs	mvd7, [r0], #-0
     388:	5f736f5f 	svcpl	0x00736f5f
     38c:	5f647473 	svcpl	0x00647473
     390:	65707974 	ldrbvs	r7, [r0, #-2420]!	; 0x974
     394:	00682e73 	rsbeq	r2, r8, r3, ror lr
     398:	74000002 	strvc	r0, [r0], #-2
     39c:	6f5f6c70 	svcvs	0x005f6c70
     3a0:	75635f73 	strbvc	r5, [r3, #-3955]!	; 0xf73
     3a4:	6d6f7473 	cfstrdvs	mvd7, [pc, #-460]!	; 1e0 <unused+0x1dc>
     3a8:	7079745f 	rsbsvc	r7, r9, pc, asr r4
     3ac:	682e7365 	stmdavs	lr!, {r0, r2, r5, r6, r8, r9, ip, sp, lr}
     3b0:	00000100 	andeq	r0, r0, r0, lsl #2
     3b4:	5f6c7074 	svcpl	0x006c7074
     3b8:	695f736f 	ldmdbvs	pc, {r0, r1, r2, r3, r5, r6, r8, r9, ip, sp, lr}^	; <UNPREDICTABLE>
     3bc:	7265746e 	rsbvc	r7, r5, #1845493760	; 0x6e000000
     3c0:	5f6c616e 	svcpl	0x006c616e
     3c4:	65707974 	ldrbvs	r7, [r0, #-2420]!	; 0x974
     3c8:	00682e73 	rsbeq	r2, r8, r3, ror lr
     3cc:	74000001 	strvc	r0, [r0], #-1
     3d0:	6f5f6c70 	svcvs	0x005f6c70
     3d4:	69745f73 	ldmdbvs	r4!, {r0, r1, r4, r5, r6, r8, r9, sl, fp, ip, lr}^
     3d8:	626f656d 	rsbvs	r6, pc, #457179136	; 0x1b400000
     3dc:	656b5f6a 	strbvs	r5, [fp, #-3946]!	; 0xf6a
     3e0:	6c656e72 	stclvs	14, cr6, [r5], #-456	; 0xfffffe38
     3e4:	0100682e 	tsteq	r0, lr, lsr #16
     3e8:	00000000 	andeq	r0, r0, r0
     3ec:	a6940205 	ldrge	r0, [r4], r5, lsl #4
     3f0:	32030000 	andcc	r0, r3, #0
     3f4:	03834b01 	orreq	r4, r3, #1024	; 0x400
     3f8:	8585660d 	strhi	r6, [r5, #1549]	; 0x60d
     3fc:	676a4c69 	strbvs	r4, [sl, -r9, ror #24]!
     400:	4b31f867 	blmi	c7e5a4 <__SP_usr_+0xc1eb24>
     404:	04020062 	streq	r0, [r2], #-98	; 0x62
     408:	02006701 	andeq	r6, r0, #262144	; 0x40000
     40c:	51810104 	orrpl	r0, r1, r4, lsl #2
     410:	68686967 	stmdavs	r8!, {r0, r1, r2, r5, r6, r8, fp, sp, lr}^
     414:	d86d8969 	stmdale	sp!, {r0, r3, r5, r6, r8, fp, pc}^
     418:	01040200 	mrseq	r0, R12_usr
     41c:	040200bb 	streq	r0, [r2], #-187	; 0xbb
     420:	874d9d01 	strbhi	r9, [sp, -r1, lsl #26]
     424:	01040200 	mrseq	r0, R12_usr
     428:	040200bb 	streq	r0, [r2], #-187	; 0xbb
     42c:	6a4d9d01 	bvs	1367838 <__SP_usr_+0x1307db8>
     430:	a086846e 	addge	r8, r6, lr, ror #8
     434:	8485a086 	strhi	sl, [r5], #134	; 0x86
     438:	84a484a0 	strthi	r8, [r4], #1184	; 0x4a0
     43c:	66090384 	strvs	r0, [r9], -r4, lsl #7
     440:	694c6783 	stmdbvs	ip, {r0, r1, r7, r8, r9, sl, sp, lr}^
     444:	0200674c 	andeq	r6, r0, #76, 14	; 0x1300000
     448:	29030204 	stmdbcs	r3, {r2, r9}
     44c:	0402004a 	streq	r0, [r2], #-74	; 0x4a
     450:	02004b02 	andeq	r4, r0, #2048	; 0x800
     454:	004b0204 	subeq	r0, fp, r4, lsl #4
     458:	69020402 	stmdbvs	r2, {r1, sl}
     45c:	01040200 	mrseq	r0, R12_usr
     460:	a1066606 	tstge	r6, r6, lsl #12
     464:	68686767 	stmdavs	r8!, {r0, r1, r2, r5, r6, r8, r9, sl, sp, lr}^
     468:	6da06b68 	stcvs	11, cr6, [r0, #416]!	; 0x1a0
     46c:	86686a68 	strbthi	r6, [r8], -r8, ror #20
     470:	032f6985 			; <UNDEFINED> instruction: 0x032f6985
     474:	11038218 	tstne	r3, r8, lsl r2
     478:	bca0a182 	stfltd	f2, [r0], #520	; 0x208
     47c:	4ca06767 	stcmi	7, cr6, [r0], #412	; 0x19c
     480:	00686c67 	rsbeq	r6, r8, r7, ror #24
     484:	06010402 	streq	r0, [r1], -r2, lsl #8
     488:	09030666 	stmdbeq	r3, {r1, r2, r5, r6, r9, sl}
     48c:	506d689e 	mlspl	sp, lr, r8, r6
     490:	87698367 	strbhi	r8, [r9, -r7, ror #6]!
     494:	6abca0bb 	bvs	fef28788 <__SP_usr_+0xfeec8d08>
     498:	6b4b6869 	blvs	12da644 <__SP_usr_+0x127abc4>
     49c:	01000402 	tsteq	r0, r2, lsl #8
     4a0:	0000f401 	andeq	pc, r0, r1, lsl #8
     4a4:	d5000200 	strle	r0, [r0, #-512]	; 0x200
     4a8:	02000000 	andeq	r0, r0, #0
     4ac:	0d0efb01 	vstreq	d15, [lr, #-4]
     4b0:	01010100 	mrseq	r0, (UNDEF: 17)
     4b4:	00000001 	andeq	r0, r0, r1
     4b8:	01000001 	tsteq	r0, r1
     4bc:	2e2f2e2e 	cdpcs	14, 2, cr2, cr15, cr14, {1}
     4c0:	2e2e2f2e 	cdpcs	15, 2, cr2, cr14, cr14, {1}
     4c4:	2f2e2e2f 	svccs	0x002e2e2f
     4c8:	2e2f2e2e 	cdpcs	14, 2, cr2, cr15, cr14, {1}
     4cc:	736f2f2e 	cmnvc	pc, #46, 30	; 0xb8
     4d0:	2f2e2e00 	svccs	0x002e2e00
     4d4:	2e2f2e2e 	cdpcs	14, 2, cr2, cr15, cr14, {1}
     4d8:	2e2e2f2e 	cdpcs	15, 2, cr2, cr14, cr14, {1}
     4dc:	2f2e2e2f 	svccs	0x002e2e2f
     4e0:	6d2f2e2e 	stcvs	14, cr2, [pc, #-184]!	; 430 <unused+0x42c>
     4e4:	69686361 	stmdbvs	r8!, {r0, r5, r6, r8, r9, sp, lr}^
     4e8:	2f73656e 	svccs	0x0073656e
     4ec:	74726f63 	ldrbtvc	r6, [r2], #-3939	; 0xf63
     4f0:	612d7865 			; <UNDEFINED> instruction: 0x612d7865
     4f4:	696c6200 	stmdbvs	ip!, {r9, sp, lr}^
     4f8:	00006b6e 	andeq	r6, r0, lr, ror #22
     4fc:	5f6c7074 	svcpl	0x006c7074
     500:	615f736f 	cmpvs	pc, pc, ror #6
     504:	6f697463 	svcvs	0x00697463
     508:	00632e6e 	rsbeq	r2, r3, lr, ror #28
     50c:	74000001 	strvc	r0, [r0], #-1
     510:	6f5f6c70 	svcvs	0x005f6c70
     514:	74735f73 	ldrbtvc	r5, [r3], #-3955	; 0xf73
     518:	79745f64 	ldmdbvc	r4!, {r2, r5, r6, r8, r9, sl, fp, ip, lr}^
     51c:	2e736570 	mrccs	5, 3, r6, cr3, cr0, {3}
     520:	00020068 	andeq	r0, r2, r8, rrx
     524:	6c707400 	cfldrdvs	mvd7, [r0], #-0
     528:	7070615f 	rsbsvc	r6, r0, pc, asr r1
     52c:	7375635f 	cmnvc	r5, #2080374785	; 0x7c000001
     530:	5f6d6f74 	svcpl	0x006d6f74
     534:	65707974 	ldrbvs	r7, [r0, #-2420]!	; 0x974
     538:	00682e73 	rsbeq	r2, r8, r3, ror lr
     53c:	74000003 	strvc	r0, [r0], #-3
     540:	6f5f6c70 	svcvs	0x005f6c70
     544:	6e695f73 	mcrvs	15, 3, r5, cr9, cr3, {3}
     548:	6e726574 	mrcvs	5, 3, r6, cr2, cr4, {3}
     54c:	745f6c61 	ldrbvc	r6, [pc], #-3169	; 554 <unused+0x550>
     550:	73657079 	cmnvc	r5, #121	; 0x79
     554:	0100682e 	tsteq	r0, lr, lsr #16
     558:	70740000 	rsbsvc	r0, r4, r0
     55c:	736f5f6c 	cmnvc	pc, #108, 30	; 0x1b0
     560:	7079745f 	rsbsvc	r7, r9, pc, asr r4
     564:	682e7365 	stmdavs	lr!, {r0, r2, r5, r6, r8, r9, ip, sp, lr}
     568:	00000100 	andeq	r0, r0, r0, lsl #2
     56c:	5f6c7074 	svcpl	0x006c7074
     570:	615f736f 	cmpvs	pc, pc, ror #6
     574:	6f697463 	svcvs	0x00697463
     578:	00682e6e 	rsbeq	r2, r8, lr, ror #28
     57c:	00000001 	andeq	r0, r0, r1
     580:	44020500 	strmi	r0, [r2], #-1280	; 0x500
     584:	030000ac 	movweq	r0, #172	; 0xac
     588:	67890129 	strvs	r0, [r9, r9, lsr #2]
     58c:	034a0903 	movteq	r0, #43267	; 0xa903
     590:	dc51820a 	lfmle	f0, 3, [r1], {10}
     594:	01000402 	tsteq	r0, r2, lsl #8
     598:	00001901 	andeq	r1, r0, r1, lsl #18
     59c:	13000200 	movwne	r0, #512	; 0x200
     5a0:	02000000 	andeq	r0, r0, #0
     5a4:	0d0efb01 	vstreq	d15, [lr, #-4]
     5a8:	01010100 	mrseq	r0, (UNDEF: 17)
     5ac:	00000001 	andeq	r0, r0, r1
     5b0:	01000001 	tsteq	r0, r1
     5b4:	00d70000 	sbcseq	r0, r7, r0
     5b8:	00020000 	andeq	r0, r2, r0
     5bc:	00000093 	muleq	r0, r3, r0
     5c0:	0efb0102 	cdpeq	1, 15, cr0, cr11, cr2, {0}
     5c4:	0101000d 	tsteq	r1, sp
     5c8:	00000101 	andeq	r0, r0, r1, lsl #2
     5cc:	00000100 	andeq	r0, r0, r0, lsl #2
     5d0:	2f2e2e01 	svccs	0x002e2e01
     5d4:	2e2f2e2e 	cdpcs	14, 2, cr2, cr15, cr14, {1}
     5d8:	2e2e2f2e 	cdpcs	15, 2, cr2, cr14, cr14, {1}
     5dc:	2f2e2e2f 	svccs	0x002e2e2f
     5e0:	6f2f2e2e 	svcvs	0x002f2e2e
     5e4:	2e2e0073 	mcrcs	0, 1, r0, cr14, cr3, {3}
     5e8:	2f2e2e2f 	svccs	0x002e2e2f
     5ec:	2e2f2e2e 	cdpcs	14, 2, cr2, cr15, cr14, {1}
     5f0:	2e2e2f2e 	cdpcs	15, 2, cr2, cr14, cr14, {1}
     5f4:	2f2e2e2f 	svccs	0x002e2e2f
     5f8:	6863616d 	stmdavs	r3!, {r0, r2, r3, r5, r6, r8, sp, lr}^
     5fc:	73656e69 	cmnvc	r5, #1680	; 0x690
     600:	726f632f 	rsbvc	r6, pc, #-1140850688	; 0xbc000000
     604:	2d786574 	cfldr64cs	mvdx6, [r8, #-464]!	; 0xfffffe30
     608:	74000061 	strvc	r0, [r0], #-97	; 0x61
     60c:	6f5f6c70 	svcvs	0x005f6c70
     610:	736f5f73 	cmnvc	pc, #460	; 0x1cc
     614:	72656b5f 	rsbvc	r6, r5, #97280	; 0x17c00
     618:	2e6c656e 	cdpcs	5, 6, cr6, cr12, cr14, {3}
     61c:	00010063 	andeq	r0, r1, r3, rrx
     620:	6c707400 	cfldrdvs	mvd7, [r0], #-0
     624:	5f736f5f 	svcpl	0x00736f5f
     628:	5f647473 	svcpl	0x00647473
     62c:	65707974 	ldrbvs	r7, [r0, #-2420]!	; 0x974
     630:	00682e73 	rsbeq	r2, r8, r3, ror lr
     634:	74000002 	strvc	r0, [r0], #-2
     638:	6f5f6c70 	svcvs	0x005f6c70
     63c:	6e695f73 	mcrvs	15, 3, r5, cr9, cr3, {3}
     640:	6e726574 	mrcvs	5, 3, r6, cr2, cr4, {3}
     644:	745f6c61 	ldrbvc	r6, [pc], #-3169	; 64c <unused+0x648>
     648:	73657079 	cmnvc	r5, #121	; 0x79
     64c:	0100682e 	tsteq	r0, lr, lsr #16
     650:	00000000 	andeq	r0, r0, r0
     654:	aca40205 	sfmge	f0, 4, [r4], #20
     658:	cb030000 	blgt	c0660 <__SP_usr_+0x60be0>
     65c:	50680100 	rsbpl	r0, r8, r0, lsl #2
     660:	01040200 	mrseq	r0, R12_usr
     664:	52068206 	andpl	r8, r6, #1610612736	; 0x60000000
     668:	a26a4b89 	rsbge	r4, sl, #140288	; 0x22400
     66c:	004a0903 	subeq	r0, sl, r3, lsl #18
     670:	06010402 	streq	r0, [r1], -r2, lsl #8
     674:	04020066 	streq	r0, [r2], #-102	; 0x66
     678:	4c068202 	sfmmi	f0, 1, [r6], {2}
     67c:	87660b03 	strbhi	r0, [r6, -r3, lsl #22]!
     680:	2e180368 	cdpcs	3, 1, cr0, cr8, cr8, {3}
     684:	4e2e0b03 	vmulmi.f64	d0, d14, d3
     688:	369e1f03 	ldrcc	r1, [lr], r3, lsl #30
     68c:	01000402 	tsteq	r0, r2, lsl #8
     690:	0000b601 	andeq	fp, r0, r1, lsl #12
     694:	9b000200 	blls	e9c <unused+0xe98>
     698:	02000000 	andeq	r0, r0, #0
     69c:	0d0efb01 	vstreq	d15, [lr, #-4]
     6a0:	01010100 	mrseq	r0, (UNDEF: 17)
     6a4:	00000001 	andeq	r0, r0, r1
     6a8:	01000001 	tsteq	r0, r1
     6ac:	2e2f2e2e 	cdpcs	14, 2, cr2, cr15, cr14, {1}
     6b0:	2e2e2f2e 	cdpcs	15, 2, cr2, cr14, cr14, {1}
     6b4:	2f2e2e2f 	svccs	0x002e2e2f
     6b8:	2e2f2e2e 	cdpcs	14, 2, cr2, cr15, cr14, {1}
     6bc:	736f2f2e 	cmnvc	pc, #46, 30	; 0xb8
     6c0:	2f2e2e00 	svccs	0x002e2e00
     6c4:	2e2f2e2e 	cdpcs	14, 2, cr2, cr15, cr14, {1}
     6c8:	2e2e2f2e 	cdpcs	15, 2, cr2, cr14, cr14, {1}
     6cc:	2f2e2e2f 	svccs	0x002e2e2f
     6d0:	6d2f2e2e 	stcvs	14, cr2, [pc, #-184]!	; 620 <unused+0x61c>
     6d4:	69686361 	stmdbvs	r8!, {r0, r5, r6, r8, r9, sp, lr}^
     6d8:	2f73656e 	svccs	0x0073656e
     6dc:	74726f63 	ldrbtvc	r6, [r2], #-3939	; 0xf63
     6e0:	612d7865 			; <UNDEFINED> instruction: 0x612d7865
     6e4:	70740000 	rsbsvc	r0, r4, r0
     6e8:	736f5f6c 	cmnvc	pc, #108, 30	; 0x1b0
     6ec:	2e736f5f 	mrccs	15, 3, r6, cr3, cr15, {2}
     6f0:	00010063 	andeq	r0, r1, r3, rrx
     6f4:	6c707400 	cfldrdvs	mvd7, [r0], #-0
     6f8:	5f736f5f 	svcpl	0x00736f5f
     6fc:	5f647473 	svcpl	0x00647473
     700:	65707974 	ldrbvs	r7, [r0, #-2420]!	; 0x974
     704:	00682e73 	rsbeq	r2, r8, r3, ror lr
     708:	74000002 	strvc	r0, [r0], #-2
     70c:	6f5f6c70 	svcvs	0x005f6c70
     710:	6e695f73 	mcrvs	15, 3, r5, cr9, cr3, {3}
     714:	6e726574 	mrcvs	5, 3, r6, cr2, cr4, {3}
     718:	745f6c61 	ldrbvc	r6, [pc], #-3169	; 720 <unused+0x71c>
     71c:	73657079 	cmnvc	r5, #121	; 0x79
     720:	0100682e 	tsteq	r0, lr, lsr #16
     724:	70740000 	rsbsvc	r0, r4, r0
     728:	736f5f6c 	cmnvc	pc, #108, 30	; 0x1b0
     72c:	2e736f5f 	mrccs	15, 3, r6, cr3, cr15, {2}
     730:	00010068 	andeq	r0, r1, r8, rrx
     734:	05000000 	streq	r0, [r0, #-0]
     738:	00c5cc02 	sbceq	ip, r5, r2, lsl #24
     73c:	012c0300 			; <UNDEFINED> instruction: 0x012c0300
     740:	090389a1 	stmdbeq	r3, {r0, r5, r7, r8, fp, pc}
     744:	04026c2e 	streq	r6, [r2], #-3118	; 0xc2e
     748:	73010100 	movwvc	r0, #4352	; 0x1100
     74c:	02000001 	andeq	r0, r0, #1
     750:	0000f300 	andeq	pc, r0, r0, lsl #6
     754:	fb010200 	blx	40f5e <vectors_end+0x328de>
     758:	01000d0e 	tsteq	r0, lr, lsl #26
     75c:	00010101 	andeq	r0, r1, r1, lsl #2
     760:	00010000 	andeq	r0, r1, r0
     764:	2e2e0100 	sufcse	f0, f6, f0
     768:	2f2e2e2f 	svccs	0x002e2e2f
     76c:	2e2f2e2e 	cdpcs	14, 2, cr2, cr15, cr14, {1}
     770:	2e2e2f2e 	cdpcs	15, 2, cr2, cr14, cr14, {1}
     774:	2f2e2e2f 	svccs	0x002e2e2f
     778:	2e00736f 	cdpcs	3, 0, cr7, cr0, cr15, {3}
     77c:	2e2e2f2e 	cdpcs	15, 2, cr2, cr14, cr14, {1}
     780:	2f2e2e2f 	svccs	0x002e2e2f
     784:	2e2f2e2e 	cdpcs	14, 2, cr2, cr15, cr14, {1}
     788:	2e2e2f2e 	cdpcs	15, 2, cr2, cr14, cr14, {1}
     78c:	63616d2f 	cmnvs	r1, #3008	; 0xbc0
     790:	656e6968 	strbvs	r6, [lr, #-2408]!	; 0x968
     794:	6f632f73 	svcvs	0x00632f73
     798:	78657472 	stmdavc	r5!, {r1, r4, r5, r6, sl, ip, sp, lr}^
     79c:	6200612d 	andvs	r6, r0, #1073741835	; 0x4000000b
     7a0:	6b6e696c 	blvs	1b9ad58 <__SP_usr_+0x1b3b2d8>
     7a4:	70740000 	rsbsvc	r0, r4, r0
     7a8:	736f5f6c 	cmnvc	pc, #108, 30	; 0x1b0
     7ac:	746e695f 	strbtvc	r6, [lr], #-2399	; 0x95f
     7b0:	75727265 	ldrbvc	r7, [r2, #-613]!	; 0x265
     7b4:	6b5f7470 	blvs	17dd97c <__SP_usr_+0x177defc>
     7b8:	656e7265 	strbvs	r7, [lr, #-613]!	; 0x265
     7bc:	00632e6c 	rsbeq	r2, r3, ip, ror #28
     7c0:	74000001 	strvc	r0, [r0], #-1
     7c4:	6f5f6c70 	svcvs	0x005f6c70
     7c8:	74735f73 	ldrbtvc	r5, [r3], #-3955	; 0xf73
     7cc:	79745f64 	ldmdbvc	r4!, {r2, r5, r6, r8, r9, sl, fp, ip, lr}^
     7d0:	2e736570 	mrccs	5, 3, r6, cr3, cr0, {3}
     7d4:	00020068 	andeq	r0, r2, r8, rrx
     7d8:	6c707400 	cfldrdvs	mvd7, [r0], #-0
     7dc:	7070615f 	rsbsvc	r6, r0, pc, asr r1
     7e0:	7375635f 	cmnvc	r5, #2080374785	; 0x7c000001
     7e4:	5f6d6f74 	svcpl	0x006d6f74
     7e8:	65707974 	ldrbvs	r7, [r0, #-2420]!	; 0x974
     7ec:	00682e73 	rsbeq	r2, r8, r3, ror lr
     7f0:	74000003 	strvc	r0, [r0], #-3
     7f4:	6d5f6c70 	ldclvs	12, cr6, [pc, #-448]	; 63c <unused+0x638>
     7f8:	69686361 	stmdbvs	r8!, {r0, r5, r6, r8, r9, sp, lr}^
     7fc:	615f656e 	cmpvs	pc, lr, ror #10
     800:	682e6d72 	stmdavs	lr!, {r1, r4, r5, r6, r8, sl, fp, sp, lr}
     804:	00000200 	andeq	r0, r0, r0, lsl #4
     808:	5f6c7074 	svcpl	0x006c7074
     80c:	6863616d 	stmdavs	r3!, {r0, r2, r3, r5, r6, r8, sp, lr}^
     810:	2e656e69 	cdpcs	14, 6, cr6, cr5, cr9, {3}
     814:	00020068 	andeq	r0, r2, r8, rrx
     818:	6c707400 	cfldrdvs	mvd7, [r0], #-0
     81c:	5f736f5f 	svcpl	0x00736f5f
     820:	65746e69 	ldrbvs	r6, [r4, #-3689]!	; 0xe69
     824:	6c616e72 	stclvs	14, cr6, [r1], #-456	; 0xfffffe38
     828:	7079745f 	rsbsvc	r7, r9, pc, asr r4
     82c:	682e7365 	stmdavs	lr!, {r0, r2, r5, r6, r8, r9, ip, sp, lr}
     830:	00000100 	andeq	r0, r0, r0, lsl #2
     834:	5f6c7074 	svcpl	0x006c7074
     838:	6b5f736f 	blvs	17dd5fc <__SP_usr_+0x177db7c>
     83c:	656e7265 	strbvs	r7, [lr, #-613]!	; 0x265
     840:	00682e6c 	rsbeq	r2, r8, ip, ror #28
     844:	00000001 	andeq	r0, r0, r1
     848:	8c020500 	cfstr32hi	mvfx0, [r2], {-0}
     84c:	030000ad 	movweq	r0, #173	; 0xad
     850:	690100c9 	stmdbvs	r1, {r0, r3, r6, r7}
     854:	01040200 	mrseq	r0, R12_usr
     858:	0402009f 	streq	r0, [r2], #-159	; 0x9f
     85c:	654c6501 	strbvs	r6, [ip, #-1281]	; 0x501
     860:	2f4d6a4d 	svccs	0x004d6a4d
     864:	83844b85 	orrhi	r4, r4, #136192	; 0x21400
     868:	4b6cbb84 	blmi	1b2f680 <__SP_usr_+0x1acfc00>
     86c:	34d8d830 	ldrbcc	sp, [r8], #2096	; 0x830
     870:	d8d8a04f 	ldmle	r8, {r0, r1, r2, r3, r6, sp, pc}^
     874:	4b3432a0 	blmi	d0d2fc <__SP_usr_+0xcad87c>
     878:	01040200 	mrseq	r0, R12_usr
     87c:	0402009f 	streq	r0, [r2], #-159	; 0x9f
     880:	304d6501 	subcc	r6, sp, r1, lsl #10
     884:	a04b3484 	subge	r3, fp, r4, lsl #9
     888:	4b343084 	blmi	d0caa0 <__SP_usr_+0xcad020>
     88c:	34d8d830 	ldrbcc	sp, [r8], #2096	; 0x830
     890:	d8d8a04f 	ldmle	r8, {r0, r1, r2, r3, r6, sp, pc}^
     894:	090331a0 	stmdbeq	r3, {r5, r7, r8, ip, sp}
     898:	004c6a2e 	subeq	r6, ip, lr, lsr #20
     89c:	06010402 	streq	r0, [r1], -r2, lsl #8
     8a0:	004d0682 	subeq	r0, sp, r2, lsl #13
     8a4:	06010402 	streq	r0, [r1], -r2, lsl #8
     8a8:	004c0666 	subeq	r0, ip, r6, ror #12
     8ac:	06010402 	streq	r0, [r1], -r2, lsl #8
     8b0:	04020066 	streq	r0, [r2], #-102	; 0x66
     8b4:	0306ba02 	movweq	fp, #27138	; 0x6a02
     8b8:	692f4a16 	stmdbvs	pc!, {r1, r2, r4, r9, fp, lr}	; <UNPREDICTABLE>
     8bc:	00060284 	andeq	r0, r6, r4, lsl #5
     8c0:	020b0101 	andeq	r0, fp, #1073741824	; 0x40000000
     8c4:	00020000 	andeq	r0, r2, r0
     8c8:	00000100 	andeq	r0, r0, r0, lsl #2
     8cc:	0efb0102 	cdpeq	1, 15, cr0, cr11, cr2, {0}
     8d0:	0101000d 	tsteq	r1, sp
     8d4:	00000101 	andeq	r0, r0, r1, lsl #2
     8d8:	00000100 	andeq	r0, r0, r0, lsl #2
     8dc:	2f2e2e01 	svccs	0x002e2e01
     8e0:	2e2f2e2e 	cdpcs	14, 2, cr2, cr15, cr14, {1}
     8e4:	2e2e2f2e 	cdpcs	15, 2, cr2, cr14, cr14, {1}
     8e8:	2f2e2e2f 	svccs	0x002e2e2f
     8ec:	6f2f2e2e 	svcvs	0x002f2e2e
     8f0:	2e2e0073 	mcrcs	0, 1, r0, cr14, cr3, {3}
     8f4:	2f2e2e2f 	svccs	0x002e2e2f
     8f8:	2e2f2e2e 	cdpcs	14, 2, cr2, cr15, cr14, {1}
     8fc:	2e2e2f2e 	cdpcs	15, 2, cr2, cr14, cr14, {1}
     900:	2f2e2e2f 	svccs	0x002e2e2f
     904:	6863616d 	stmdavs	r3!, {r0, r2, r3, r5, r6, r8, sp, lr}^
     908:	73656e69 	cmnvc	r5, #1680	; 0x690
     90c:	726f632f 	rsbvc	r6, pc, #-1140850688	; 0xbc000000
     910:	2d786574 	cfldr64cs	mvdx6, [r8, #-464]!	; 0xfffffe30
     914:	6c620061 	stclvs	0, cr0, [r2], #-388	; 0xfffffe7c
     918:	006b6e69 	rsbeq	r6, fp, r9, ror #28
     91c:	6c707400 	cfldrdvs	mvd7, [r0], #-0
     920:	5f736f5f 	svcpl	0x00736f5f
     924:	6b736174 	blvs	1cd8efc <__SP_usr_+0x1c7947c>
     928:	72656b5f 	rsbvc	r6, r5, #97280	; 0x17c00
     92c:	2e6c656e 	cdpcs	5, 6, cr6, cr12, cr14, {3}
     930:	00010063 	andeq	r0, r1, r3, rrx
     934:	6c707400 	cfldrdvs	mvd7, [r0], #-0
     938:	5f736f5f 	svcpl	0x00736f5f
     93c:	5f647473 	svcpl	0x00647473
     940:	65707974 	ldrbvs	r7, [r0, #-2420]!	; 0x974
     944:	00682e73 	rsbeq	r2, r8, r3, ror lr
     948:	74000002 	strvc	r0, [r0], #-2
     94c:	615f6c70 	cmpvs	pc, r0, ror ip	; <UNPREDICTABLE>
     950:	635f7070 	cmpvs	pc, #112	; 0x70
     954:	6f747375 	svcvs	0x00747375
     958:	79745f6d 	ldmdbvc	r4!, {r0, r2, r3, r5, r6, r8, r9, sl, fp, ip, lr}^
     95c:	2e736570 	mrccs	5, 3, r6, cr3, cr0, {3}
     960:	00030068 	andeq	r0, r3, r8, rrx
     964:	6c707400 	cfldrdvs	mvd7, [r0], #-0
     968:	63616d5f 	cmnvs	r1, #6080	; 0x17c0
     96c:	656e6968 	strbvs	r6, [lr, #-2408]!	; 0x968
     970:	6d72615f 	ldfvse	f6, [r2, #-380]!	; 0xfffffe84
     974:	0200682e 	andeq	r6, r0, #3014656	; 0x2e0000
     978:	70740000 	rsbsvc	r0, r4, r0
     97c:	616d5f6c 	cmnvs	sp, ip, ror #30
     980:	6e696863 	cdpvs	8, 6, cr6, cr9, cr3, {3}
     984:	00682e65 	rsbeq	r2, r8, r5, ror #28
     988:	74000002 	strvc	r0, [r0], #-2
     98c:	6f5f6c70 	svcvs	0x005f6c70
     990:	6e695f73 	mcrvs	15, 3, r5, cr9, cr3, {3}
     994:	6e726574 	mrcvs	5, 3, r6, cr2, cr4, {3}
     998:	745f6c61 	ldrbvc	r6, [pc], #-3169	; 9a0 <unused+0x99c>
     99c:	73657079 	cmnvc	r5, #121	; 0x79
     9a0:	0100682e 	tsteq	r0, lr, lsr #16
     9a4:	70740000 	rsbsvc	r0, r4, r0
     9a8:	736f5f6c 	cmnvc	pc, #108, 30	; 0x1b0
     9ac:	72656b5f 	rsbvc	r6, r5, #97280	; 0x17c00
     9b0:	2e6c656e 	cdpcs	5, 6, cr6, cr12, cr14, {3}
     9b4:	00010068 	andeq	r0, r1, r8, rrx
     9b8:	6c707400 	cfldrdvs	mvd7, [r0], #-0
     9bc:	5f736f5f 	svcpl	0x00736f5f
     9c0:	65707974 	ldrbvs	r7, [r0, #-2420]!	; 0x974
     9c4:	00682e73 	rsbeq	r2, r8, r3, ror lr
     9c8:	00000001 	andeq	r0, r0, r1
     9cc:	dc020500 	cfstr32le	mvfx0, [r2], {-0}
     9d0:	030000b0 	movweq	r0, #176	; 0xb0
     9d4:	50a30135 	adcpl	r0, r3, r5, lsr r1
     9d8:	01040200 	mrseq	r0, R12_usr
     9dc:	51068206 	tstpl	r6, r6, lsl #4
     9e0:	01040200 	mrseq	r0, R12_usr
     9e4:	02006606 	andeq	r6, r0, #6291456	; 0x600000
     9e8:	00660304 	rsbeq	r0, r6, r4, lsl #6
     9ec:	66040402 	strvs	r0, [r4], -r2, lsl #8
     9f0:	9f6a5006 	svcls	0x006a5006
     9f4:	2e0c03a0 	cdpcs	3, 0, cr0, cr12, cr0, {5}
     9f8:	516a6a2f 	cmnpl	sl, pc, lsr #20
     9fc:	01040200 	mrseq	r0, R12_usr
     a00:	4c068206 	sfmmi	f0, 1, [r6], {6}
     a04:	01040200 	mrseq	r0, R12_usr
     a08:	02006606 	andeq	r6, r0, #6291456	; 0x600000
     a0c:	06820204 	streq	r0, [r2], r4, lsl #4
     a10:	0402004c 	streq	r0, [r2], #-76	; 0x4c
     a14:	00660601 	rsbeq	r0, r6, r1, lsl #12
     a18:	ba020402 	blt	81a28 <__SP_usr_+0x21fa8>
     a1c:	d9684d06 	stmdble	r8!, {r1, r2, r8, sl, fp, lr}^
     a20:	0c033130 	stfeqs	f3, [r3], {48}	; 0x30
     a24:	a16b2f82 	cmnge	fp, r2, lsl #31
     a28:	04020050 	streq	r0, [r2], #-80	; 0x50
     a2c:	06820601 	streq	r0, [r2], r1, lsl #12
     a30:	04020051 	streq	r0, [r2], #-81	; 0x51
     a34:	00660601 	rsbeq	r0, r6, r1, lsl #12
     a38:	82020402 	andhi	r0, r2, #33554432	; 0x2000000
     a3c:	02004c06 	andeq	r4, r0, #1536	; 0x600
     a40:	66060104 	strvs	r0, [r6], -r4, lsl #2
     a44:	03040200 	movweq	r0, #16896	; 0x4200
     a48:	04020066 	streq	r0, [r2], #-102	; 0x66
     a4c:	4c066604 	stcmi	6, cr6, [r6], {4}
     a50:	01040200 	mrseq	r0, R12_usr
     a54:	02006606 	andeq	r6, r0, #6291456	; 0x600000
     a58:	06ba0204 	ldrteq	r0, [sl], r4, lsl #4
     a5c:	a0db6850 	sbcsge	r6, fp, r0, asr r8
     a60:	30661603 	rsbcc	r1, r6, r3, lsl #12
     a64:	0b03a530 	bleq	e9f2c <__SP_usr_+0x8a4ac>
     a68:	696a2fd6 	stmdbvs	sl!, {r1, r2, r4, r6, r7, r8, r9, sl, fp, sp}^
     a6c:	04020050 	streq	r0, [r2], #-80	; 0x50
     a70:	06820601 	streq	r0, [r2], r1, lsl #12
     a74:	04020050 	streq	r0, [r2], #-80	; 0x50
     a78:	00660601 	rsbeq	r0, r6, r1, lsl #12
     a7c:	82020402 	andhi	r0, r2, #33554432	; 0x2000000
     a80:	02004c06 	andeq	r4, r0, #1536	; 0x600
     a84:	66060104 	strvs	r0, [r6], -r4, lsl #2
     a88:	02040200 	andeq	r0, r4, #0, 4
     a8c:	6a4d06ba 	bvs	134257c <__SP_usr_+0x12e2afc>
     a90:	03f431d8 	mvnseq	r3, #216, 2	; 0x36
     a94:	6b2fd60d 	blvs	bf62d0 <__SP_usr_+0xb96850>
     a98:	02004f85 	andeq	r4, r0, #532	; 0x214
     a9c:	82060104 	andhi	r0, r6, #4, 2
     aa0:	4a0d0306 	bmi	3416c0 <__SP_usr_+0x2e1c40>
     aa4:	a6daa067 	ldrbge	sl, [sl], r7, rrx
     aa8:	4fbd6c2f 	svcmi	0x00bd6c2f
     aac:	01040200 	mrseq	r0, R12_usr
     ab0:	52068206 	andpl	r8, r6, #1610612736	; 0x60000000
     ab4:	01040200 	mrseq	r0, R12_usr
     ab8:	02006606 	andeq	r6, r0, #6291456	; 0x600000
     abc:	00660304 	rsbeq	r0, r6, r4, lsl #6
     ac0:	66040402 	strvs	r0, [r4], -r2, lsl #8
     ac4:	4a090306 	bmi	2416e4 <__SP_usr_+0x1e1c64>
     ac8:	2f280867 	svccs	0x00280867
     acc:	01000602 	tsteq	r0, r2, lsl #12
     ad0:	0001cc01 	andeq	ip, r1, r1, lsl #24
     ad4:	0e000200 	cdpeq	2, 0, cr0, cr0, cr0, {0}
     ad8:	02000001 	andeq	r0, r0, #1
     adc:	0d0efb01 	vstreq	d15, [lr, #-4]
     ae0:	01010100 	mrseq	r0, (UNDEF: 17)
     ae4:	00000001 	andeq	r0, r0, r1
     ae8:	01000001 	tsteq	r0, r1
     aec:	2e2f2e2e 	cdpcs	14, 2, cr2, cr15, cr14, {1}
     af0:	2e2e2f2e 	cdpcs	15, 2, cr2, cr14, cr14, {1}
     af4:	2f2e2e2f 	svccs	0x002e2e2f
     af8:	2e2f2e2e 	cdpcs	14, 2, cr2, cr15, cr14, {1}
     afc:	736f2f2e 	cmnvc	pc, #46, 30	; 0xb8
     b00:	2f2e2e00 	svccs	0x002e2e00
     b04:	2e2f2e2e 	cdpcs	14, 2, cr2, cr15, cr14, {1}
     b08:	2e2e2f2e 	cdpcs	15, 2, cr2, cr14, cr14, {1}
     b0c:	2f2e2e2f 	svccs	0x002e2e2f
     b10:	6d2f2e2e 	stcvs	14, cr2, [pc, #-184]!	; a60 <unused+0xa5c>
     b14:	69686361 	stmdbvs	r8!, {r0, r5, r6, r8, r9, sp, lr}^
     b18:	2f73656e 	svccs	0x0073656e
     b1c:	74726f63 	ldrbtvc	r6, [r2], #-3939	; 0xf63
     b20:	612d7865 			; <UNDEFINED> instruction: 0x612d7865
     b24:	696c6200 	stmdbvs	ip!, {r9, sp, lr}^
     b28:	00006b6e 	andeq	r6, r0, lr, ror #22
     b2c:	5f6c7074 	svcpl	0x006c7074
     b30:	725f736f 	subsvc	r7, pc, #-1140850687	; 0xbc000001
     b34:	756f7365 	strbvc	r7, [pc, #-869]!	; 7d7 <unused+0x7d3>
     b38:	5f656372 	svcpl	0x00656372
     b3c:	6e72656b 	cdpvs	5, 7, cr6, cr2, cr11, {3}
     b40:	632e6c65 			; <UNDEFINED> instruction: 0x632e6c65
     b44:	00000100 	andeq	r0, r0, r0, lsl #2
     b48:	5f6c7074 	svcpl	0x006c7074
     b4c:	735f736f 	cmpvc	pc, #-1140850687	; 0xbc000001
     b50:	745f6474 	ldrbvc	r6, [pc], #-1140	; b58 <unused+0xb54>
     b54:	73657079 	cmnvc	r5, #121	; 0x79
     b58:	0200682e 	andeq	r6, r0, #3014656	; 0x2e0000
     b5c:	70740000 	rsbsvc	r0, r4, r0
     b60:	70615f6c 	rsbvc	r5, r1, ip, ror #30
     b64:	75635f70 	strbvc	r5, [r3, #-3952]!	; 0xf70
     b68:	6d6f7473 	cfstrdvs	mvd7, [pc, #-460]!	; 9a4 <unused+0x9a0>
     b6c:	7079745f 	rsbsvc	r7, r9, pc, asr r4
     b70:	682e7365 	stmdavs	lr!, {r0, r2, r5, r6, r8, r9, ip, sp, lr}
     b74:	00000300 	andeq	r0, r0, r0, lsl #6
     b78:	5f6c7074 	svcpl	0x006c7074
     b7c:	6863616d 	stmdavs	r3!, {r0, r2, r3, r5, r6, r8, sp, lr}^
     b80:	5f656e69 	svcpl	0x00656e69
     b84:	2e6d7261 	cdpcs	2, 6, cr7, cr13, cr1, {3}
     b88:	00020068 	andeq	r0, r2, r8, rrx
     b8c:	6c707400 	cfldrdvs	mvd7, [r0], #-0
     b90:	63616d5f 	cmnvs	r1, #6080	; 0x17c0
     b94:	656e6968 	strbvs	r6, [lr, #-2408]!	; 0x968
     b98:	0200682e 	andeq	r6, r0, #3014656	; 0x2e0000
     b9c:	70740000 	rsbsvc	r0, r4, r0
     ba0:	736f5f6c 	cmnvc	pc, #108, 30	; 0x1b0
     ba4:	746e695f 	strbtvc	r6, [lr], #-2399	; 0x95f
     ba8:	616e7265 	cmnvs	lr, r5, ror #4
     bac:	79745f6c 	ldmdbvc	r4!, {r2, r3, r5, r6, r8, r9, sl, fp, ip, lr}^
     bb0:	2e736570 	mrccs	5, 3, r6, cr3, cr0, {3}
     bb4:	00010068 	andeq	r0, r1, r8, rrx
     bb8:	6c707400 	cfldrdvs	mvd7, [r0], #-0
     bbc:	5f736f5f 	svcpl	0x00736f5f
     bc0:	6f736572 	svcvs	0x00736572
     bc4:	65637275 	strbvs	r7, [r3, #-629]!	; 0x275
     bc8:	72656b5f 	rsbvc	r6, r5, #97280	; 0x17c00
     bcc:	2e6c656e 	cdpcs	5, 6, cr6, cr12, cr14, {3}
     bd0:	00010068 	andeq	r0, r1, r8, rrx
     bd4:	6c707400 	cfldrdvs	mvd7, [r0], #-0
     bd8:	5f736f5f 	svcpl	0x00736f5f
     bdc:	6e72656b 	cdpvs	5, 7, cr6, cr2, cr11, {3}
     be0:	682e6c65 	stmdavs	lr!, {r0, r2, r5, r6, sl, fp, sp, lr}
     be4:	00000100 	andeq	r0, r0, r0, lsl #2
     be8:	02050000 	andeq	r0, r5, #0
     bec:	0000b5b8 			; <UNDEFINED> instruction: 0x0000b5b8
     bf0:	0100eb03 	tsteq	r0, r3, lsl #22
     bf4:	685081a1 	ldmdavs	r0, {r0, r5, r7, r8, pc}^
     bf8:	01040200 	mrseq	r0, R12_usr
     bfc:	040200be 	streq	r0, [r2], #-190	; 0xbe
     c00:	02006801 	andeq	r6, r0, #65536	; 0x10000
     c04:	009f0104 	addseq	r0, pc, r4, lsl #2
     c08:	03010402 	movweq	r0, #5122	; 0x1402
     c0c:	0200660b 	andeq	r6, r0, #11534336	; 0xb00000
     c10:	684b0104 	stmdavs	fp, {r2, r8}^
     c14:	a3660b03 	cmnge	r6, #3072	; 0xc00
     c18:	004a0903 	subeq	r0, sl, r3, lsl #18
     c1c:	06010402 	streq	r0, [r1], -r2, lsl #8
     c20:	004f0682 	subeq	r0, pc, r2, lsl #13
     c24:	06010402 	streq	r0, [r1], -r2, lsl #8
     c28:	04020066 	streq	r0, [r2], #-102	; 0x66
     c2c:	4f066602 	svcmi	0x00066602
     c30:	9e090368 	cdpls	3, 0, cr0, cr9, cr8, {3}
     c34:	01040200 	mrseq	r0, R12_usr
     c38:	02006606 	andeq	r6, r0, #6291456	; 0x600000
     c3c:	20080304 	andcs	r0, r8, r4, lsl #6
     c40:	04040200 	streq	r0, [r4], #-512	; 0x200
     c44:	4c063c08 	stcmi	12, cr3, [r6], {8}
     c48:	a0bbbe68 	adcsge	fp, fp, r8, ror #28
     c4c:	8a4983c0 	bhi	1261b54 <__SP_usr_+0x12020d4>
     c50:	49675708 	stmdbmi	r7!, {r3, r8, r9, sl, ip, lr}^
     c54:	2f2e1003 	svccs	0x002e1003
     c58:	a1660b03 	cmnge	r6, r3, lsl #22
     c5c:	04020051 	streq	r0, [r2], #-81	; 0x51
     c60:	06820601 	streq	r0, [r2], r1, lsl #12
     c64:	0402004f 	streq	r0, [r2], #-79	; 0x4f
     c68:	00660601 	rsbeq	r0, r6, r1, lsl #12
     c6c:	66020402 	strvs	r0, [r2], -r2, lsl #8
     c70:	a6684f06 	strbtge	r4, [r8], -r6, lsl #30
     c74:	01040200 	mrseq	r0, R12_usr
     c78:	02006606 	andeq	r6, r0, #6291456	; 0x600000
     c7c:	3c080204 	sfmcc	f0, 4, [r8], {4}
     c80:	4a090306 	bmi	2418a0 <__SP_usr_+0x1e1e20>
     c84:	01040200 	mrseq	r0, R12_usr
     c88:	02006606 	andeq	r6, r0, #6291456	; 0x600000
     c8c:	06d60204 	ldrbeq	r0, [r6], r4, lsl #4
     c90:	0903684c 	stmdbeq	r3, {r2, r3, r6, fp, sp, lr}
     c94:	a068bbba 	strhtge	fp, [r8], #-186	; 0xffffff46
     c98:	2f2e0f03 	svccs	0x002e0f03
     c9c:	01000602 	tsteq	r0, r2, lsl #12
     ca0:	00023e01 	andeq	r3, r2, r1, lsl #28
     ca4:	16000200 	strne	r0, [r0], -r0, lsl #4
     ca8:	02000001 	andeq	r0, r0, #1
     cac:	0d0efb01 	vstreq	d15, [lr, #-4]
     cb0:	01010100 	mrseq	r0, (UNDEF: 17)
     cb4:	00000001 	andeq	r0, r0, r1
     cb8:	01000001 	tsteq	r0, r1
     cbc:	2e2f2e2e 	cdpcs	14, 2, cr2, cr15, cr14, {1}
     cc0:	2e2e2f2e 	cdpcs	15, 2, cr2, cr14, cr14, {1}
     cc4:	2f2e2e2f 	svccs	0x002e2e2f
     cc8:	2e2f2e2e 	cdpcs	14, 2, cr2, cr15, cr14, {1}
     ccc:	736f2f2e 	cmnvc	pc, #46, 30	; 0xb8
     cd0:	2f2e2e00 	svccs	0x002e2e00
     cd4:	2e2f2e2e 	cdpcs	14, 2, cr2, cr15, cr14, {1}
     cd8:	2e2e2f2e 	cdpcs	15, 2, cr2, cr14, cr14, {1}
     cdc:	2f2e2e2f 	svccs	0x002e2e2f
     ce0:	6d2f2e2e 	stcvs	14, cr2, [pc, #-184]!	; c30 <unused+0xc2c>
     ce4:	69686361 	stmdbvs	r8!, {r0, r5, r6, r8, r9, sp, lr}^
     ce8:	2f73656e 	svccs	0x0073656e
     cec:	74726f63 	ldrbtvc	r6, [r2], #-3939	; 0xf63
     cf0:	612d7865 			; <UNDEFINED> instruction: 0x612d7865
     cf4:	696c6200 	stmdbvs	ip!, {r9, sp, lr}^
     cf8:	00006b6e 	andeq	r6, r0, lr, ror #22
     cfc:	5f6c7074 	svcpl	0x006c7074
     d00:	615f736f 	cmpvs	pc, pc, ror #6
     d04:	6d72616c 	ldfvse	f6, [r2, #-432]!	; 0xfffffe50
     d08:	72656b5f 	rsbvc	r6, r5, #97280	; 0x17c00
     d0c:	2e6c656e 	cdpcs	5, 6, cr6, cr12, cr14, {3}
     d10:	00010063 	andeq	r0, r1, r3, rrx
     d14:	6c707400 	cfldrdvs	mvd7, [r0], #-0
     d18:	5f736f5f 	svcpl	0x00736f5f
     d1c:	5f647473 	svcpl	0x00647473
     d20:	65707974 	ldrbvs	r7, [r0, #-2420]!	; 0x974
     d24:	00682e73 	rsbeq	r2, r8, r3, ror lr
     d28:	74000002 	strvc	r0, [r0], #-2
     d2c:	615f6c70 	cmpvs	pc, r0, ror ip	; <UNPREDICTABLE>
     d30:	635f7070 	cmpvs	pc, #112	; 0x70
     d34:	6f747375 	svcvs	0x00747375
     d38:	79745f6d 	ldmdbvc	r4!, {r0, r2, r3, r5, r6, r8, r9, sl, fp, ip, lr}^
     d3c:	2e736570 	mrccs	5, 3, r6, cr3, cr0, {3}
     d40:	00030068 	andeq	r0, r3, r8, rrx
     d44:	6c707400 	cfldrdvs	mvd7, [r0], #-0
     d48:	5f736f5f 	svcpl	0x00736f5f
     d4c:	74737563 	ldrbtvc	r7, [r3], #-1379	; 0x563
     d50:	745f6d6f 	ldrbvc	r6, [pc], #-3439	; d58 <unused+0xd54>
     d54:	73657079 	cmnvc	r5, #121	; 0x79
     d58:	0100682e 	tsteq	r0, lr, lsr #16
     d5c:	70740000 	rsbsvc	r0, r4, r0
     d60:	736f5f6c 	cmnvc	pc, #108, 30	; 0x1b0
     d64:	746e695f 	strbtvc	r6, [lr], #-2399	; 0x95f
     d68:	616e7265 	cmnvs	lr, r5, ror #4
     d6c:	79745f6c 	ldmdbvc	r4!, {r2, r3, r5, r6, r8, r9, sl, fp, ip, lr}^
     d70:	2e736570 	mrccs	5, 3, r6, cr3, cr0, {3}
     d74:	00010068 	andeq	r0, r1, r8, rrx
     d78:	6c707400 	cfldrdvs	mvd7, [r0], #-0
     d7c:	5f736f5f 	svcpl	0x00736f5f
     d80:	656d6974 	strbvs	r6, [sp, #-2420]!	; 0x974
     d84:	5f6a626f 	svcpl	0x006a626f
     d88:	6e72656b 	cdpvs	5, 7, cr6, cr2, cr11, {3}
     d8c:	682e6c65 	stmdavs	lr!, {r0, r2, r5, r6, sl, fp, sp, lr}
     d90:	00000100 	andeq	r0, r0, r0, lsl #2
     d94:	5f6c7074 	svcpl	0x006c7074
     d98:	615f736f 	cmpvs	pc, pc, ror #6
     d9c:	6f697463 	svcvs	0x00697463
     da0:	00682e6e 	rsbeq	r2, r8, lr, ror #28
     da4:	74000001 	strvc	r0, [r0], #-1
     da8:	6f5f6c70 	svcvs	0x005f6c70
     dac:	6c615f73 	stclvs	15, cr5, [r1], #-460	; 0xfffffe34
     db0:	5f6d7261 	svcpl	0x006d7261
     db4:	6e72656b 	cdpvs	5, 7, cr6, cr2, cr11, {3}
     db8:	682e6c65 	stmdavs	lr!, {r0, r2, r5, r6, sl, fp, sp, lr}
     dbc:	00000100 	andeq	r0, r0, r0, lsl #2
     dc0:	02050000 	andeq	r0, r5, #0
     dc4:	0000b95c 	andeq	fp, r0, ip, asr r9
     dc8:	0100c203 	tsteq	r0, r3, lsl #4
     dcc:	836b698a 	cmnhi	fp, #2260992	; 0x228000
     dd0:	0903bb50 	stmdbeq	r3, {r4, r6, r8, r9, fp, ip, sp, pc}
     dd4:	0402004a 	streq	r0, [r2], #-74	; 0x4a
     dd8:	06820601 	streq	r0, [r2], r1, lsl #12
     ddc:	04020050 	streq	r0, [r2], #-80	; 0x50
     de0:	00660601 	rsbeq	r0, r6, r1, lsl #12
     de4:	66020402 	strvs	r0, [r2], -r2, lsl #8
     de8:	4a090306 	bmi	241a08 <__SP_usr_+0x1e1f88>
     dec:	bbbba067 	bllt	feee8f90 <__SP_usr_+0xfee89510>
     df0:	bb6b2fc2 	bllt	1accd00 <__SP_usr_+0x1a6d280>
     df4:	004a0903 	subeq	r0, sl, r3, lsl #18
     df8:	06010402 	streq	r0, [r1], -r2, lsl #8
     dfc:	00500682 	subseq	r0, r0, r2, lsl #13
     e00:	06010402 	streq	r0, [r1], -r2, lsl #8
     e04:	04020066 	streq	r0, [r2], #-102	; 0x66
     e08:	03066602 	movweq	r6, #26114	; 0x6602
     e0c:	a1674a09 	cmnge	r7, r9, lsl #20
     e10:	4c656884 	stclmi	8, cr6, [r5], #-528	; 0xfffffdf0
     e14:	03bed884 			; <UNDEFINED> instruction: 0x03bed884
     e18:	6c2f4a09 	stcvs	10, cr4, [pc], #-36	; dfc <unused+0xdf8>
     e1c:	4a0b03d7 	bmi	2c1d80 <__SP_usr_+0x262300>
     e20:	01040200 	mrseq	r0, R12_usr
     e24:	51068206 	tstpl	r6, r6, lsl #4
     e28:	01040200 	mrseq	r0, R12_usr
     e2c:	02006606 	andeq	r6, r0, #6291456	; 0x600000
     e30:	06660204 	strbteq	r0, [r6], -r4, lsl #4
     e34:	0402004f 	streq	r0, [r2], #-79	; 0x4f
     e38:	00660601 	rsbeq	r0, r6, r1, lsl #12
     e3c:	08020402 	stmdaeq	r2, {r1, sl}
     e40:	004b063c 	subeq	r0, fp, ip, lsr r6
     e44:	06010402 	streq	r0, [r1], -r2, lsl #8
     e48:	04020066 	streq	r0, [r2], #-102	; 0x66
     e4c:	02006602 	andeq	r6, r0, #2097152	; 0x200000
     e50:	3c080404 	cfstrscc	mvf0, [r8], {4}
     e54:	05040200 	streq	r0, [r4, #-512]	; 0x200
     e58:	4d063c08 	stcmi	12, cr3, [r6, #-32]	; 0xffffffe0
     e5c:	8484a067 	strhi	sl, [r4], #103	; 0x67
     e60:	67bca09f 			; <UNDEFINED> instruction: 0x67bca09f
     e64:	036c6767 	cmneq	ip, #27000832	; 0x19c0000
     e68:	032f4a09 			; <UNDEFINED> instruction: 0x032f4a09
     e6c:	03d7660b 	bicseq	r6, r7, #11534336	; 0xb00000
     e70:	02004a09 	andeq	r4, r0, #36864	; 0x9000
     e74:	82060104 	andhi	r0, r6, #4, 2
     e78:	02005106 	andeq	r5, r0, #-2147483647	; 0x80000001
     e7c:	66060104 	strvs	r0, [r6], -r4, lsl #2
     e80:	02040200 	andeq	r0, r4, #0, 4
     e84:	004f0666 	subeq	r0, pc, r6, ror #12
     e88:	06010402 	streq	r0, [r1], -r2, lsl #8
     e8c:	04020066 	streq	r0, [r2], #-102	; 0x66
     e90:	063c0802 	ldrteq	r0, [ip], -r2, lsl #16
     e94:	0402004b 	streq	r0, [r2], #-75	; 0x4b
     e98:	00660601 	rsbeq	r0, r6, r1, lsl #12
     e9c:	66020402 	strvs	r0, [r2], -r2, lsl #8
     ea0:	04040200 	streq	r0, [r4], #-512	; 0x200
     ea4:	02003c08 	andeq	r3, r0, #8, 24	; 0x800
     ea8:	3c080504 	cfstr32cc	mvfx0, [r8], {4}
     eac:	a0674d06 	rsbge	r4, r7, r6, lsl #26
     eb0:	67676785 	strbvs	r6, [r7, -r5, lsl #15]!
     eb4:	4a09036c 	bmi	241c6c <__SP_usr_+0x1e21ec>
     eb8:	6609032f 	strvs	r0, [r9], -pc, lsr #6
     ebc:	4a09039f 	bmi	241d40 <__SP_usr_+0x1e22c0>
     ec0:	01040200 	mrseq	r0, R12_usr
     ec4:	4f068206 	svcmi	0x00068206
     ec8:	01040200 	mrseq	r0, R12_usr
     ecc:	02006606 	andeq	r6, r0, #6291456	; 0x600000
     ed0:	06660204 	strbteq	r0, [r6], -r4, lsl #4
     ed4:	84a06750 	strthi	r6, [r0], #1872	; 0x750
     ed8:	0903864c 	stmdbeq	r3, {r2, r3, r6, r9, sl, pc}
     edc:	06022f4a 	streq	r2, [r2], -sl, asr #30
     ee0:	a2010100 	andge	r0, r1, #0, 2
     ee4:	02000001 	andeq	r0, r0, #1
     ee8:	0000c900 	andeq	ip, r0, r0, lsl #18
     eec:	fb010200 	blx	416f6 <vectors_end+0x33076>
     ef0:	01000d0e 	tsteq	r0, lr, lsl #26
     ef4:	00010101 	andeq	r0, r1, r1, lsl #2
     ef8:	00010000 	andeq	r0, r1, r0
     efc:	2e2e0100 	sufcse	f0, f6, f0
     f00:	2f2e2e2f 	svccs	0x002e2e2f
     f04:	2e2f2e2e 	cdpcs	14, 2, cr2, cr15, cr14, {1}
     f08:	2e2e2f2e 	cdpcs	15, 2, cr2, cr14, cr14, {1}
     f0c:	2f2e2e2f 	svccs	0x002e2e2f
     f10:	6863616d 	stmdavs	r3!, {r0, r2, r3, r5, r6, r8, sp, lr}^
     f14:	73656e69 	cmnvc	r5, #1680	; 0x690
     f18:	726f632f 	rsbvc	r6, pc, #-1140850688	; 0xbc000000
     f1c:	2d786574 	cfldr64cs	mvdx6, [r8, #-464]!	; 0xfffffe30
     f20:	6c620061 	stclvs	0, cr0, [r2], #-388	; 0xfffffe7c
     f24:	006b6e69 	rsbeq	r6, fp, r9, ror #28
     f28:	2e2f2e2e 	cdpcs	14, 2, cr2, cr15, cr14, {1}
     f2c:	2e2e2f2e 	cdpcs	15, 2, cr2, cr14, cr14, {1}
     f30:	2f2e2e2f 	svccs	0x002e2e2f
     f34:	2e2f2e2e 	cdpcs	14, 2, cr2, cr15, cr14, {1}
     f38:	736f2f2e 	cmnvc	pc, #46, 30	; 0xb8
     f3c:	6c620000 	stclvs	0, cr0, [r2], #-0
     f40:	2e6b6e69 	cdpcs	14, 6, cr6, cr11, cr9, {3}
     f44:	00000063 	andeq	r0, r0, r3, rrx
     f48:	6c707400 	cfldrdvs	mvd7, [r0], #-0
     f4c:	5f736f5f 	svcpl	0x00736f5f
     f50:	5f647473 	svcpl	0x00647473
     f54:	65707974 	ldrbvs	r7, [r0, #-2420]!	; 0x974
     f58:	00682e73 	rsbeq	r2, r8, r3, ror lr
     f5c:	74000001 	strvc	r0, [r0], #-1
     f60:	615f6c70 	cmpvs	pc, r0, ror ip	; <UNPREDICTABLE>
     f64:	635f7070 	cmpvs	pc, #112	; 0x70
     f68:	6f747375 	svcvs	0x00747375
     f6c:	79745f6d 	ldmdbvc	r4!, {r0, r2, r3, r5, r6, r8, r9, sl, fp, ip, lr}^
     f70:	2e736570 	mrccs	5, 3, r6, cr3, cr0, {3}
     f74:	00020068 	andeq	r0, r2, r8, rrx
     f78:	6c707400 	cfldrdvs	mvd7, [r0], #-0
     f7c:	5f736f5f 	svcpl	0x00736f5f
     f80:	65746e69 	ldrbvs	r6, [r4, #-3689]!	; 0xe69
     f84:	6c616e72 	stclvs	14, cr6, [r1], #-456	; 0xfffffe38
     f88:	7079745f 	rsbsvc	r7, r9, pc, asr r4
     f8c:	682e7365 	stmdavs	lr!, {r0, r2, r5, r6, r8, r9, ip, sp, lr}
     f90:	00000300 	andeq	r0, r0, r0, lsl #6
     f94:	5f6c7074 	svcpl	0x006c7074
     f98:	745f736f 	ldrbvc	r7, [pc], #-879	; fa0 <unused+0xf9c>
     f9c:	73657079 	cmnvc	r5, #121	; 0x79
     fa0:	0300682e 	movweq	r6, #2094	; 0x82e
     fa4:	70740000 	rsbsvc	r0, r4, r0
     fa8:	736f5f6c 	cmnvc	pc, #108, 30	; 0x1b0
     fac:	2e736f5f 	mrccs	15, 3, r6, cr3, cr15, {2}
     fb0:	00030068 	andeq	r0, r3, r8, rrx
     fb4:	05000000 	streq	r0, [r0, #-0]
     fb8:	0083b402 	addeq	fp, r3, r2, lsl #8
     fbc:	012a0300 			; <UNDEFINED> instruction: 0x012a0300
     fc0:	8367684b 	cmnhi	r7, #4915200	; 0x4b0000
     fc4:	83678367 	cmnhi	r7, #-1677721599	; 0x9c000001
     fc8:	84678367 	strbthi	r8, [r7], #-871	; 0x367
     fcc:	01040200 	mrseq	r0, R12_usr
     fd0:	684b3067 	stmdavs	fp, {r0, r1, r2, r5, r6, ip, sp}^
     fd4:	83678367 	cmnhi	r7, #-1677721599	; 0x9c000001
     fd8:	83678367 	cmnhi	r7, #-1677721599	; 0x9c000001
     fdc:	02008467 	andeq	r8, r0, #1728053248	; 0x67000000
     fe0:	30670104 	rsbcc	r0, r7, r4, lsl #2
     fe4:	8367684b 	cmnhi	r7, #4915200	; 0x4b0000
     fe8:	83678367 	cmnhi	r7, #-1677721599	; 0x9c000001
     fec:	84678367 	strbthi	r8, [r7], #-871	; 0x367
     ff0:	01040200 	mrseq	r0, R12_usr
     ff4:	684b3067 	stmdavs	fp, {r0, r1, r2, r5, r6, ip, sp}^
     ff8:	83678367 	cmnhi	r7, #-1677721599	; 0x9c000001
     ffc:	83678367 	cmnhi	r7, #-1677721599	; 0x9c000001
    1000:	02008467 	andeq	r8, r0, #1728053248	; 0x67000000
    1004:	30670104 	rsbcc	r0, r7, r4, lsl #2
    1008:	8367684b 	cmnhi	r7, #4915200	; 0x4b0000
    100c:	83678367 	cmnhi	r7, #-1677721599	; 0x9c000001
    1010:	84678367 	strbthi	r8, [r7], #-871	; 0x367
    1014:	01040200 	mrseq	r0, R12_usr
    1018:	844c3267 	strbhi	r3, [ip], #-615	; 0x267
    101c:	844c6983 	strbhi	r6, [ip], #-2435	; 0x983
    1020:	67684b69 	strbvs	r4, [r8, -r9, ror #22]!
    1024:	67836783 	strvs	r6, [r3, r3, lsl #15]
    1028:	67836783 	strvs	r6, [r3, r3, lsl #15]
    102c:	04020084 	streq	r0, [r2], #-132	; 0x84
    1030:	02026701 	andeq	r6, r2, #262144	; 0x40000
    1034:	00010100 	andeq	r0, r1, r0, lsl #2
    1038:	c7e80205 	strbgt	r0, [r8, r5, lsl #4]!
    103c:	a5030000 	strge	r0, [r3, #-0]
    1040:	30690101 	rsbcc	r0, r9, r1, lsl #2
    1044:	67838468 	strvs	r8, [r3, r8, ror #8]
    1048:	67838467 	strvs	r8, [r3, r7, ror #8]
    104c:	84838467 	strhi	r8, [r3], #1127	; 0x467
    1050:	83838383 	orrhi	r8, r3, #201326594	; 0xc000002
    1054:	67308483 	ldrvs	r8, [r0, -r3, lsl #9]!
    1058:	67836783 	strvs	r6, [r3, r3, lsl #15]
    105c:	67846783 	strvs	r6, [r4, r3, lsl #15]
    1060:	9f846784 	svcls	0x00846784
    1064:	692fbb84 	stmdbvs	pc!, {r2, r7, r8, r9, fp, ip, sp, pc}	; <UNPREDICTABLE>
    1068:	022f684b 	eoreq	r6, pc, #4915200	; 0x4b0000
    106c:	01010002 	tsteq	r1, r2
    1070:	74020500 	strvc	r0, [r2], #-1280	; 0x500
    1074:	030000bf 	movweq	r0, #191	; 0xbf
    1078:	9f0101e9 	svcls	0x000101e9
    107c:	6a4b6769 	bvs	12dae28 <__SP_usr_+0x127b3a8>
    1080:	6a4b674d 	bvs	12dadbc <__SP_usr_+0x127b33c>
    1084:	01000402 	tsteq	r0, r2, lsl #8
    1088:	0001c701 	andeq	ip, r1, r1, lsl #14
    108c:	a7000200 	strge	r0, [r0, -r0, lsl #4]
    1090:	02000001 	andeq	r0, r0, #1
    1094:	0d0efb01 	vstreq	d15, [lr, #-4]
    1098:	01010100 	mrseq	r0, (UNDEF: 17)
    109c:	00000001 	andeq	r0, r0, r1
    10a0:	01000001 	tsteq	r0, r1
    10a4:	6e696c62 	cdpvs	12, 6, cr6, cr9, cr2, {3}
    10a8:	2e2e006b 	cdpcs	0, 2, cr0, cr14, cr11, {3}
    10ac:	2f2e2e2f 	svccs	0x002e2e2f
    10b0:	2e2f2e2e 	cdpcs	14, 2, cr2, cr15, cr14, {1}
    10b4:	2e2e2f2e 	cdpcs	15, 2, cr2, cr14, cr14, {1}
    10b8:	2f2e2e2f 	svccs	0x002e2e2f
    10bc:	6863616d 	stmdavs	r3!, {r0, r2, r3, r5, r6, r8, sp, lr}^
    10c0:	73656e69 	cmnvc	r5, #1680	; 0x690
    10c4:	726f632f 	rsbvc	r6, pc, #-1140850688	; 0xbc000000
    10c8:	2d786574 	cfldr64cs	mvdx6, [r8, #-464]!	; 0xfffffe30
    10cc:	2e2e0061 	cdpcs	0, 2, cr0, cr14, cr1, {3}
    10d0:	2f2e2e2f 	svccs	0x002e2e2f
    10d4:	2e2f2e2e 	cdpcs	14, 2, cr2, cr15, cr14, {1}
    10d8:	2e2e2f2e 	cdpcs	15, 2, cr2, cr14, cr14, {1}
    10dc:	2f2e2e2f 	svccs	0x002e2e2f
    10e0:	0000736f 	andeq	r7, r0, pc, ror #6
    10e4:	5f6c7074 	svcpl	0x006c7074
    10e8:	5f707061 	svcpl	0x00707061
    10ec:	666e6f63 	strbtvs	r6, [lr], -r3, ror #30
    10f0:	632e6769 			; <UNDEFINED> instruction: 0x632e6769
    10f4:	00000100 	andeq	r0, r0, r0, lsl #2
    10f8:	5f6c7074 	svcpl	0x006c7074
    10fc:	735f736f 	cmpvc	pc, #-1140850687	; 0xbc000001
    1100:	745f6474 	ldrbvc	r6, [pc], #-1140	; 1108 <unused+0x1104>
    1104:	73657079 	cmnvc	r5, #121	; 0x79
    1108:	0200682e 	andeq	r6, r0, #3014656	; 0x2e0000
    110c:	70740000 	rsbsvc	r0, r4, r0
    1110:	70615f6c 	rsbvc	r5, r1, ip, ror #30
    1114:	75635f70 	strbvc	r5, [r3, #-3952]!	; 0xf70
    1118:	6d6f7473 	cfstrdvs	mvd7, [pc, #-460]!	; f54 <unused+0xf50>
    111c:	7079745f 	rsbsvc	r7, r9, pc, asr r4
    1120:	682e7365 	stmdavs	lr!, {r0, r2, r5, r6, r8, r9, ip, sp, lr}
    1124:	00000100 	andeq	r0, r0, r0, lsl #2
    1128:	5f6c7074 	svcpl	0x006c7074
    112c:	635f736f 	cmpvs	pc, #-1140850687	; 0xbc000001
    1130:	6f747375 	svcvs	0x00747375
    1134:	79745f6d 	ldmdbvc	r4!, {r0, r2, r3, r5, r6, r8, r9, sl, fp, ip, lr}^
    1138:	2e736570 	mrccs	5, 3, r6, cr3, cr0, {3}
    113c:	00030068 	andeq	r0, r3, r8, rrx
    1140:	6c707400 	cfldrdvs	mvd7, [r0], #-0
    1144:	63616d5f 	cmnvs	r1, #6080	; 0x17c0
    1148:	656e6968 	strbvs	r6, [lr, #-2408]!	; 0x968
    114c:	6d72615f 	ldfvse	f6, [r2, #-380]!	; 0xfffffe84
    1150:	0200682e 	andeq	r6, r0, #3014656	; 0x2e0000
    1154:	70740000 	rsbsvc	r0, r4, r0
    1158:	616d5f6c 	cmnvs	sp, ip, ror #30
    115c:	6e696863 	cdpvs	8, 6, cr6, cr9, cr3, {3}
    1160:	00682e65 	rsbeq	r2, r8, r5, ror #28
    1164:	74000002 	strvc	r0, [r0], #-2
    1168:	6f5f6c70 	svcvs	0x005f6c70
    116c:	6e695f73 	mcrvs	15, 3, r5, cr9, cr3, {3}
    1170:	6e726574 	mrcvs	5, 3, r6, cr2, cr4, {3}
    1174:	745f6c61 	ldrbvc	r6, [pc], #-3169	; 117c <unused+0x1178>
    1178:	73657079 	cmnvc	r5, #121	; 0x79
    117c:	0300682e 	movweq	r6, #2094	; 0x82e
    1180:	70740000 	rsbsvc	r0, r4, r0
    1184:	736f5f6c 	cmnvc	pc, #108, 30	; 0x1b0
    1188:	7079745f 	rsbsvc	r7, r9, pc, asr r4
    118c:	682e7365 	stmdavs	lr!, {r0, r2, r5, r6, r8, r9, ip, sp, lr}
    1190:	00000300 	andeq	r0, r0, r0, lsl #6
    1194:	5f6c7074 	svcpl	0x006c7074
    1198:	6b5f736f 	blvs	17ddf5c <__SP_usr_+0x177e4dc>
    119c:	656e7265 	strbvs	r7, [lr, #-613]!	; 0x265
    11a0:	00682e6c 	rsbeq	r2, r8, ip, ror #28
    11a4:	74000003 	strvc	r0, [r0], #-3
    11a8:	6f5f6c70 	svcvs	0x005f6c70
    11ac:	65725f73 	ldrbvs	r5, [r2, #-3955]!	; 0xf73
    11b0:	72756f73 	rsbsvc	r6, r5, #460	; 0x1cc
    11b4:	6b5f6563 	blvs	17da748 <__SP_usr_+0x177acc8>
    11b8:	656e7265 	strbvs	r7, [lr, #-613]!	; 0x265
    11bc:	00682e6c 	rsbeq	r2, r8, ip, ror #28
    11c0:	74000003 	strvc	r0, [r0], #-3
    11c4:	6f5f6c70 	svcvs	0x005f6c70
    11c8:	6e695f73 	mcrvs	15, 3, r5, cr9, cr3, {3}
    11cc:	72726574 	rsbsvc	r6, r2, #116, 10	; 0x1d000000
    11d0:	5f747075 	svcpl	0x00747075
    11d4:	6e72656b 	cdpvs	5, 7, cr6, cr2, cr11, {3}
    11d8:	682e6c65 	stmdavs	lr!, {r0, r2, r5, r6, sl, fp, sp, lr}
    11dc:	00000300 	andeq	r0, r0, r0, lsl #6
    11e0:	5f6c7074 	svcpl	0x006c7074
    11e4:	745f736f 	ldrbvc	r7, [pc], #-879	; 11ec <unused+0x11e8>
    11e8:	6f656d69 	svcvs	0x00656d69
    11ec:	6b5f6a62 	blvs	17dbb7c <__SP_usr_+0x177c0fc>
    11f0:	656e7265 	strbvs	r7, [lr, #-613]!	; 0x265
    11f4:	00682e6c 	rsbeq	r2, r8, ip, ror #28
    11f8:	74000003 	strvc	r0, [r0], #-3
    11fc:	6f5f6c70 	svcvs	0x005f6c70
    1200:	63615f73 	cmnvs	r1, #460	; 0x1cc
    1204:	6e6f6974 	mcrvs	9, 3, r6, cr15, cr4, {3}
    1208:	0300682e 	movweq	r6, #2094	; 0x82e
    120c:	70740000 	rsbsvc	r0, r4, r0
    1210:	736f5f6c 	cmnvc	pc, #108, 30	; 0x1b0
    1214:	616c615f 	cmnvs	ip, pc, asr r1
    1218:	6b5f6d72 	blvs	17dc7e8 <__SP_usr_+0x177cd68>
    121c:	656e7265 	strbvs	r7, [lr, #-613]!	; 0x265
    1220:	00682e6c 	rsbeq	r2, r8, ip, ror #28
    1224:	74000003 	strvc	r0, [r0], #-3
    1228:	6f5f6c70 	svcvs	0x005f6c70
    122c:	6c615f73 	stclvs	15, cr5, [r1], #-460	; 0xfffffe34
    1230:	2e6d7261 	cdpcs	2, 6, cr7, cr13, cr1, {3}
    1234:	00030068 	andeq	r0, r3, r8, rrx
    1238:	05000000 	streq	r0, [r0, #-0]
    123c:	00bfe402 	adcseq	lr, pc, r2, lsl #8
    1240:	01870300 	orreq	r0, r7, r0, lsl #6
    1244:	a0694b01 	rsbge	r4, r9, r1, lsl #22
    1248:	01df0331 	bicseq	r0, pc, r1, lsr r3	; <UNPREDICTABLE>
    124c:	022f4c2e 	eoreq	r4, pc, #11776	; 0x2e00
    1250:	01010002 	tsteq	r1, r2
    1254:	00000064 	andeq	r0, r0, r4, rrx
    1258:	005e0002 	subseq	r0, lr, r2
    125c:	01020000 	mrseq	r0, (UNDEF: 2)
    1260:	000d0efb 	strdeq	r0, [sp], -fp
    1264:	01010101 	tsteq	r1, r1, lsl #2
    1268:	01000000 	mrseq	r0, (UNDEF: 0)
    126c:	2e010000 	cdpcs	0, 0, cr0, cr1, cr0, {0}
    1270:	2e2e2f2e 	cdpcs	15, 2, cr2, cr14, cr14, {1}
    1274:	2f2e2e2f 	svccs	0x002e2e2f
    1278:	2e2f2e2e 	cdpcs	14, 2, cr2, cr15, cr14, {1}
    127c:	2e2e2f2e 	cdpcs	15, 2, cr2, cr14, cr14, {1}
    1280:	00736f2f 	rsbseq	r6, r3, pc, lsr #30
    1284:	6e696c62 	cdpvs	12, 6, cr6, cr9, cr2, {3}
    1288:	7400006b 	strvc	r0, [r0], #-107	; 0x6b
    128c:	645f6c70 	ldrbvs	r6, [pc], #-3184	; 1294 <unused+0x1290>
    1290:	61707369 	cmnvs	r0, r9, ror #6
    1294:	5f686374 	svcpl	0x00686374
    1298:	6c626174 	stfvse	f6, [r2], #-464	; 0xfffffe30
    129c:	00682e65 	rsbeq	r2, r8, r5, ror #28
    12a0:	74000001 	strvc	r0, [r0], #-1
    12a4:	645f6c70 	ldrbvs	r6, [pc], #-3184	; 12ac <unused+0x12a8>
    12a8:	61707369 	cmnvs	r0, r9, ror #6
    12ac:	5f686374 	svcpl	0x00686374
    12b0:	6c626174 	stfvse	f6, [r2], #-464	; 0xfffffe30
    12b4:	00632e65 	rsbeq	r2, r3, r5, ror #28
    12b8:	00000002 	andeq	r0, r0, r2
    12bc:	000000b6 	strheq	r0, [r0], -r6
    12c0:	002a0002 	eoreq	r0, sl, r2
    12c4:	01020000 	mrseq	r0, (UNDEF: 2)
    12c8:	000d0efb 	strdeq	r0, [sp], -fp
    12cc:	01010101 	tsteq	r1, r1, lsl #2
    12d0:	01000000 	mrseq	r0, (UNDEF: 0)
    12d4:	62010000 	andvs	r0, r1, #0
    12d8:	6b6e696c 	blvs	1b9b890 <__SP_usr_+0x1b3be10>
    12dc:	70740000 	rsbsvc	r0, r4, r0
    12e0:	6e695f6c 	cdpvs	15, 6, cr5, cr9, cr12, {3}
    12e4:	75716f76 	ldrbvc	r6, [r1, #-3958]!	; 0xf76
    12e8:	00532e65 	subseq	r2, r3, r5, ror #28
    12ec:	00000001 	andeq	r0, r0, r1
    12f0:	08020500 	stmdaeq	r2, {r8, sl}
    12f4:	030000c6 	movweq	r0, #198	; 0xc6
    12f8:	2f2f012f 	svccs	0x002f012f
    12fc:	2f312f2f 	svccs	0x00312f2f
    1300:	312f2f2f 			; <UNDEFINED> instruction: 0x312f2f2f
    1304:	2f2f2f2f 	svccs	0x002f2f2f
    1308:	2f2f2f31 	svccs	0x002f2f31
    130c:	2f2f312f 	svccs	0x002f312f
    1310:	2f312f2f 	svccs	0x00312f2f
    1314:	312f2f2f 			; <UNDEFINED> instruction: 0x312f2f2f
    1318:	2f2f2f2f 	svccs	0x002f2f2f
    131c:	2f2f2f31 	svccs	0x002f2f31
    1320:	2f2f312f 	svccs	0x002f312f
    1324:	2f312f2f 	svccs	0x00312f2f
    1328:	312f2f2f 			; <UNDEFINED> instruction: 0x312f2f2f
    132c:	2f2f2f2f 	svccs	0x002f2f2f
    1330:	2f2f2f31 	svccs	0x002f2f31
    1334:	2f2f312f 	svccs	0x002f312f
    1338:	2f312f2f 	svccs	0x00312f2f
    133c:	312f2f2f 			; <UNDEFINED> instruction: 0x312f2f2f
    1340:	2f2f2f2f 	svccs	0x002f2f2f
    1344:	2f2f2f31 	svccs	0x002f2f31
    1348:	2f2f312f 	svccs	0x002f312f
    134c:	2f312f2f 	svccs	0x00312f2f
    1350:	312f2f2f 			; <UNDEFINED> instruction: 0x312f2f2f
    1354:	2f2f2f2f 	svccs	0x002f2f2f
    1358:	2f2f2f31 	svccs	0x002f2f31
    135c:	2f2f312f 	svccs	0x002f312f
    1360:	2f312f2f 	svccs	0x00312f2f
    1364:	312f2f2f 			; <UNDEFINED> instruction: 0x312f2f2f
    1368:	2f2f2f2f 	svccs	0x002f2f2f
    136c:	2f2f2f31 	svccs	0x002f2f31
    1370:	0002022f 	andeq	r0, r2, pc, lsr #4
    1374:	00ac0101 	adceq	r0, ip, r1, lsl #2
    1378:	00020000 	andeq	r0, r2, r0
    137c:	00000044 	andeq	r0, r0, r4, asr #32
    1380:	0efb0102 	cdpeq	1, 15, cr0, cr11, cr2, {0}
    1384:	0101000d 	tsteq	r1, sp
    1388:	00000101 	andeq	r0, r0, r1, lsl #2
    138c:	00000100 	andeq	r0, r0, r0, lsl #2
    1390:	2f2e2e01 	svccs	0x002e2e01
    1394:	2e2f2e2e 	cdpcs	14, 2, cr2, cr15, cr14, {1}
    1398:	2e2e2f2e 	cdpcs	15, 2, cr2, cr14, cr14, {1}
    139c:	2f2e2e2f 	svccs	0x002e2e2f
    13a0:	6d2f2e2e 	stcvs	14, cr2, [pc, #-184]!	; 12f0 <unused+0x12ec>
    13a4:	69686361 	stmdbvs	r8!, {r0, r5, r6, r8, r9, sp, lr}^
    13a8:	2f73656e 	svccs	0x0073656e
    13ac:	74726f63 	ldrbtvc	r6, [r2], #-3939	; 0xf63
    13b0:	612d7865 			; <UNDEFINED> instruction: 0x612d7865
    13b4:	70740000 	rsbsvc	r0, r4, r0
    13b8:	72695f6c 	rsbvc	r5, r9, #108, 30	; 0x1b0
    13bc:	00532e71 	subseq	r2, r3, r1, ror lr
    13c0:	00000001 	andeq	r0, r0, r1
    13c4:	24020500 	strcs	r0, [r2], #-1280	; 0x500
    13c8:	030000c0 	movweq	r0, #192	; 0xc0
    13cc:	2f2f0123 	svccs	0x002f0123
    13d0:	032f2f2f 			; <UNDEFINED> instruction: 0x032f2f2f
    13d4:	30302e23 	eorscc	r2, r0, r3, lsr #28
    13d8:	352f2f2f 	strcc	r2, [pc, #-3887]!	; 4b1 <unused+0x4ad>
    13dc:	03332f2f 	teqeq	r3, #47, 30	; 0xbc
    13e0:	2f312e0c 	svccs	0x00312e0c
    13e4:	2f2f2f2f 	svccs	0x002f2f2f
    13e8:	312f2f35 			; <UNDEFINED> instruction: 0x312f2f35
    13ec:	2f2f2f2f 	svccs	0x002f2f2f
    13f0:	2f332f2f 	svccs	0x00332f2f
    13f4:	2f2f2f2f 	svccs	0x002f2f2f
    13f8:	09033230 	stmdbeq	r3, {r4, r5, r9, ip, sp}
    13fc:	2f2f332e 	svccs	0x002f332e
    1400:	2e0b032f 	cdpcs	3, 0, cr0, cr11, cr15, {1}
    1404:	2f302f2f 	svccs	0x00302f2f
    1408:	30302f32 	eorscc	r2, r0, r2, lsr pc
    140c:	2f2e0a03 	svccs	0x002e0a03
    1410:	30312f2f 	eorscc	r2, r1, pc, lsr #30
    1414:	2f2f2f2f 	svccs	0x002f2f2f
    1418:	f503312f 			; <UNDEFINED> instruction: 0xf503312f
    141c:	0a032e7e 	beq	cce1c <__SP_usr_+0x6d39c>
    1420:	0002022e 	andeq	r0, r2, lr, lsr #4
    1424:	00c50101 	sbceq	r0, r5, r1, lsl #2
    1428:	00020000 	andeq	r0, r2, r0
    142c:	0000004c 	andeq	r0, r0, ip, asr #32
    1430:	0efb0102 	cdpeq	1, 15, cr0, cr11, cr2, {0}
    1434:	0101000d 	tsteq	r1, sp
    1438:	00000101 	andeq	r0, r0, r1, lsl #2
    143c:	00000100 	andeq	r0, r0, r0, lsl #2
    1440:	2f2e2e01 	svccs	0x002e2e01
    1444:	2e2f2e2e 	cdpcs	14, 2, cr2, cr15, cr14, {1}
    1448:	2e2e2f2e 	cdpcs	15, 2, cr2, cr14, cr14, {1}
    144c:	2f2e2e2f 	svccs	0x002e2e2f
    1450:	6d2f2e2e 	stcvs	14, cr2, [pc, #-184]!	; 13a0 <unused+0x139c>
    1454:	69686361 	stmdbvs	r8!, {r0, r5, r6, r8, r9, sp, lr}^
    1458:	2f73656e 	svccs	0x0073656e
    145c:	74726f63 	ldrbtvc	r6, [r2], #-3939	; 0xf63
    1460:	612d7865 			; <UNDEFINED> instruction: 0x612d7865
    1464:	70740000 	rsbsvc	r0, r4, r0
    1468:	79735f6c 	ldmdbvc	r3!, {r2, r3, r5, r6, r8, r9, sl, fp, ip, lr}^
    146c:	6d657473 	cfstrdvs	mvd7, [r5, #-460]!	; 0xfffffe34
    1470:	6c61635f 	stclvs	3, cr6, [r1], #-380	; 0xfffffe84
    1474:	00532e6c 	subseq	r2, r3, ip, ror #28
    1478:	00000001 	andeq	r0, r0, r1
    147c:	38020500 	stmdacc	r2, {r8, sl}
    1480:	030000c1 	movweq	r0, #193	; 0xc1
    1484:	2f2f012b 	svccs	0x002f012b
    1488:	352e1903 	strcc	r1, [lr, #-2307]!	; 0x903
    148c:	2f312f32 	svccs	0x00312f32
    1490:	2f2f2f2f 	svccs	0x002f2f2f
    1494:	2f2e0903 	svccs	0x002e0903
    1498:	2e0a032f 	cdpcs	3, 0, cr0, cr10, cr15, {1}
    149c:	322f312f 	eorcc	r3, pc, #-1073741813	; 0xc000000b
    14a0:	2f322f2f 	svccs	0x00322f2f
    14a4:	312f2f31 			; <UNDEFINED> instruction: 0x312f2f31
    14a8:	312f2f2f 			; <UNDEFINED> instruction: 0x312f2f2f
    14ac:	352f2f2f 	strcc	r2, [pc, #-3887]!	; 585 <unused+0x581>
    14b0:	2f2f2f31 	svccs	0x002f2f31
    14b4:	2f2f362f 	svccs	0x002f362f
    14b8:	2f302f2f 	svccs	0x00302f2f
    14bc:	2f302f33 	svccs	0x00302f33
    14c0:	0c033231 	sfmeq	f3, 4, [r3], {49}	; 0x31
    14c4:	2e09032e 	cdpcs	3, 0, cr0, cr9, cr14, {1}
    14c8:	352f2f2f 	strcc	r2, [pc, #-3887]!	; 5a1 <unused+0x59d>
    14cc:	2f312f2f 	svccs	0x00312f2f
    14d0:	30302f32 	eorscc	r2, r0, r2, lsr pc
    14d4:	2f2e0c03 	svccs	0x002e0c03
    14d8:	0e032f2f 	cdpeq	15, 0, cr2, cr3, cr15, {1}
    14dc:	302f2f2e 	eorcc	r2, pc, lr, lsr #30
    14e0:	2e7ec903 	cdpcs	9, 7, cr12, cr14, cr3, {0}
    14e4:	032e0e03 			; <UNDEFINED> instruction: 0x032e0e03
    14e8:	02022e10 	andeq	r2, r2, #16, 28	; 0x100
    14ec:	63010100 	movwvs	r0, #4352	; 0x1100
    14f0:	02000000 	andeq	r0, r0, #0
    14f4:	00004c00 	andeq	r4, r0, r0, lsl #24
    14f8:	fb010200 	blx	41d02 <vectors_end+0x33682>
    14fc:	01000d0e 	tsteq	r0, lr, lsl #26
    1500:	00010101 	andeq	r0, r1, r1, lsl #2
    1504:	00010000 	andeq	r0, r1, r0
    1508:	2e2e0100 	sufcse	f0, f6, f0
    150c:	2f2e2e2f 	svccs	0x002e2e2f
    1510:	2e2f2e2e 	cdpcs	14, 2, cr2, cr15, cr14, {1}
    1514:	2e2e2f2e 	cdpcs	15, 2, cr2, cr14, cr14, {1}
    1518:	2f2e2e2f 	svccs	0x002e2e2f
    151c:	6863616d 	stmdavs	r3!, {r0, r2, r3, r5, r6, r8, sp, lr}^
    1520:	73656e69 	cmnvc	r5, #1680	; 0x690
    1524:	726f632f 	rsbvc	r6, pc, #-1140850688	; 0xbc000000
    1528:	2d786574 	cfldr64cs	mvdx6, [r8, #-464]!	; 0xfffffe30
    152c:	74000061 	strvc	r0, [r0], #-97	; 0x61
    1530:	745f6c70 	ldrbvc	r6, [pc], #-3184	; 1538 <unused+0x1534>
    1534:	74737572 	ldrbtvc	r7, [r3], #-1394	; 0x572
    1538:	665f6465 	ldrbvs	r6, [pc], -r5, ror #8
    153c:	532e7463 			; <UNDEFINED> instruction: 0x532e7463
    1540:	00000100 	andeq	r0, r0, r0, lsl #2
    1544:	02050000 	andeq	r0, r5, #0
    1548:	0000c278 	andeq	ip, r0, r8, ror r2
    154c:	01019e03 	tsteq	r1, r3, lsl #28
    1550:	0002022f 	andeq	r0, r2, pc, lsr #4
    1554:	00710101 	rsbseq	r0, r1, r1, lsl #2
    1558:	00020000 	andeq	r0, r2, r0
    155c:	0000004d 	andeq	r0, r0, sp, asr #32
    1560:	0efb0102 	cdpeq	1, 15, cr0, cr11, cr2, {0}
    1564:	0101000d 	tsteq	r1, sp
    1568:	00000101 	andeq	r0, r0, r1, lsl #2
    156c:	00000100 	andeq	r0, r0, r0, lsl #2
    1570:	2f2e2e01 	svccs	0x002e2e01
    1574:	2e2f2e2e 	cdpcs	14, 2, cr2, cr15, cr14, {1}
    1578:	2e2e2f2e 	cdpcs	15, 2, cr2, cr14, cr14, {1}
    157c:	2f2e2e2f 	svccs	0x002e2e2f
    1580:	6d2f2e2e 	stcvs	14, cr2, [pc, #-184]!	; 14d0 <unused+0x14cc>
    1584:	69686361 	stmdbvs	r8!, {r0, r5, r6, r8, r9, sp, lr}^
    1588:	2f73656e 	svccs	0x0073656e
    158c:	74726f63 	ldrbtvc	r6, [r2], #-3939	; 0xf63
    1590:	612d7865 			; <UNDEFINED> instruction: 0x612d7865
    1594:	70740000 	rsbsvc	r0, r4, r0
    1598:	65765f6c 	ldrbvs	r5, [r6, #-3948]!	; 0xf6c
    159c:	726f7463 	rsbvc	r7, pc, #1660944384	; 0x63000000
    15a0:	6261745f 	rsbvs	r7, r1, #1593835520	; 0x5f000000
    15a4:	732e656c 			; <UNDEFINED> instruction: 0x732e656c
    15a8:	00000100 	andeq	r0, r0, r0, lsl #2
    15ac:	02050000 	andeq	r0, r5, #0
    15b0:	0000e618 	andeq	lr, r0, r8, lsl r6
    15b4:	2f010b03 	svccs	0x00010b03
    15b8:	2f2f2f2f 	svccs	0x002f2f2f
    15bc:	2f6e2f2f 	svccs	0x006e2f2f
    15c0:	2f2f2f2f 	svccs	0x002f2f2f
    15c4:	12022f2f 	andne	r2, r2, #47, 30	; 0xbc
    15c8:	45010100 	strmi	r0, [r1, #-256]	; 0x100
    15cc:	02000001 	andeq	r0, r0, #1
    15d0:	0000eb00 	andeq	lr, r0, r0, lsl #22
    15d4:	fb010200 	blx	41dde <vectors_end+0x3375e>
    15d8:	01000d0e 	tsteq	r0, lr, lsl #26
    15dc:	00010101 	andeq	r0, r1, r1, lsl #2
    15e0:	00010000 	andeq	r0, r1, r0
    15e4:	2e2e0100 	sufcse	f0, f6, f0
    15e8:	2f2e2e2f 	svccs	0x002e2e2f
    15ec:	2e2f2e2e 	cdpcs	14, 2, cr2, cr15, cr14, {1}
    15f0:	2e2e2f2e 	cdpcs	15, 2, cr2, cr14, cr14, {1}
    15f4:	2f2e2e2f 	svccs	0x002e2e2f
    15f8:	6863616d 	stmdavs	r3!, {r0, r2, r3, r5, r6, r8, sp, lr}^
    15fc:	73656e69 	cmnvc	r5, #1680	; 0x690
    1600:	726f632f 	rsbvc	r6, pc, #-1140850688	; 0xbc000000
    1604:	2d786574 	cfldr64cs	mvdx6, [r8, #-464]!	; 0xfffffe30
    1608:	6c620061 	stclvs	0, cr0, [r2], #-388	; 0xfffffe7c
    160c:	006b6e69 	rsbeq	r6, fp, r9, ror #28
    1610:	2e2f2e2e 	cdpcs	14, 2, cr2, cr15, cr14, {1}
    1614:	2e2e2f2e 	cdpcs	15, 2, cr2, cr14, cr14, {1}
    1618:	2f2e2e2f 	svccs	0x002e2e2f
    161c:	2e2f2e2e 	cdpcs	14, 2, cr2, cr15, cr14, {1}
    1620:	736f2f2e 	cmnvc	pc, #46, 30	; 0xb8
    1624:	70740000 	rsbsvc	r0, r4, r0
    1628:	616d5f6c 	cmnvs	sp, ip, ror #30
    162c:	6e696863 	cdpvs	8, 6, cr6, cr9, cr3, {3}
    1630:	72615f65 	rsbvc	r5, r1, #404	; 0x194
    1634:	00632e6d 	rsbeq	r2, r3, sp, ror #28
    1638:	74000001 	strvc	r0, [r0], #-1
    163c:	6f5f6c70 	svcvs	0x005f6c70
    1640:	74735f73 	ldrbtvc	r5, [r3], #-3955	; 0xf73
    1644:	79745f64 	ldmdbvc	r4!, {r2, r5, r6, r8, r9, sl, fp, ip, lr}^
    1648:	2e736570 	mrccs	5, 3, r6, cr3, cr0, {3}
    164c:	00010068 	andeq	r0, r1, r8, rrx
    1650:	6c707400 	cfldrdvs	mvd7, [r0], #-0
    1654:	7070615f 	rsbsvc	r6, r0, pc, asr r1
    1658:	7375635f 	cmnvc	r5, #2080374785	; 0x7c000001
    165c:	5f6d6f74 	svcpl	0x006d6f74
    1660:	65707974 	ldrbvs	r7, [r0, #-2420]!	; 0x974
    1664:	00682e73 	rsbeq	r2, r8, r3, ror lr
    1668:	74000002 	strvc	r0, [r0], #-2
    166c:	6f5f6c70 	svcvs	0x005f6c70
    1670:	6e695f73 	mcrvs	15, 3, r5, cr9, cr3, {3}
    1674:	6e726574 	mrcvs	5, 3, r6, cr2, cr4, {3}
    1678:	745f6c61 	ldrbvc	r6, [pc], #-3169	; 1680 <unused+0x167c>
    167c:	73657079 	cmnvc	r5, #121	; 0x79
    1680:	0300682e 	movweq	r6, #2094	; 0x82e
    1684:	70740000 	rsbsvc	r0, r4, r0
    1688:	616d5f6c 	cmnvs	sp, ip, ror #30
    168c:	6e696863 	cdpvs	8, 6, cr6, cr9, cr3, {3}
    1690:	72615f65 	rsbvc	r5, r1, #404	; 0x194
    1694:	00682e6d 	rsbeq	r2, r8, sp, ror #28
    1698:	74000001 	strvc	r0, [r0], #-1
    169c:	6d5f6c70 	ldclvs	12, cr6, [pc, #-448]	; 14e4 <unused+0x14e0>
    16a0:	69686361 	stmdbvs	r8!, {r0, r5, r6, r8, r9, sp, lr}^
    16a4:	682e656e 	stmdavs	lr!, {r1, r2, r3, r5, r6, r8, sl, sp, lr}
    16a8:	00000100 	andeq	r0, r0, r0, lsl #2
    16ac:	5f6c7074 	svcpl	0x006c7074
    16b0:	6b5f736f 	blvs	17de474 <__SP_usr_+0x177e9f4>
    16b4:	656e7265 	strbvs	r7, [lr, #-613]!	; 0x265
    16b8:	00682e6c 	rsbeq	r2, r8, ip, ror #28
    16bc:	00000003 	andeq	r0, r0, r3
    16c0:	80020500 	andhi	r0, r2, r0, lsl #10
    16c4:	030000c2 	movweq	r0, #194	; 0xc2
    16c8:	4b0100c9 	blmi	419f4 <vectors_end+0x33374>
    16cc:	66220386 	strtvs	r0, [r2], -r6, lsl #7
    16d0:	6c4b694b 	mcrrvs	9, 4, r6, fp, cr11
    16d4:	4c6c6e4c 	stclmi	14, cr6, [ip], #-304	; 0xfffffed0
    16d8:	6eba0b03 	vmovvs.f64	d0, #163	; 0xa3
    16dc:	a0699fa3 	rsbge	r9, r9, r3, lsr #31
    16e0:	034d6567 	movteq	r6, #54631	; 0xd567
    16e4:	004b6609 	subeq	r6, fp, r9, lsl #12
    16e8:	06010402 	streq	r0, [r1], -r2, lsl #8
    16ec:	0402004a 	streq	r0, [r2], #-74	; 0x4a
    16f0:	49066602 	stmdbmi	r6, {r1, r9, sl, sp, lr}
    16f4:	4ba16a50 	blmi	fe85c03c <__SP_usr_+0xfe7fc5bc>
    16f8:	0008022f 	andeq	r0, r8, pc, lsr #4
    16fc:	05000101 	streq	r0, [r0, #-257]	; 0x101
    1700:	00882c02 	addeq	r2, r8, r2, lsl #24
    1704:	00d40300 	sbcseq	r0, r4, r0, lsl #6
    1708:	02004b01 	andeq	r4, r0, #1024	; 0x400
    170c:	02320104 	eorseq	r0, r2, #4, 2
    1710:	01010002 	tsteq	r1, r2
    1714:	000000b3 	strheq	r0, [r0], -r3
    1718:	00910002 	addseq	r0, r1, r2
    171c:	01020000 	mrseq	r0, (UNDEF: 2)
    1720:	000d0efb 	strdeq	r0, [sp], -fp
    1724:	01010101 	tsteq	r1, r1, lsl #2
    1728:	01000000 	mrseq	r0, (UNDEF: 0)
    172c:	2e010000 	cdpcs	0, 0, cr0, cr1, cr0, {0}
    1730:	2e2e2f2e 	cdpcs	15, 2, cr2, cr14, cr14, {1}
    1734:	2f2e2e2f 	svccs	0x002e2e2f
    1738:	2e2f2e2e 	cdpcs	14, 2, cr2, cr15, cr14, {1}
    173c:	2e2e2f2e 	cdpcs	15, 2, cr2, cr14, cr14, {1}
    1740:	63616d2f 	cmnvs	r1, #3008	; 0xbc0
    1744:	656e6968 	strbvs	r6, [lr, #-2408]!	; 0x968
    1748:	6f632f73 	svcvs	0x00632f73
    174c:	78657472 	stmdavc	r5!, {r1, r4, r5, r6, sl, ip, sp, lr}^
    1750:	612f612d 			; <UNDEFINED> instruction: 0x612f612d
    1754:	37766d72 			; <UNDEFINED> instruction: 0x37766d72
    1758:	6d63622f 	sfmvs	f6, 2, [r3, #-188]!	; 0xffffff44
    175c:	36333832 			; <UNDEFINED> instruction: 0x36333832
    1760:	2f2e2e00 	svccs	0x002e2e00
    1764:	2e2f2e2e 	cdpcs	14, 2, cr2, cr15, cr14, {1}
    1768:	2e2e2f2e 	cdpcs	15, 2, cr2, cr14, cr14, {1}
    176c:	2f2e2e2f 	svccs	0x002e2e2f
    1770:	6d2f2e2e 	stcvs	14, cr2, [pc, #-184]!	; 16c0 <unused+0x16bc>
    1774:	69686361 	stmdbvs	r8!, {r0, r5, r6, r8, r9, sp, lr}^
    1778:	2f73656e 	svccs	0x0073656e
    177c:	74726f63 	ldrbtvc	r6, [r2], #-3939	; 0xf63
    1780:	612d7865 			; <UNDEFINED> instruction: 0x612d7865
    1784:	63620000 	cmnvs	r2, #0
    1788:	3338326d 	teqcc	r8, #-805306362	; 0xd0000006
    178c:	696d5f36 	stmdbvs	sp!, {r1, r2, r4, r5, r8, r9, sl, fp, ip, lr}^
    1790:	632e6373 			; <UNDEFINED> instruction: 0x632e6373
    1794:	00000100 	andeq	r0, r0, r0, lsl #2
    1798:	5f6c7074 	svcpl	0x006c7074
    179c:	735f736f 	cmpvc	pc, #-1140850687	; 0xbc000001
    17a0:	745f6474 	ldrbvc	r6, [pc], #-1140	; 17a8 <unused+0x17a4>
    17a4:	73657079 	cmnvc	r5, #121	; 0x79
    17a8:	0200682e 	andeq	r6, r0, #3014656	; 0x2e0000
    17ac:	00000000 	andeq	r0, r0, r0
    17b0:	883c0205 	ldmdahi	ip!, {r0, r2, r9}
    17b4:	83160000 	tsthi	r6, #0
    17b8:	0402004b 	streq	r0, [r2], #-75	; 0x4b
    17bc:	00660603 	rsbeq	r0, r6, r3, lsl #12
    17c0:	66010402 	strvs	r0, [r1], -r2, lsl #8
    17c4:	06028306 	streq	r8, [r2], -r6, lsl #6
    17c8:	73010100 	movwvc	r0, #4352	; 0x1100
    17cc:	02000000 	andeq	r0, r0, #0
    17d0:	00005e00 	andeq	r5, r0, r0, lsl #28
    17d4:	fb010200 	blx	41fde <vectors_end+0x3395e>
    17d8:	01000d0e 	tsteq	r0, lr, lsl #26
    17dc:	00010101 	andeq	r0, r1, r1, lsl #2
    17e0:	00010000 	andeq	r0, r1, r0
    17e4:	2e2e0100 	sufcse	f0, f6, f0
    17e8:	2f2e2e2f 	svccs	0x002e2e2f
    17ec:	2e2f2e2e 	cdpcs	14, 2, cr2, cr15, cr14, {1}
    17f0:	2e2e2f2e 	cdpcs	15, 2, cr2, cr14, cr14, {1}
    17f4:	2f2e2e2f 	svccs	0x002e2e2f
    17f8:	6863616d 	stmdavs	r3!, {r0, r2, r3, r5, r6, r8, sp, lr}^
    17fc:	73656e69 	cmnvc	r5, #1680	; 0x690
    1800:	726f632f 	rsbvc	r6, pc, #-1140850688	; 0xbc000000
    1804:	2d786574 	cfldr64cs	mvdx6, [r8, #-464]!	; 0xfffffe30
    1808:	72612f61 	rsbvc	r2, r1, #388	; 0x184
    180c:	2f37766d 	svccs	0x0037766d
    1810:	326d6362 	rsbcc	r6, sp, #-2013265919	; 0x88000001
    1814:	2f363338 	svccs	0x00363338
    1818:	32697072 	rsbcc	r7, r9, #114	; 0x72
    181c:	70720000 	rsbsvc	r0, r2, r0
    1820:	745f3269 	ldrbvc	r3, [pc], #-617	; 1828 <unused+0x1824>
    1824:	735f6c70 	cmpvc	pc, #112, 24	; 0x7000
    1828:	7065656c 	rsbvc	r6, r5, ip, ror #10
    182c:	0100532e 	tsteq	r0, lr, lsr #6
    1830:	00000000 	andeq	r0, r0, r0
    1834:	c3f40205 	mvnsgt	r0, #1342177280	; 0x50000000
    1838:	2b030000 	blcs	c1840 <__SP_usr_+0x61dc0>
    183c:	00020201 	andeq	r0, r2, r1, lsl #4
    1840:	01770101 	cmneq	r7, r1, lsl #2
    1844:	00020000 	andeq	r0, r2, r0
    1848:	00000065 	andeq	r0, r0, r5, rrx
    184c:	0efb0102 	cdpeq	1, 15, cr0, cr11, cr2, {0}
    1850:	0101000d 	tsteq	r1, sp
    1854:	00000101 	andeq	r0, r0, r1, lsl #2
    1858:	00000100 	andeq	r0, r0, r0, lsl #2
    185c:	2f2e2e01 	svccs	0x002e2e01
    1860:	2e2f2e2e 	cdpcs	14, 2, cr2, cr15, cr14, {1}
    1864:	2e2e2f2e 	cdpcs	15, 2, cr2, cr14, cr14, {1}
    1868:	2f2e2e2f 	svccs	0x002e2e2f
    186c:	6d2f2e2e 	stcvs	14, cr2, [pc, #-184]!	; 17bc <unused+0x17b8>
    1870:	69686361 	stmdbvs	r8!, {r0, r5, r6, r8, r9, sp, lr}^
    1874:	2f73656e 	svccs	0x0073656e
    1878:	74726f63 	ldrbtvc	r6, [r2], #-3939	; 0xf63
    187c:	612d7865 			; <UNDEFINED> instruction: 0x612d7865
    1880:	6d72612f 	ldfvse	f6, [r2, #-188]!	; 0xffffff44
    1884:	622f3776 	eorvs	r3, pc, #30932992	; 0x1d80000
    1888:	38326d63 	ldmdacc	r2!, {r0, r1, r5, r6, r8, sl, fp, sp, lr}
    188c:	722f3633 	eorvc	r3, pc, #53477376	; 0x3300000
    1890:	00326970 	eorseq	r6, r2, r0, ror r9
    1894:	69707200 	ldmdbvs	r0!, {r9, ip, sp, lr}^
    1898:	6f625f32 	svcvs	0x00625f32
    189c:	7473746f 	ldrbtvc	r7, [r3], #-1135	; 0x46f
    18a0:	5f706172 	svcpl	0x00706172
    18a4:	67617473 			; <UNDEFINED> instruction: 0x67617473
    18a8:	532e3165 			; <UNDEFINED> instruction: 0x532e3165
    18ac:	00000100 	andeq	r0, r0, r0, lsl #2
    18b0:	02050000 	andeq	r0, r5, #0
    18b4:	00008000 	andeq	r8, r0, r0
    18b8:	2f012203 	svccs	0x00012203
    18bc:	2f312f2f 	svccs	0x00312f2f
    18c0:	1303312f 	movwne	r3, #12591	; 0x312f
    18c4:	302f3066 	eorcc	r3, pc, r6, rrx
    18c8:	2f313030 	svccs	0x00313030
    18cc:	2f2f3130 	svccs	0x002f3130
    18d0:	312f2f2f 			; <UNDEFINED> instruction: 0x312f2f2f
    18d4:	2f35312f 	svccs	0x0035312f
    18d8:	2f312f36 	svccs	0x00312f36
    18dc:	302f3034 	eorcc	r3, pc, r4, lsr r0	; <UNPREDICTABLE>
    18e0:	30313130 	eorscc	r3, r1, r0, lsr r1
    18e4:	30312f30 	eorscc	r2, r1, r0, lsr pc
    18e8:	322f2f34 	eorcc	r2, pc, #52, 30	; 0xd0
    18ec:	2f2f3030 	svccs	0x002f3030
    18f0:	302f302f 	eorcc	r3, pc, pc, lsr #32
    18f4:	2f302f30 	svccs	0x00302f30
    18f8:	31303030 	teqcc	r0, r0, lsr r0
    18fc:	2f2f3134 	svccs	0x002f3134
    1900:	312f2f2f 			; <UNDEFINED> instruction: 0x312f2f2f
    1904:	2f33302f 	svccs	0x0033302f
    1908:	2f2f3136 	svccs	0x002f3136
    190c:	312f2f31 			; <UNDEFINED> instruction: 0x312f2f31
    1910:	3231312f 	eorscc	r3, r1, #-1073741813	; 0xc000000b
    1914:	0331312f 	teqeq	r1, #-1073741813	; 0xc000000b
    1918:	2f312e09 	svccs	0x00312e09
    191c:	2f2f312f 	svccs	0x002f312f
    1920:	31312f31 	teqcc	r1, r1, lsr pc
    1924:	36312f32 	shasxcc	r2, r1, r2
    1928:	312f2f2f 			; <UNDEFINED> instruction: 0x312f2f2f
    192c:	302f2f2f 	eorcc	r2, pc, pc, lsr #30
    1930:	2f302f2f 	svccs	0x00302f2f
    1934:	2f2f2f2f 	svccs	0x002f2f2f
    1938:	2f2f302f 	svccs	0x002f302f
    193c:	2f2f2f2f 	svccs	0x002f2f2f
    1940:	2f322f2f 	svccs	0x00322f2f
    1944:	2f2f2f2f 	svccs	0x002f2f2f
    1948:	2f312f2f 	svccs	0x00312f2f
    194c:	2f2f2f2f 	svccs	0x002f2f2f
    1950:	2f2f2f31 	svccs	0x002f2f31
    1954:	2f2f3434 	svccs	0x002f3434
    1958:	2f2f342f 	svccs	0x002f342f
    195c:	2f2f342f 	svccs	0x002f342f
    1960:	2f2f342f 	svccs	0x002f342f
    1964:	2f2f342f 	svccs	0x002f342f
    1968:	2f2f342f 	svccs	0x002f342f
    196c:	2f33342f 	svccs	0x0033342f
    1970:	1a032f2f 	bne	cd634 <__SP_usr_+0x6dbb4>
    1974:	2e11032e 	cdpcs	3, 1, cr0, cr1, cr14, {1}
    1978:	2f343030 	svccs	0x00343030
    197c:	2f312f31 	svccs	0x00312f31
    1980:	2f312f31 	svccs	0x00312f31
    1984:	2f312f31 	svccs	0x00312f31
    1988:	2f312f31 	svccs	0x00312f31
    198c:	2f312f31 	svccs	0x00312f31
    1990:	2f312f31 	svccs	0x00312f31
    1994:	2f312f31 	svccs	0x00312f31
    1998:	2f322f31 	svccs	0x00322f31
    199c:	2f322f32 	svccs	0x00322f32
    19a0:	2f322f32 	svccs	0x00322f32
    19a4:	2f322f32 	svccs	0x00322f32
    19a8:	2e7c8603 	cdpcs	6, 7, cr8, cr12, cr3, {0}
    19ac:	032e1103 			; <UNDEFINED> instruction: 0x032e1103
    19b0:	0d032e12 	stceq	14, cr2, [r3, #-72]	; 0xffffffb8
    19b4:	2e2c032e 	cdpcs	3, 2, cr0, cr12, cr14, {1}
    19b8:	01000202 	tsteq	r0, r2, lsl #4
    19bc:	00008201 	andeq	r8, r0, r1, lsl #4
    19c0:	65000200 	strvs	r0, [r0, #-512]	; 0x200
    19c4:	02000000 	andeq	r0, r0, #0
    19c8:	0d0efb01 	vstreq	d15, [lr, #-4]
    19cc:	01010100 	mrseq	r0, (UNDEF: 17)
    19d0:	00000001 	andeq	r0, r0, r1
    19d4:	01000001 	tsteq	r0, r1
    19d8:	2e2f2e2e 	cdpcs	14, 2, cr2, cr15, cr14, {1}
    19dc:	2e2e2f2e 	cdpcs	15, 2, cr2, cr14, cr14, {1}
    19e0:	2f2e2e2f 	svccs	0x002e2e2f
    19e4:	2e2f2e2e 	cdpcs	14, 2, cr2, cr15, cr14, {1}
    19e8:	616d2f2e 	cmnvs	sp, lr, lsr #30
    19ec:	6e696863 	cdpvs	8, 6, cr6, cr9, cr3, {3}
    19f0:	632f7365 			; <UNDEFINED> instruction: 0x632f7365
    19f4:	6574726f 	ldrbvs	r7, [r4, #-623]!	; 0x26f
    19f8:	2f612d78 	svccs	0x00612d78
    19fc:	766d7261 	strbtvc	r7, [sp], -r1, ror #4
    1a00:	63622f37 	cmnvs	r2, #55, 30	; 0xdc
    1a04:	3338326d 	teqcc	r8, #-805306362	; 0xd0000006
    1a08:	70722f36 	rsbsvc	r2, r2, r6, lsr pc
    1a0c:	00003269 	andeq	r3, r0, r9, ror #4
    1a10:	32697072 	rsbcc	r7, r9, #114	; 0x72
    1a14:	6f6f625f 	svcvs	0x006f625f
    1a18:	72747374 	rsbsvc	r7, r4, #116, 6	; 0xd0000001
    1a1c:	735f7061 	cmpvc	pc, #97	; 0x61
    1a20:	65676174 	strbvs	r6, [r7, #-372]!	; 0x174
    1a24:	00632e32 	rsbeq	r2, r3, r2, lsr lr
    1a28:	00000001 	andeq	r0, r0, r1
    1a2c:	88020500 	stmdahi	r2, {r8, sl}
    1a30:	03000088 	movweq	r0, #136	; 0x88
    1a34:	0e030127 	adfeqsp	f0, f3, f7
    1a38:	0402004a 	streq	r0, [r2], #-74	; 0x4a
    1a3c:	02023101 	andeq	r3, r2, #1073741824	; 0x40000000
    1a40:	80010100 	andhi	r0, r1, r0, lsl #2
    1a44:	02000000 	andeq	r0, r0, #0
    1a48:	00005e00 	andeq	r5, r0, r0, lsl #28
    1a4c:	fb010200 	blx	42256 <vectors_end+0x33bd6>
    1a50:	01000d0e 	tsteq	r0, lr, lsl #26
    1a54:	00010101 	andeq	r0, r1, r1, lsl #2
    1a58:	00010000 	andeq	r0, r1, r0
    1a5c:	2e2e0100 	sufcse	f0, f6, f0
    1a60:	2f2e2e2f 	svccs	0x002e2e2f
    1a64:	2e2f2e2e 	cdpcs	14, 2, cr2, cr15, cr14, {1}
    1a68:	2e2e2f2e 	cdpcs	15, 2, cr2, cr14, cr14, {1}
    1a6c:	2f2e2e2f 	svccs	0x002e2e2f
    1a70:	6863616d 	stmdavs	r3!, {r0, r2, r3, r5, r6, r8, sp, lr}^
    1a74:	73656e69 	cmnvc	r5, #1680	; 0x690
    1a78:	726f632f 	rsbvc	r6, pc, #-1140850688	; 0xbc000000
    1a7c:	2d786574 	cfldr64cs	mvdx6, [r8, #-464]!	; 0xfffffe30
    1a80:	72612f61 	rsbvc	r2, r1, #388	; 0x184
    1a84:	2f37766d 	svccs	0x0037766d
    1a88:	326d6362 	rsbcc	r6, sp, #-2013265919	; 0x88000001
    1a8c:	2f363338 	svccs	0x00363338
    1a90:	32697072 	rsbcc	r7, r9, #114	; 0x72
    1a94:	70720000 	rsbsvc	r0, r2, r0
    1a98:	745f3269 	ldrbvc	r3, [pc], #-617	; 1aa0 <unused+0x1a9c>
    1a9c:	735f6c70 	cmpvc	pc, #112, 24	; 0x7000
    1aa0:	73627574 	cmnvc	r2, #116, 10	; 0x1d000000
    1aa4:	0100632e 	tsteq	r0, lr, lsr #6
    1aa8:	00000000 	andeq	r0, r0, r0
    1aac:	c3f80205 	mvnsgt	r0, #1342177280	; 0x50000000
    1ab0:	29030000 	stmdbcs	r3, {}	; <UNPREDICTABLE>
    1ab4:	302f4b01 	eorcc	r4, pc, r1, lsl #22
    1ab8:	4d318467 	cfldrsmi	mvf8, [r1, #-412]!	; 0xfffffe64
    1abc:	04020067 	streq	r0, [r2], #-103	; 0x67
    1ac0:	02026c01 	andeq	r6, r2, #256	; 0x100
    1ac4:	e2010100 	and	r0, r1, #0, 2
    1ac8:	02000000 	andeq	r0, r0, #0
    1acc:	0000c400 	andeq	ip, r0, r0, lsl #8
    1ad0:	fb010200 	blx	422da <vectors_end+0x33c5a>
    1ad4:	01000d0e 	tsteq	r0, lr, lsl #26
    1ad8:	00010101 	andeq	r0, r1, r1, lsl #2
    1adc:	00010000 	andeq	r0, r1, r0
    1ae0:	2e2e0100 	sufcse	f0, f6, f0
    1ae4:	2f2e2e2f 	svccs	0x002e2e2f
    1ae8:	2e2f2e2e 	cdpcs	14, 2, cr2, cr15, cr14, {1}
    1aec:	2e2e2f2e 	cdpcs	15, 2, cr2, cr14, cr14, {1}
    1af0:	2f2e2e2f 	svccs	0x002e2e2f
    1af4:	6863616d 	stmdavs	r3!, {r0, r2, r3, r5, r6, r8, sp, lr}^
    1af8:	73656e69 	cmnvc	r5, #1680	; 0x690
    1afc:	726f632f 	rsbvc	r6, pc, #-1140850688	; 0xbc000000
    1b00:	2d786574 	cfldr64cs	mvdx6, [r8, #-464]!	; 0xfffffe30
    1b04:	72612f61 	rsbvc	r2, r1, #388	; 0x184
    1b08:	2f37766d 	svccs	0x0037766d
    1b0c:	326d6362 	rsbcc	r6, sp, #-2013265919	; 0x88000001
    1b10:	2f363338 	svccs	0x00363338
    1b14:	32697072 	rsbcc	r7, r9, #114	; 0x72
    1b18:	2f2e2e00 	svccs	0x002e2e00
    1b1c:	2e2f2e2e 	cdpcs	14, 2, cr2, cr15, cr14, {1}
    1b20:	2e2e2f2e 	cdpcs	15, 2, cr2, cr14, cr14, {1}
    1b24:	2f2e2e2f 	svccs	0x002e2e2f
    1b28:	6d2f2e2e 	stcvs	14, cr2, [pc, #-184]!	; 1a78 <unused+0x1a74>
    1b2c:	69686361 	stmdbvs	r8!, {r0, r5, r6, r8, r9, sp, lr}^
    1b30:	2f73656e 	svccs	0x0073656e
    1b34:	74726f63 	ldrbtvc	r6, [r2], #-3939	; 0xf63
    1b38:	612d7865 			; <UNDEFINED> instruction: 0x612d7865
    1b3c:	2f2e2e00 	svccs	0x002e2e00
    1b40:	2e2f2e2e 	cdpcs	14, 2, cr2, cr15, cr14, {1}
    1b44:	2e2e2f2e 	cdpcs	15, 2, cr2, cr14, cr14, {1}
    1b48:	2f2e2e2f 	svccs	0x002e2e2f
    1b4c:	6f2f2e2e 	svcvs	0x002f2e2e
    1b50:	72000073 	andvc	r0, r0, #115	; 0x73
    1b54:	5f326970 	svcpl	0x00326970
    1b58:	2e717269 	cdpcs	2, 7, cr7, cr1, cr9, {3}
    1b5c:	00010063 	andeq	r0, r1, r3, rrx
    1b60:	6c707400 	cfldrdvs	mvd7, [r0], #-0
    1b64:	5f736f5f 	svcpl	0x00736f5f
    1b68:	5f647473 	svcpl	0x00647473
    1b6c:	65707974 	ldrbvs	r7, [r0, #-2420]!	; 0x974
    1b70:	00682e73 	rsbeq	r2, r8, r3, ror lr
    1b74:	74000002 	strvc	r0, [r0], #-2
    1b78:	6f5f6c70 	svcvs	0x005f6c70
    1b7c:	6e695f73 	mcrvs	15, 3, r5, cr9, cr3, {3}
    1b80:	72726574 	rsbsvc	r6, r2, #116, 10	; 0x1d000000
    1b84:	5f747075 	svcpl	0x00747075
    1b88:	6e72656b 	cdpvs	5, 7, cr6, cr2, cr11, {3}
    1b8c:	682e6c65 	stmdavs	lr!, {r0, r2, r5, r6, sl, fp, sp, lr}
    1b90:	00000300 	andeq	r0, r0, r0, lsl #6
    1b94:	02050000 	andeq	r0, r5, #0
    1b98:	00008898 	muleq	r0, r8, r8
    1b9c:	67012303 	strvs	r2, [r1, -r3, lsl #6]
    1ba0:	03894e4b 	orreq	r4, r9, #1200	; 0x4b0
    1ba4:	be836609 	cdplt	6, 8, cr6, cr3, cr9, {0}
    1ba8:	01000402 	tsteq	r0, r2, lsl #8
    1bac:	00009101 	andeq	r9, r0, r1, lsl #2
    1bb0:	64000200 	strvs	r0, [r0], #-512	; 0x200
    1bb4:	02000000 	andeq	r0, r0, #0
    1bb8:	0d0efb01 	vstreq	d15, [lr, #-4]
    1bbc:	01010100 	mrseq	r0, (UNDEF: 17)
    1bc0:	00000001 	andeq	r0, r0, r1
    1bc4:	01000001 	tsteq	r0, r1
    1bc8:	2e2f2e2e 	cdpcs	14, 2, cr2, cr15, cr14, {1}
    1bcc:	2e2e2f2e 	cdpcs	15, 2, cr2, cr14, cr14, {1}
    1bd0:	2f2e2e2f 	svccs	0x002e2e2f
    1bd4:	2e2f2e2e 	cdpcs	14, 2, cr2, cr15, cr14, {1}
    1bd8:	616d2f2e 	cmnvs	sp, lr, lsr #30
    1bdc:	6e696863 	cdpvs	8, 6, cr6, cr9, cr3, {3}
    1be0:	632f7365 			; <UNDEFINED> instruction: 0x632f7365
    1be4:	6574726f 	ldrbvs	r7, [r4, #-623]!	; 0x26f
    1be8:	2f612d78 	svccs	0x00612d78
    1bec:	766d7261 	strbtvc	r7, [sp], -r1, ror #4
    1bf0:	63622f37 	cmnvs	r2, #55, 30	; 0xdc
    1bf4:	3338326d 	teqcc	r8, #-805306362	; 0xd0000006
    1bf8:	70722f36 	rsbsvc	r2, r2, r6, lsr pc
    1bfc:	00003269 	andeq	r3, r0, r9, ror #4
    1c00:	32697072 	rsbcc	r7, r9, #114	; 0x72
    1c04:	6378655f 	cmnvs	r8, #398458880	; 0x17c00000
    1c08:	69747065 	ldmdbvs	r4!, {r0, r2, r5, r6, ip, sp, lr}^
    1c0c:	635f6e6f 	cmpvs	pc, #1776	; 0x6f0
    1c10:	68637461 	stmdavs	r3!, {r0, r5, r6, sl, ip, sp, lr}^
    1c14:	0100532e 	tsteq	r0, lr, lsr #6
    1c18:	00000000 	andeq	r0, r0, r0
    1c1c:	c44c0205 	strbgt	r0, [ip], #-517	; 0x205
    1c20:	ea030000 	b	c1c28 <__SP_usr_+0x621a8>
    1c24:	029f0100 	addseq	r0, pc, #0, 2
    1c28:	9f321322 	svcls	0x00321322
    1c2c:	32132202 	andscc	r2, r3, #536870912	; 0x20000000
    1c30:	1322029f 			; <UNDEFINED> instruction: 0x1322029f
    1c34:	22029f32 	andcs	r9, r2, #50, 30	; 0xc8
    1c38:	68033313 	stmdavs	r3, {r0, r1, r4, r8, r9, ip, sp}
    1c3c:	0006022e 	andeq	r0, r6, lr, lsr #4
    1c40:	01060101 	tsteq	r6, r1, lsl #2
    1c44:	00020000 	andeq	r0, r2, r0
    1c48:	00000094 	muleq	r0, r4, r0
    1c4c:	0efb0102 	cdpeq	1, 15, cr0, cr11, cr2, {0}
    1c50:	0101000d 	tsteq	r1, sp
    1c54:	00000101 	andeq	r0, r0, r1, lsl #2
    1c58:	00000100 	andeq	r0, r0, r0, lsl #2
    1c5c:	2f2e2e01 	svccs	0x002e2e01
    1c60:	2e2f2e2e 	cdpcs	14, 2, cr2, cr15, cr14, {1}
    1c64:	2e2e2f2e 	cdpcs	15, 2, cr2, cr14, cr14, {1}
    1c68:	2f2e2e2f 	svccs	0x002e2e2f
    1c6c:	6d2f2e2e 	stcvs	14, cr2, [pc, #-184]!	; 1bbc <unused+0x1bb8>
    1c70:	69686361 	stmdbvs	r8!, {r0, r5, r6, r8, r9, sp, lr}^
    1c74:	2f73656e 	svccs	0x0073656e
    1c78:	74726f63 	ldrbtvc	r6, [r2], #-3939	; 0xf63
    1c7c:	612d7865 			; <UNDEFINED> instruction: 0x612d7865
    1c80:	6d72612f 	ldfvse	f6, [r2, #-188]!	; 0xffffff44
    1c84:	622f3776 	eorvs	r3, pc, #30932992	; 0x1d80000
    1c88:	38326d63 	ldmdacc	r2!, {r0, r1, r5, r6, r8, sl, fp, sp, lr}
    1c8c:	722f3633 	eorvc	r3, pc, #53477376	; 0x3300000
    1c90:	00326970 	eorseq	r6, r2, r0, ror r9
    1c94:	2e2f2e2e 	cdpcs	14, 2, cr2, cr15, cr14, {1}
    1c98:	2e2e2f2e 	cdpcs	15, 2, cr2, cr14, cr14, {1}
    1c9c:	2f2e2e2f 	svccs	0x002e2e2f
    1ca0:	2e2f2e2e 	cdpcs	14, 2, cr2, cr15, cr14, {1}
    1ca4:	616d2f2e 	cmnvs	sp, lr, lsr #30
    1ca8:	6e696863 	cdpvs	8, 6, cr6, cr9, cr3, {3}
    1cac:	632f7365 			; <UNDEFINED> instruction: 0x632f7365
    1cb0:	6574726f 	ldrbvs	r7, [r4, #-623]!	; 0x26f
    1cb4:	00612d78 	rsbeq	r2, r1, r8, ror sp
    1cb8:	69707200 	ldmdbvs	r0!, {r9, ip, sp, lr}^
    1cbc:	72745f32 	rsbsvc	r5, r4, #50, 30	; 0xc8
    1cc0:	2e656361 	cdpcs	3, 6, cr6, cr5, cr1, {3}
    1cc4:	00010063 	andeq	r0, r1, r3, rrx
    1cc8:	6c707400 	cfldrdvs	mvd7, [r0], #-0
    1ccc:	5f736f5f 	svcpl	0x00736f5f
    1cd0:	5f647473 	svcpl	0x00647473
    1cd4:	65707974 	ldrbvs	r7, [r0, #-2420]!	; 0x974
    1cd8:	00682e73 	rsbeq	r2, r8, r3, ror lr
    1cdc:	00000002 	andeq	r0, r0, r2
    1ce0:	00020500 	andeq	r0, r2, r0, lsl #10
    1ce4:	03000089 	movweq	r0, #137	; 0x89
    1ce8:	684c0115 	stmdavs	ip, {r0, r2, r4, r8}^
    1cec:	684d684c 	stmdavs	sp, {r2, r3, r6, fp, sp, lr}^
    1cf0:	684d6886 	stmdavs	sp, {r1, r2, r7, fp, sp, lr}^
    1cf4:	684d684d 	stmdavs	sp, {r0, r2, r3, r6, fp, sp, lr}^
    1cf8:	684d684d 	stmdavs	sp, {r0, r2, r3, r6, fp, sp, lr}^
    1cfc:	684d6885 	stmdavs	sp, {r0, r2, r7, fp, sp, lr}^
    1d00:	6769684d 	strbvs	r6, [r9, -sp, asr #16]!
    1d04:	67676767 	strbvs	r6, [r7, -r7, ror #14]!
    1d08:	67676767 	strbvs	r6, [r7, -r7, ror #14]!
    1d0c:	67676767 	strbvs	r6, [r7, -r7, ror #14]!
    1d10:	68676767 	stmdavs	r7!, {r0, r1, r2, r5, r6, r8, r9, sl, sp, lr}^
    1d14:	0067d767 	rsbeq	sp, r7, r7, ror #14
    1d18:	63020402 	movwvs	r0, #9218	; 0x2402
    1d1c:	01040200 	mrseq	r0, R12_usr
    1d20:	6c066606 	stcvs	6, cr6, [r6], {6}
    1d24:	d7674b4b 	strble	r4, [r7, -fp, asr #22]!
    1d28:	04020067 	streq	r0, [r2], #-103	; 0x67
    1d2c:	02006302 	andeq	r6, r0, #134217728	; 0x8000000
    1d30:	66060104 	strvs	r0, [r6], -r4, lsl #2
    1d34:	4c4b6c06 	mcrrmi	12, 0, r6, fp, cr6
    1d38:	674b4c67 	strbvs	r4, [fp, -r7, ror #24]
    1d3c:	4b306767 	blmi	c1bae0 <__SP_usr_+0xbbc060>
    1d40:	674b3067 	strbvs	r3, [fp, -r7, rrx]
    1d44:	02674b30 	rsbeq	r4, r7, #48, 22	; 0xc000
    1d48:	01010002 	tsteq	r1, r2
    1d4c:	00000130 	andeq	r0, r0, r0, lsr r1
    1d50:	009b0002 	addseq	r0, fp, r2
    1d54:	01020000 	mrseq	r0, (UNDEF: 2)
    1d58:	000d0efb 	strdeq	r0, [sp], -fp
    1d5c:	01010101 	tsteq	r1, r1, lsl #2
    1d60:	01000000 	mrseq	r0, (UNDEF: 0)
    1d64:	2e010000 	cdpcs	0, 0, cr0, cr1, cr0, {0}
    1d68:	2e2e2f2e 	cdpcs	15, 2, cr2, cr14, cr14, {1}
    1d6c:	2f2e2e2f 	svccs	0x002e2e2f
    1d70:	2e2f2e2e 	cdpcs	14, 2, cr2, cr15, cr14, {1}
    1d74:	2e2e2f2e 	cdpcs	15, 2, cr2, cr14, cr14, {1}
    1d78:	63616d2f 	cmnvs	r1, #3008	; 0xbc0
    1d7c:	656e6968 	strbvs	r6, [lr, #-2408]!	; 0x968
    1d80:	6f632f73 	svcvs	0x00632f73
    1d84:	78657472 	stmdavc	r5!, {r1, r4, r5, r6, sl, ip, sp, lr}^
    1d88:	612f612d 			; <UNDEFINED> instruction: 0x612f612d
    1d8c:	37766d72 			; <UNDEFINED> instruction: 0x37766d72
    1d90:	6d63622f 	sfmvs	f6, 2, [r3, #-188]!	; 0xffffff44
    1d94:	36333832 			; <UNDEFINED> instruction: 0x36333832
    1d98:	6970722f 	ldmdbvs	r0!, {r0, r1, r2, r3, r5, r9, ip, sp, lr}^
    1d9c:	72642f32 	rsbvc	r2, r4, #50, 30	; 0xc8
    1da0:	72657669 	rsbvc	r7, r5, #110100480	; 0x6900000
    1da4:	2e2e0073 	mcrcs	0, 1, r0, cr14, cr3, {3}
    1da8:	2f2e2e2f 	svccs	0x002e2e2f
    1dac:	2e2f2e2e 	cdpcs	14, 2, cr2, cr15, cr14, {1}
    1db0:	2e2e2f2e 	cdpcs	15, 2, cr2, cr14, cr14, {1}
    1db4:	2f2e2e2f 	svccs	0x002e2e2f
    1db8:	6863616d 	stmdavs	r3!, {r0, r2, r3, r5, r6, r8, sp, lr}^
    1dbc:	73656e69 	cmnvc	r5, #1680	; 0x690
    1dc0:	726f632f 	rsbvc	r6, pc, #-1140850688	; 0xbc000000
    1dc4:	2d786574 	cfldr64cs	mvdx6, [r8, #-464]!	; 0xfffffe30
    1dc8:	72000061 	andvc	r0, r0, #97	; 0x61
    1dcc:	5f326970 	svcpl	0x00326970
    1dd0:	74726175 	ldrbtvc	r6, [r2], #-373	; 0x175
    1dd4:	0100632e 	tsteq	r0, lr, lsr #6
    1dd8:	70740000 	rsbsvc	r0, r4, r0
    1ddc:	736f5f6c 	cmnvc	pc, #108, 30	; 0x1b0
    1de0:	6474735f 	ldrbtvs	r7, [r4], #-863	; 0x35f
    1de4:	7079745f 	rsbsvc	r7, r9, pc, asr r4
    1de8:	682e7365 	stmdavs	lr!, {r0, r2, r5, r6, r8, r9, ip, sp, lr}
    1dec:	00000200 	andeq	r0, r0, r0, lsl #4
    1df0:	02050000 	andeq	r0, r5, #0
    1df4:	00008c34 	andeq	r8, r0, r4, lsr ip
    1df8:	84010b03 	strhi	r0, [r1], #-2819	; 0xb03
    1dfc:	83836968 	orrhi	r6, r3, #104, 18	; 0x1a0000
    1e00:	83838383 	orrhi	r8, r3, #201326594	; 0xc000002
    1e04:	67838383 	strvs	r8, [r3, r3, lsl #7]
    1e08:	83676767 	cmnhi	r7, #27000832	; 0x19c0000
    1e0c:	04020083 	streq	r0, [r2], #-131	; 0x83
    1e10:	00660603 	rsbeq	r0, r6, r3, lsl #12
    1e14:	9e010402 	cdpls	4, 0, cr0, cr1, cr2, {0}
    1e18:	00836706 	addeq	r6, r3, r6, lsl #14
    1e1c:	06030402 	streq	r0, [r3], -r2, lsl #8
    1e20:	04020066 	streq	r0, [r2], #-102	; 0x66
    1e24:	67069e01 	strvs	r9, [r6, -r1, lsl #28]
    1e28:	82100383 	andshi	r0, r0, #201326594	; 0xc000002
    1e2c:	2f4c834d 	svccs	0x004c834d
    1e30:	842fbe65 	strthi	fp, [pc], #-3685	; 1e38 <unused+0x1e34>
    1e34:	032fd7a1 			; <UNDEFINED> instruction: 0x032fd7a1
    1e38:	0b038209 	bleq	e2664 <__SP_usr_+0x82be4>
    1e3c:	0200bd66 	andeq	fp, r0, #6528	; 0x1980
    1e40:	00670304 	rsbeq	r0, r7, r4, lsl #6
    1e44:	b9030402 	stmdblt	r3, {r1, sl}
    1e48:	01040200 	mrseq	r0, R12_usr
    1e4c:	85066606 	strhi	r6, [r6, #-1542]	; 0x606
    1e50:	4bbb834d 	blmi	feee2b8c <__SP_usr_+0xfee8310c>
    1e54:	bb834d4b 	bllt	fe0d5388 <__SP_usr_+0xfe075908>
    1e58:	15034c4d 	strne	r4, [r3, #-3149]	; 0xc4d
    1e5c:	4d876982 	stcmi	9, cr6, [r7, #520]	; 0x208
    1e60:	02009f67 	andeq	r9, r0, #412	; 0x19c
    1e64:	66060104 	strvs	r0, [r6], -r4, lsl #2
    1e68:	02040200 	andeq	r0, r4, #0, 4
    1e6c:	83670682 	cmnhi	r7, #136314880	; 0x8200000
    1e70:	4d4b2f83 	stclmi	15, cr2, [fp, #-524]	; 0xfffffdf4
    1e74:	4b4b4b83 	blmi	12d4c88 <__SP_usr_+0x1275208>
    1e78:	024b4b4c 	subeq	r4, fp, #76, 22	; 0x13000
    1e7c:	01010002 	tsteq	r1, r2

Disassembly of section .debug_str:

00000000 <.debug_str>:
       0:	5f6c7074 	svcpl	0x006c7074
       4:	6e657665 	cdpvs	6, 6, cr7, cr5, cr5, {3}
       8:	616d5f74 	smcvs	54772	; 0xd5f4
       c:	75006b73 	strvc	r6, [r0, #-2931]	; 0xb73
      10:	31746e69 	cmncc	r4, r9, ror #28
      14:	70740036 	rsbsvc	r0, r4, r6, lsr r0
      18:	72705f6c 	rsbsvc	r5, r0, #108, 30	; 0x1b0
      1c:	735f636f 	cmpvc	pc, #-1140850687	; 0xbc000001
      20:	65746174 	ldrbvs	r6, [r4, #-372]!	; 0x174
      24:	6c707400 	cfldrdvs	mvd7, [r0], #-0
      28:	6c61635f 	stclvs	3, cr6, [r1], #-380	; 0xfffffe84
      2c:	65745f6c 	ldrbvs	r5, [r4, #-3948]!	; 0xf6c
      30:	6e696d72 	mcrvs	13, 3, r6, cr9, cr2, {3}
      34:	5f657461 	svcpl	0x00657461
      38:	6b736174 	blvs	1cd8610 <__SP_usr_+0x1c78b90>
      3c:	7265735f 	rsbvc	r7, r5, #2080374785	; 0x7c000001
      40:	65636976 	strbvs	r6, [r3, #-2422]!	; 0x976
      44:	6c707400 	cfldrdvs	mvd7, [r0], #-0
      48:	6e61725f 	mcrvs	2, 3, r7, cr1, cr15, {2}
      4c:	6f635f6b 	svcvs	0x00635f6b
      50:	00746e75 	rsbseq	r6, r4, r5, ror lr
      54:	5f6c7074 	svcpl	0x006c7074
      58:	74617473 	strbtvc	r7, [r1], #-1139	; 0x473
      5c:	6f72705f 	svcvs	0x0072705f
      60:	61745f63 	cmnvs	r4, r3, ror #30
      64:	00656c62 	rsbeq	r6, r5, r2, ror #24
      68:	65736162 	ldrbvs	r6, [r3, #-354]!	; 0x162
      6c:	6972705f 	ldmdbvs	r2!, {r0, r1, r2, r3, r4, r6, ip, sp, lr}^
      70:	7469726f 	strbtvc	r7, [r9], #-623	; 0x26f
      74:	5f730079 	svcpl	0x00730079
      78:	6b736174 	blvs	1cd8650 <__SP_usr_+0x1c78bd0>
      7c:	72696600 	rsbvc	r6, r9, #0, 12
      80:	745f7473 	ldrbvc	r7, [pc], #-1139	; 88 <unused+0x84>
      84:	6f00706d 	svcvs	0x0000706d
      88:	72656e77 	rsbvc	r6, r5, #1904	; 0x770
      8c:	6572705f 	ldrbvs	r7, [r2, #-95]!	; 0x5f
      90:	72705f76 	rsbsvc	r5, r0, #472	; 0x1d8
      94:	69726f69 	ldmdbvs	r2!, {r0, r3, r5, r6, r8, r9, sl, fp, sp, lr}^
      98:	54007974 	strpl	r7, [r0], #-2420	; 0x974
      9c:	545f4c50 	ldrbpl	r4, [pc], #-3152	; a4 <unused+0xa0>
      a0:	5f454d49 	svcpl	0x00454d49
      a4:	004a424f 	subeq	r4, sl, pc, asr #4
      a8:	5f4c5054 	svcpl	0x004c5054
      ac:	434f5250 	movtmi	r5, #62032	; 0xf250
      b0:	4154535f 	cmpmi	r4, pc, asr r3
      b4:	00434954 	subeq	r4, r3, r4, asr r9
      b8:	5f6c7074 	svcpl	0x006c7074
      bc:	6f697270 	svcvs	0x00697270
      c0:	79746972 	ldmdbvc	r4!, {r1, r4, r5, r6, r8, fp, sp, lr}^
      c4:	6e6f6c00 	cdpvs	12, 6, cr6, cr15, cr0, {0}
      c8:	6f6c2067 	svcvs	0x006c2067
      cc:	7520676e 	strvc	r6, [r0, #-1902]!	; 0x76e
      d0:	6769736e 	strbvs	r7, [r9, -lr, ror #6]!
      d4:	2064656e 	rsbcs	r6, r4, lr, ror #10
      d8:	00746e69 	rsbseq	r6, r4, r9, ror #28
      dc:	68746166 	ldmdavs	r4!, {r1, r2, r5, r6, r8, sp, lr}^
      e0:	74007265 	strvc	r7, [r0], #-613	; 0x265
      e4:	725f6c70 	subsvc	r6, pc, #112, 24	; 0x7000
      e8:	61656c65 	cmnvs	r5, r5, ror #24
      ec:	695f6573 	ldmdbvs	pc, {r0, r1, r4, r5, r6, r8, sl, sp, lr}^	; <UNPREDICTABLE>
      f0:	7265746e 	rsbvc	r7, r5, #1845493760	; 0x6e000000
      f4:	5f6c616e 	svcpl	0x006c616e
      f8:	6f736572 	svcvs	0x00736572
      fc:	65637275 	strbvs	r7, [r3, #-629]!	; 0x275
     100:	6c707400 	cfldrdvs	mvd7, [r0], #-0
     104:	7265745f 	rsbvc	r7, r5, #1593835520	; 0x5f000000
     108:	616e696d 	cmnvs	lr, sp, ror #18
     10c:	63006574 	movwvs	r6, #1396	; 0x574
     110:	65727275 	ldrbvs	r7, [r2, #-629]!	; 0x275
     114:	745f746e 	ldrbvc	r7, [pc], #-1134	; 11c <unused+0x118>
     118:	006b6369 	rsbeq	r6, fp, r9, ror #6
     11c:	5f6c7074 	svcpl	0x006c7074
     120:	656d6974 	strbvs	r6, [sp, #-2420]!	; 0x974
     124:	6a626f5f 	bvs	189bea8 <__SP_usr_+0x183c428>
     128:	6174735f 	cmnvs	r4, pc, asr r3
     12c:	72006574 	andvc	r6, r0, #116, 10	; 0x1d000000
     130:	74686769 	strbtvc	r6, [r8], #-1897	; 0x769
     134:	6c707400 	cfldrdvs	mvd7, [r0], #-0
     138:	7465675f 	strbtvc	r6, [r5], #-1887	; 0x75f
     13c:	746e695f 	strbtvc	r6, [lr], #-2399	; 0x95f
     140:	616e7265 	cmnvs	lr, r5, ror #4
     144:	65725f6c 	ldrbvs	r5, [r2, #-3948]!	; 0xf6c
     148:	72756f73 	rsbsvc	r6, r5, #460	; 0x1cc
     14c:	6c006563 	cfstr32vs	mvfx6, [r0], {99}	; 0x63
     150:	20676e6f 	rsbcs	r6, r7, pc, ror #28
     154:	676e6f6c 	strbvs	r6, [lr, -ip, ror #30]!
     158:	746e6920 	strbtvc	r6, [lr], #-2336	; 0x920
     15c:	65727000 	ldrbvs	r7, [r2, #-0]!
     160:	6f745f76 	svcvs	0x00745f76
     164:	6c707400 	cfldrdvs	mvd7, [r0], #-0
     168:	6165685f 	cmnvs	r5, pc, asr r8
     16c:	6e655f70 	mcrvs	15, 3, r5, cr5, cr0, {3}
     170:	00797274 	rsbseq	r7, r9, r4, ror r2
     174:	6e6e7572 	mcrvs	5, 3, r7, cr14, cr2, {3}
     178:	5f676e69 	svcpl	0x00676e69
     17c:	54006469 	strpl	r6, [r0], #-1129	; 0x469
     180:	505f4c50 	subspl	r4, pc, r0, asr ip	; <UNPREDICTABLE>
     184:	00434f52 	subeq	r4, r3, r2, asr pc
     188:	6465656e 	strbtvs	r6, [r5], #-1390	; 0x56e
     18c:	6863735f 	stmdavs	r3!, {r0, r1, r2, r3, r4, r6, r8, r9, ip, sp, lr}^
     190:	6c756465 	cfldrdvs	mvd6, [r5], #-404	; 0xfffffe6c
     194:	70740065 	rsbsvc	r0, r4, r5, rrx
     198:	72665f6c 	rsbvc	r5, r6, #108, 30	; 0x1b0
     19c:	5f746e6f 	svcpl	0x00746e6f
     1a0:	636f7270 	cmnvs	pc, #112, 4
     1a4:	6c707400 	cfldrdvs	mvd7, [r0], #-0
     1a8:	72656b5f 	rsbvc	r6, r5, #97280	; 0x17c00
     1ac:	6975006e 	ldmdbvs	r5!, {r1, r2, r3, r5, r6}^
     1b0:	0038746e 	eorseq	r7, r8, lr, ror #8
     1b4:	5f6c7074 	svcpl	0x006c7074
     1b8:	62627562 	rsbvs	r7, r2, #411041792	; 0x18800000
     1bc:	645f656c 	ldrbvs	r6, [pc], #-1388	; 1c4 <unused+0x1c0>
     1c0:	006e776f 	rsbeq	r7, lr, pc, ror #14
     1c4:	5f707061 	svcpl	0x00707061
     1c8:	65646f6d 	strbvs	r6, [r4, #-3949]!	; 0xf6d
     1cc:	73616d5f 	cmnvc	r1, #6080	; 0x17c0
     1d0:	696d006b 	stmdbvs	sp!, {r0, r1, r3, r5, r6}^
     1d4:	79635f6e 	stmdbvc	r3!, {r1, r2, r3, r5, r6, r8, r9, sl, fp, ip, lr}^
     1d8:	00656c63 	rsbeq	r6, r5, r3, ror #24
     1dc:	746e6975 	strbtvc	r6, [lr], #-2421	; 0x975
     1e0:	54003233 	strpl	r3, [r0], #-563	; 0x233
     1e4:	435f4c50 	cmpmi	pc, #80, 24	; 0x5000
     1e8:	544e554f 	strbpl	r5, [lr], #-1359	; 0x54f
     1ec:	74005245 	strvc	r5, [r0], #-581	; 0x245
     1f0:	695f6c70 	ldmdbvs	pc, {r4, r5, r6, sl, fp, sp, lr}^	; <UNPREDICTABLE>
     1f4:	5f74696e 	svcpl	0x0074696e
     1f8:	7300736f 	movwvc	r7, #879	; 0x36f
     1fc:	656c655f 	strbvs	r6, [ip, #-1375]!	; 0x55f
     200:	64657463 	strbtvs	r7, [r5], #-1123	; 0x463
     204:	6b617400 	blvs	185d20c <__SP_usr_+0x17fd78c>
     208:	69006e65 	stmdbvs	r0, {r0, r2, r5, r6, r9, sl, fp, sp, lr}
     20c:	6d6f636e 	stclvs	3, cr6, [pc, #-440]!	; 5c <unused+0x58>
     210:	5f676e69 	svcpl	0x00676e69
     214:	6e657665 	cdpvs	6, 6, cr7, cr5, cr5, {3}
     218:	61730074 	cmnvs	r3, r4, ror r0
     21c:	74006576 	strvc	r6, [r0], #-1398	; 0x576
     220:	745f6c70 	ldrbvc	r6, [pc], #-3184	; 228 <unused+0x224>
     224:	006b6369 	rsbeq	r6, fp, r9, ror #6
     228:	5f6c7074 	svcpl	0x006c7074
     22c:	5f747570 	svcpl	0x00747570
     230:	65657270 	strbvs	r7, [r5, #-624]!	; 0x270
     234:	6574706d 	ldrbvs	r7, [r4, #-109]!	; 0x6d
     238:	72705f64 	rsbsvc	r5, r0, #100, 30	; 0x190
     23c:	7400636f 	strvc	r6, [r0], #-879	; 0x36f
     240:	625f6c70 	subsvs	r6, pc, #112, 24	; 0x7000
     244:	6b636f6c 	blvs	18dbffc <__SP_usr_+0x187c57c>
     248:	6c707400 	cfldrdvs	mvd7, [r0], #-0
     24c:	6f72705f 	svcvs	0x0072705f
     250:	74735f63 	ldrbtvc	r5, [r3], #-3939	; 0xf63
     254:	63697461 	cmnvs	r9, #1627389952	; 0x61000000
     258:	74756100 	ldrbtvc	r6, [r5], #-256	; 0x100
     25c:	69745f6f 	ldmdbvs	r4!, {r0, r1, r2, r3, r5, r6, r8, r9, sl, fp, ip, lr}^
     260:	6f5f656d 	svcvs	0x005f656d
     264:	64006a62 	strvs	r6, [r0], #-2658	; 0xa62
     268:	705f6e79 	subsvc	r6, pc, r9, ror lr	; <UNPREDICTABLE>
     26c:	006f6972 	rsbeq	r6, pc, r2, ror r9	; <UNPREDICTABLE>
     270:	5f78616d 	svcpl	0x0078616d
     274:	69746361 	ldmdbvs	r4!, {r0, r5, r6, r8, r9, sp, lr}^
     278:	65746176 	ldrbvs	r6, [r4, #-374]!	; 0x176
     27c:	756f635f 	strbvc	r6, [pc, #-863]!	; ffffff25 <__SP_usr_+0xfffa04a5>
     280:	7300746e 	movwvc	r7, #1134	; 0x46e
     284:	5f746174 	svcpl	0x00746174
     288:	74726170 	ldrbtvc	r6, [r2], #-368	; 0x170
     28c:	2f2e2e00 	svccs	0x002e2e00
     290:	2e2f2e2e 	cdpcs	14, 2, cr2, cr15, cr14, {1}
     294:	2e2e2f2e 	cdpcs	15, 2, cr2, cr14, cr14, {1}
     298:	2f2e2e2f 	svccs	0x002e2e2f
     29c:	6f2f2e2e 	svcvs	0x002f2e2e
     2a0:	70742f73 	rsbsvc	r2, r4, r3, ror pc
     2a4:	736f5f6c 	cmnvc	pc, #108, 30	; 0x1b0
     2a8:	72656b5f 	rsbvc	r6, r5, #97280	; 0x17c00
     2ac:	2e6c656e 	cdpcs	5, 6, cr6, cr12, cr14, {3}
     2b0:	656e0063 	strbvs	r0, [lr, #-99]!	; 0x63
     2b4:	735f6465 	cmpvc	pc, #1694498816	; 0x65000000
     2b8:	63746977 	cmnvs	r4, #1949696	; 0x1dc000
     2bc:	70740068 	rsbsvc	r0, r4, r8, rrx
     2c0:	69745f6c 	ldmdbvs	r4!, {r2, r3, r5, r6, r8, r9, sl, fp, ip, lr}^
     2c4:	6f5f656d 	svcvs	0x005f656d
     2c8:	735f6a62 	cmpvc	pc, #401408	; 0x62000
     2cc:	69746174 	ldmdbvs	r4!, {r2, r4, r5, r6, r8, sp, lr}^
     2d0:	70740063 	rsbsvc	r0, r4, r3, rrx
     2d4:	74735f6c 	ldrbtvc	r5, [r3], #-3948	; 0xf6c
     2d8:	73757461 	cmnvc	r5, #1627389952	; 0x61000000
     2dc:	6f687300 	svcvs	0x00687300
     2e0:	75207472 	strvc	r7, [r0, #-1138]!	; 0x472
     2e4:	6769736e 	strbvs	r7, [r9, -lr, ror #6]!
     2e8:	2064656e 	rsbcs	r6, r4, lr, ror #10
     2ec:	00746e69 	rsbseq	r6, r4, r9, ror #28
     2f0:	69707865 	ldmdbvs	r0!, {r0, r2, r5, r6, fp, ip, sp, lr}^
     2f4:	74006572 	strvc	r6, [r0], #-1394	; 0x572
     2f8:	6b5f6c70 	blvs	17db4c0 <__SP_usr_+0x177ba40>
     2fc:	5f6e7265 	svcpl	0x006e7265
     300:	74617473 	strbtvc	r7, [r1], #-1139	; 0x473
     304:	70740065 	rsbsvc	r0, r4, r5, rrx
     308:	72705f6c 	rsbsvc	r5, r0, #108, 30	; 0x1b0
     30c:	745f636f 	ldrbvc	r6, [pc], #-879	; 314 <unused+0x310>
     310:	00657079 	rsbeq	r7, r5, r9, ror r0
     314:	41564e49 	cmpmi	r6, r9, asr #28
     318:	5f44494c 	svcpl	0x0044494c
     31c:	4b534154 	blmi	14d0874 <__SP_usr_+0x1470df4>
     320:	6c707400 	cfldrdvs	mvd7, [r0], #-0
     324:	5f736f5f 	svcpl	0x00736f5f
     328:	74617473 	strbtvc	r7, [r1], #-1139	; 0x473
     32c:	65730065 	ldrbvs	r0, [r3, #-101]!	; 0x65
     330:	646e6f63 	strbtvs	r6, [lr], #-3939	; 0xf63
     334:	79656b5f 	stmdbvc	r5!, {r0, r1, r2, r3, r4, r6, r8, r9, fp, sp, lr}^
     338:	6c707400 	cfldrdvs	mvd7, [r0], #-0
     33c:	7463615f 	strbtvc	r6, [r3], #-351	; 0x15f
     340:	74617669 	strbtvc	r7, [r1], #-1641	; 0x669
     344:	6f635f65 	svcvs	0x00635f65
     348:	65746e75 	ldrbvs	r6, [r4, #-3701]!	; 0xe75
     34c:	70740072 	rsbsvc	r0, r4, r2, ror r0
     350:	75725f6c 	ldrbvc	r5, [r2, #-3948]!	; 0xf6c
     354:	6c655f6e 	stclvs	15, cr5, [r5], #-440	; 0xfffffe48
     358:	65746365 	ldrbvs	r6, [r4, #-869]!	; 0x365
     35c:	69730064 	ldmdbvs	r3!, {r2, r5, r6}^
     360:	7974657a 	ldmdbvc	r4!, {r1, r3, r4, r5, r6, r8, sl, sp, lr}^
     364:	74006570 	strvc	r6, [r0], #-1392	; 0x570
     368:	735f6c70 	cmpvc	pc, #112, 24	; 0x7000
     36c:	6b636174 	blvs	18d8944 <__SP_usr_+0x1878ec4>
     370:	7a69735f 	bvc	1a5d0f4 <__SP_usr_+0x19fd674>
     374:	70740065 	rsbsvc	r0, r4, r5, rrx
     378:	63735f6c 	cmnvs	r3, #108, 30	; 0x1b0
     37c:	75646568 	strbvc	r6, [r4, #-1384]!	; 0x568
     380:	665f656c 	ldrbvs	r6, [pc], -ip, ror #10
     384:	5f6d6f72 	svcpl	0x006d6f72
     388:	6e6e7572 	mcrvs	5, 3, r7, cr14, cr2, {3}
     38c:	00676e69 	rsbeq	r6, r7, r9, ror #28
     390:	45544e49 	ldrbmi	r4, [r4, #-3657]	; 0xe49
     394:	4c414e52 	mcrrmi	14, 5, r4, r1, cr2
     398:	5345525f 	movtpl	r5, #21087	; 0x525f
     39c:	4843535f 	stmdami	r3, {r0, r1, r2, r3, r4, r6, r8, r9, ip, lr}^
     3a0:	4c554445 	cfldrdmi	mvd4, [r5], {69}	; 0x45
     3a4:	74005245 	strvc	r5, [r0], #-581	; 0x245
     3a8:	635f6c70 	cmpvs	pc, #112, 24	; 0x7000
     3ac:	65746e6f 	ldrbvs	r6, [r4, #-3695]!	; 0xe6f
     3b0:	63007478 	movwvs	r7, #1144	; 0x478
     3b4:	65727275 	ldrbvs	r7, [r2, #-629]!	; 0x275
     3b8:	645f746e 	ldrbvs	r7, [pc], #-1134	; 3c0 <unused+0x3bc>
     3bc:	00657461 	rsbeq	r7, r5, r1, ror #8
     3c0:	6b636974 	blvs	18da998 <__SP_usr_+0x187af18>
     3c4:	65705f73 	ldrbvs	r5, [r0, #-3955]!	; 0xf73
     3c8:	61625f72 	smcvs	9714	; 0x25f2
     3cc:	54006573 	strpl	r6, [r0], #-1395	; 0x573
     3d0:	525f4c50 	subspl	r4, pc, #80, 24	; 0x5000
     3d4:	554f5345 	strbpl	r5, [pc, #-837]	; 97 <unused+0x93>
     3d8:	00454352 	subeq	r4, r5, r2, asr r3
     3dc:	5f6c7074 	svcpl	0x006c7074
     3e0:	6c696174 	stfvse	f6, [r9], #-464	; 0xfffffe30
     3e4:	726f665f 	rsbvc	r6, pc, #99614720	; 0x5f00000
     3e8:	6972705f 	ldmdbvs	r2!, {r0, r1, r2, r3, r4, r6, ip, sp, lr}^
     3ec:	6966006f 	stmdbvs	r6!, {r0, r1, r2, r3, r5, r6}^
     3f0:	5f747372 	svcpl	0x00747372
     3f4:	66006f74 			; <UNDEFINED> instruction: 0x66006f74
     3f8:	74737269 	ldrbtvc	r7, [r3], #-617	; 0x269
     3fc:	746e655f 	strbtvc	r6, [lr], #-1375	; 0x55f
     400:	74007972 	strvc	r7, [r0], #-2418	; 0x972
     404:	615f6c70 	cmpvs	pc, r0, ror ip	; <UNPREDICTABLE>
     408:	696c7070 	stmdbvs	ip!, {r4, r5, r6, ip, sp, lr}^
     40c:	69746163 	ldmdbvs	r4!, {r0, r1, r5, r6, r8, sp, lr}^
     410:	6d5f6e6f 	ldclvs	14, cr6, [pc, #-444]	; 25c <unused+0x258>
     414:	0065646f 	rsbeq	r6, r5, pc, ror #8
     418:	73726966 	cmnvc	r2, #1671168	; 0x198000
     41c:	656b5f74 	strbvs	r5, [fp, #-3956]!	; 0xf74
     420:	4e490079 	mcrmi	0, 2, r0, cr9, cr9, {3}
     424:	494c4156 	stmdbmi	ip, {r1, r2, r4, r6, r8, lr}^
     428:	52505f44 	subspl	r5, r0, #68, 30	; 0x110
     42c:	7400434f 	strvc	r4, [r0], #-847	; 0x34f
     430:	745f6c70 	ldrbvc	r6, [pc], #-3184	; 438 <unused+0x434>
     434:	5f656d69 	svcpl	0x00656d69
     438:	006a626f 	rsbeq	r6, sl, pc, ror #4
     43c:	5f6c7074 	svcpl	0x006c7074
     440:	636f7270 	cmnvs	pc, #112, 4
     444:	6e75665f 	mrcvs	6, 3, r6, cr5, cr15, {2}
     448:	6f697463 	svcvs	0x00697463
     44c:	6e75006e 	cdpvs	0, 7, cr0, cr5, cr14, {3}
     450:	6e676973 	mcrvs	9, 3, r6, cr7, cr3, {3}
     454:	63206465 			; <UNDEFINED> instruction: 0x63206465
     458:	00726168 	rsbseq	r6, r2, r8, ror #2
     45c:	5f4d5241 	svcpl	0x004d5241
     460:	544e4f43 	strbpl	r4, [lr], #-3907	; 0xf43
     464:	00545845 	subseq	r5, r4, r5, asr #16
     468:	6c696863 	stclvs	8, cr6, [r9], #-396	; 0xfffffe74
     46c:	70740064 	rsbsvc	r0, r4, r4, rrx
     470:	6e695f6c 	cdpvs	15, 6, cr5, cr9, cr12, {3}
     474:	705f7469 	subsvc	r7, pc, r9, ror #8
     478:	00636f72 	rsbeq	r6, r3, r2, ror pc
     47c:	74617453 	strbtvc	r7, [r1], #-1107	; 0x453
     480:	79547375 	ldmdbvc	r4, {r0, r2, r4, r5, r6, r8, r9, ip, sp, lr}^
     484:	74006570 	strvc	r6, [r0], #-1392	; 0x570
     488:	745f6c70 	ldrbvc	r6, [pc], #-3184	; 490 <unused+0x48c>
     48c:	5f6b7361 	svcpl	0x006b7361
     490:	5f707061 	svcpl	0x00707061
     494:	65646f6d 	strbvs	r6, [r4, #-3949]!	; 0xf6d
     498:	4c505400 	cfldrdmi	mvd5, [r0], {-0}
     49c:	4154535f 	cmpmi	r4, pc, asr r3
     4a0:	73004b43 	movwvc	r4, #2883	; 0xb43
     4a4:	74726f68 	ldrbtvc	r6, [r2], #-3944	; 0xf68
     4a8:	746e6920 	strbtvc	r6, [lr], #-2336	; 0x920
     4ac:	78616d00 	stmdavc	r1!, {r8, sl, fp, sp, lr}^
     4b0:	6c6c615f 	stfvse	f6, [ip], #-380	; 0xfffffe84
     4b4:	6465776f 	strbtvs	r7, [r5], #-1903	; 0x76f
     4b8:	6c61765f 	stclvs	6, cr7, [r1], #-380	; 0xfffffe84
     4bc:	74006575 	strvc	r6, [r0], #-1397	; 0x575
     4c0:	705f6c70 	subsvc	r6, pc, r0, ror ip	; <UNPREDICTABLE>
     4c4:	00636f72 	rsbeq	r6, r3, r2, ror pc
     4c8:	5f6c7074 	svcpl	0x006c7074
     4cc:	72727563 	rsbsvc	r7, r2, #415236096	; 0x18c00000
     4d0:	5f746e65 	svcpl	0x00746e65
     4d4:	735f736f 	cmpvc	pc, #-1140850687	; 0xbc000001
     4d8:	65746174 	ldrbvs	r6, [r4, #-372]!	; 0x174
     4dc:	6c707400 	cfldrdvs	mvd7, [r0], #-0
     4e0:	6c61635f 	stclvs	3, cr6, [r1], #-380	; 0xfffffe84
     4e4:	65745f6c 	ldrbvs	r5, [r4, #-3948]!	; 0xf6c
     4e8:	6e696d72 	mcrvs	13, 3, r6, cr9, cr2, {3}
     4ec:	5f657461 	svcpl	0x00657461
     4f0:	32727369 	rsbscc	r7, r2, #-1543503871	; 0xa4000001
     4f4:	7265735f 	rsbvc	r7, r5, #2080374785	; 0x7c000001
     4f8:	65636976 	strbvs	r6, [r3, #-2422]!	; 0x976
     4fc:	6e697300 	cdpvs	3, 6, cr7, cr9, cr0, {0}
     500:	00323374 	eorseq	r3, r2, r4, ror r3
     504:	5f6c7074 	svcpl	0x006c7074
     508:	72617473 	rsbvc	r7, r1, #1929379840	; 0x73000000
     50c:	63735f74 	cmnvs	r3, #116, 30	; 0x1d0
     510:	75646568 	strbvc	r6, [r4, #-1384]!	; 0x568
     514:	676e696c 	strbvs	r6, [lr, -ip, ror #18]!
     518:	6c707400 	cfldrdvs	mvd7, [r0], #-0
     51c:	7078655f 	rsbsvc	r6, r8, pc, asr r5
     520:	5f657269 	svcpl	0x00657269
     524:	636e7566 	cmnvs	lr, #427819008	; 0x19800000
     528:	63657300 	cmnvs	r5, #0, 6
     52c:	5f646e6f 	svcpl	0x00646e6f
     530:	72746e65 	rsbsvc	r6, r4, #1616	; 0x650
     534:	776f0079 			; <UNDEFINED> instruction: 0x776f0079
     538:	0072656e 	rsbseq	r6, r2, lr, ror #10
     53c:	70616568 	rsbvc	r6, r1, r8, ror #10
     540:	6c707400 	cfldrdvs	mvd7, [r0], #-0
     544:	616c615f 	cmnvs	ip, pc, asr r1
     548:	745f6d72 	ldrbvc	r6, [pc], #-3442	; 550 <unused+0x54c>
     54c:	656c6261 	strbvs	r6, [ip, #-609]!	; 0x261
     550:	656c6500 	strbvs	r6, [ip, #-1280]!	; 0x500
     554:	64657463 	strbtvs	r7, [r5], #-1123	; 0x463
     558:	0064695f 	rsbeq	r6, r4, pc, asr r9
     55c:	5f6c7074 	svcpl	0x006c7074
     560:	72616c61 	rsbvc	r6, r1, #24832	; 0x6100
     564:	70615f6d 	rsbvc	r5, r1, sp, ror #30
     568:	6f6d5f70 	svcvs	0x006d5f70
     56c:	74006564 	strvc	r6, [r0], #-1380	; 0x564
     570:	735f6c70 	cmpvc	pc, #112, 24	; 0x7000
     574:	655f7465 	ldrbvs	r7, [pc, #-1125]	; 117 <unused+0x113>
     578:	746e6576 	strbtvc	r6, [lr], #-1398	; 0x576
     57c:	73552f00 	cmpvc	r5, #0, 30
     580:	2f737265 	svccs	0x00737265
     584:	69766144 	ldmdbvs	r6!, {r2, r6, r8, sp, lr}^
     588:	72614764 	rsbvc	r4, r1, #100, 14	; 0x1900000
     58c:	756f6972 	strbvc	r6, [pc, #-2418]!	; fffffc22 <__SP_usr_+0xfffa01a2>
     590:	7469472f 	strbtvc	r4, [r9], #-1839	; 0x72f
     594:	2f627548 	svccs	0x00627548
     598:	6d617274 	sfmvs	f7, 2, [r1, #-464]!	; 0xfffffe30
     59c:	696c6f70 	stmdbvs	ip!, {r4, r5, r6, r8, r9, sl, fp, sp, lr}^
     5a0:	652f656e 	strvs	r6, [pc, #-1390]!	; 3a <unused+0x36>
     5a4:	706d6178 	rsbvc	r6, sp, r8, ror r1
     5a8:	2f73656c 	svccs	0x0073656c
     5ac:	74726f63 	ldrbtvc	r6, [r2], #-3939	; 0xf63
     5b0:	612d7865 			; <UNDEFINED> instruction: 0x612d7865
     5b4:	6d72612f 	ldfvse	f6, [r2, #-188]!	; 0xffffff44
     5b8:	622f3776 	eorvs	r3, pc, #30932992	; 0x1d80000
     5bc:	38326d63 	ldmdacc	r2!, {r0, r1, r5, r6, r8, sl, fp, sp, lr}
     5c0:	722f3633 	eorvc	r3, pc, #53477376	; 0x3300000
     5c4:	2f326970 	svccs	0x00326970
     5c8:	6e696c62 	cdpvs	12, 6, cr6, cr9, cr2, {3}
     5cc:	54535f6b 	ldrbpl	r5, [r3], #-3947	; 0xf6b
     5d0:	5f545241 	svcpl	0x00545241
     5d4:	00515249 	subseq	r5, r1, r9, asr #4
     5d8:	65646e69 	strbvs	r6, [r4, #-3689]!	; 0xe69
     5dc:	70740078 	rsbsvc	r0, r4, r8, ror r0
     5e0:	6f625f6c 	svcvs	0x00625f6c
     5e4:	54006c6f 	strpl	r6, [r0], #-3183	; 0xc6f
     5e8:	545f4c50 	ldrbpl	r4, [pc], #-3152	; 5f0 <unused+0x5ec>
     5ec:	5f454d49 	svcpl	0x00454d49
     5f0:	5f4a424f 	svcpl	0x004a424f
     5f4:	54415453 	strbpl	r5, [r1], #-1107	; 0x453
     5f8:	74004349 	strvc	r4, [r0], #-841	; 0x349
     5fc:	705f6c70 	subsvc	r6, pc, r0, ror ip	; <UNPREDICTABLE>
     600:	5f636f72 	svcpl	0x00636f72
     604:	74006469 	strvc	r6, [r0], #-1129	; 0x469
     608:	645f6c70 	ldrbvs	r6, [pc], #-3184	; 610 <unused+0x60c>
     60c:	705f6e79 	subsvc	r6, pc, r9, ror lr	; <UNPREDICTABLE>
     610:	5f636f72 	svcpl	0x00636f72
     614:	6c626174 	stfvse	f6, [r2], #-464	; 0xfffffe30
     618:	6c6f0065 	stclvs	0, cr0, [pc], #-404	; 48c <unused+0x488>
     61c:	6f635f64 	svcvs	0x00635f64
     620:	7865746e 	stmdavc	r5!, {r1, r2, r3, r5, r6, sl, ip, sp, lr}^
     624:	70740074 	rsbsvc	r0, r4, r4, ror r0
     628:	75625f6c 	strbvc	r5, [r2, #-3948]!	; 0xf6c
     62c:	656c6262 	strbvs	r6, [ip, #-610]!	; 0x262
     630:	0070755f 	rsbseq	r7, r0, pc, asr r5
     634:	5f6c7074 	svcpl	0x006c7074
     638:	65746e69 	ldrbvs	r6, [r4, #-3689]!	; 0xe69
     63c:	6c616e72 	stclvs	14, cr6, [r1], #-456	; 0xfffffe38
     640:	7365725f 	cmnvc	r5, #-268435451	; 0xf0000005
     644:	6372756f 	cmnvs	r2, #465567744	; 0x1bc00000
     648:	70740065 	rsbsvc	r0, r4, r5, rrx
     64c:	74735f6c 	ldrbtvc	r5, [r3], #-3948	; 0xf6c
     650:	00747261 	rsbseq	r7, r4, r1, ror #4
     654:	6c696563 	cfstr64vs	mvdx6, [r9], #-396	; 0xfffffe74
     658:	5f676e69 	svcpl	0x00676e69
     65c:	6f697270 	svcvs	0x00697270
     660:	79746972 	ldmdbvc	r4!, {r1, r4, r5, r6, r8, fp, sp, lr}^
     664:	6c707400 	cfldrdvs	mvd7, [r0], #-0
     668:	6174735f 	cmnvs	r4, pc, asr r3
     66c:	74006b63 	strvc	r6, [r0], #-2915	; 0xb63
     670:	705f6c70 	subsvc	r6, pc, r0, ror ip	; <UNPREDICTABLE>
     674:	6e5f7475 	mrcvs	4, 2, r7, cr15, cr5, {3}
     678:	705f7765 	subsvc	r7, pc, r5, ror #14
     67c:	00636f72 	rsbeq	r6, r3, r2, ror pc
     680:	5f6c7074 	svcpl	0x006c7074
     684:	64616572 	strbtvs	r6, [r1], #-1394	; 0x572
     688:	696c5f79 	stmdbvs	ip!, {r0, r3, r4, r5, r6, r8, r9, sl, fp, ip, lr}^
     68c:	74007473 	strvc	r7, [r0], #-1139	; 0x473
     690:	635f6c70 	cmpvs	pc, #112, 24	; 0x7000
     694:	61706d6f 	cmnvs	r0, pc, ror #26
     698:	655f6572 	ldrbvs	r6, [pc, #-1394]	; 12e <unused+0x12a>
     69c:	6972746e 	ldmdbvs	r2!, {r1, r2, r3, r5, r6, sl, ip, sp, lr}^
     6a0:	73007365 	movwvc	r7, #869	; 0x365
     6a4:	6e6f6365 	cdpvs	3, 6, cr6, cr15, cr5, {3}
     6a8:	6d745f64 	ldclvs	15, cr5, [r4, #-400]!	; 0xfffffe70
     6ac:	70740070 	rsbsvc	r0, r4, r0, ror r0
     6b0:	65725f6c 	ldrbvs	r5, [r2, #-3948]!	; 0xf6c
     6b4:	7361656c 	cmnvc	r1, #108, 10	; 0x1b000000
     6b8:	4e470065 	cdpmi	0, 4, cr0, cr7, cr5, {3}
     6bc:	20432055 	subcs	r2, r3, r5, asr r0
     6c0:	2e392e34 	mrccs	14, 1, r2, cr9, cr4, {1}
     6c4:	30322033 	eorscc	r2, r2, r3, lsr r0
     6c8:	35303531 	ldrcc	r3, [r0, #-1329]!	; 0x531
     6cc:	28203932 	stmdacs	r0!, {r1, r4, r5, r8, fp, ip, sp}
     6d0:	656c6572 	strbvs	r6, [ip, #-1394]!	; 0x572
     6d4:	29657361 	stmdbcs	r5!, {r0, r5, r6, r8, r9, ip, sp, lr}^
     6d8:	52415b20 	subpl	r5, r1, #32, 22	; 0x8000
     6dc:	6d652f4d 	stclvs	15, cr2, [r5, #-308]!	; 0xfffffecc
     6e0:	64646562 	strbtvs	r6, [r4], #-1378	; 0x562
     6e4:	342d6465 	strtcc	r6, [sp], #-1125	; 0x465
     6e8:	622d395f 	eorvs	r3, sp, #1556480	; 0x17c000
     6ec:	636e6172 	cmnvs	lr, #-2147483620	; 0x8000001c
     6f0:	65722068 	ldrbvs	r2, [r2, #-104]!	; 0x68
     6f4:	69736976 	ldmdbvs	r3!, {r1, r2, r4, r5, r6, r8, fp, sp, lr}^
     6f8:	32206e6f 	eorcc	r6, r0, #1776	; 0x6f0
     6fc:	37393732 			; <UNDEFINED> instruction: 0x37393732
     700:	2d205d37 	stccs	13, cr5, [r0, #-220]!	; 0xffffff24
     704:	7570636d 	ldrbvc	r6, [r0, #-877]!	; 0x36d
     708:	726f633d 	rsbvc	r6, pc, #-201326592	; 0xf4000000
     70c:	2d786574 	cfldr64cs	mvdx6, [r8, #-464]!	; 0xfffffe30
     710:	2d203761 	stccs	7, cr3, [r0, #-388]!	; 0xfffffe7c
     714:	6f6c666d 	svcvs	0x006c666d
     718:	612d7461 			; <UNDEFINED> instruction: 0x612d7461
     71c:	733d6962 	teqvc	sp, #1605632	; 0x188000
     720:	2074666f 	rsbscs	r6, r4, pc, ror #12
     724:	70636d2d 	rsbvc	r6, r3, sp, lsr #26
     728:	6f633d75 	svcvs	0x00633d75
     72c:	78657472 	stmdavc	r5!, {r1, r4, r5, r6, sl, ip, sp, lr}^
     730:	2037612d 	eorscs	r6, r7, sp, lsr #2
     734:	6c666d2d 	stclvs	13, cr6, [r6], #-180	; 0xffffff4c
     738:	2d74616f 	ldfcse	f6, [r4, #-444]!	; 0xfffffe44
     73c:	3d696261 	sfmcc	f6, 2, [r9, #-388]!	; 0xfffffe7c
     740:	74666f73 	strbtvc	r6, [r6], #-3955	; 0xf73
     744:	20672d20 	rsbcs	r2, r7, r0, lsr #26
     748:	2d20672d 	stccs	7, cr6, [r0, #-180]!	; 0xffffff4c
     74c:	2d20304f 	stccs	0, cr3, [r0, #-316]!	; 0xfffffec4
     750:	3d647473 	cfstrdcc	mvd7, [r4, #-460]!	; 0xfffffe34
     754:	20393963 	eorscs	r3, r9, r3, ror #18
     758:	6474732d 	ldrbtvs	r7, [r4], #-813	; 0x32d
     75c:	3939633d 	ldmdbcc	r9!, {r0, r2, r3, r4, r5, r8, r9, sp, lr}
     760:	6c707400 	cfldrdvs	mvd7, [r0], #-0
     764:	6572705f 	ldrbvs	r7, [r2, #-95]!	; 0x5f
     768:	74706d65 	ldrbtvc	r6, [r0], #-3429	; 0xd65
     76c:	6c707400 	cfldrdvs	mvd7, [r0], #-0
     770:	7361745f 	cmnvc	r1, #1593835520	; 0x5f000000
     774:	64695f6b 	strbtvs	r5, [r9], #-3947	; 0xf6b
     778:	725f7300 	subsvc	r7, pc, #0, 6
     77c:	696e6e75 	stmdbvs	lr!, {r0, r2, r4, r5, r6, r9, sl, fp, sp, lr}^
     780:	7400676e 	strvc	r6, [r0], #-1902	; 0x76e
     784:	725f6c70 	subsvc	r6, pc, #112, 24	; 0x7000
     788:	766f6d65 	strbtvc	r6, [pc], -r5, ror #26
     78c:	72665f65 	rsbvc	r5, r6, #404	; 0x194
     790:	5f746e6f 	svcpl	0x00746e6f
     794:	636f7270 	cmnvs	pc, #112, 4
     798:	6c707400 	cfldrdvs	mvd7, [r0], #-0
     79c:	6174735f 	cmnvs	r4, pc, asr r3
     7a0:	775f6b63 	ldrbvc	r6, [pc, -r3, ror #22]
     7a4:	0064726f 	rsbeq	r7, r4, pc, ror #4
     7a8:	5f6c7074 	svcpl	0x006c7074
     7ac:	6d707061 	ldclvs	0, cr7, [r0, #-388]!	; 0xfffffe7c
     7b0:	5f65646f 	svcpl	0x0065646f
     7b4:	6b73616d 	blvs	1cd8d70 <__SP_usr_+0x1c792f0>
     7b8:	6e697300 	cdpvs	3, 6, cr7, cr9, cr0, {0}
     7bc:	72003874 	andvc	r3, r0, #116, 16	; 0x740000
     7c0:	6c757365 	ldclvs	3, cr7, [r5], #-404	; 0xfffffe6c
     7c4:	656e0074 	strbvs	r0, [lr, #-116]!	; 0x74
     7c8:	725f7478 	subsvc	r7, pc, #120, 8	; 0x78000000
     7cc:	74007365 	strvc	r7, [r0], #-869	; 0x365
     7d0:	615f6c70 	cmpvs	pc, r0, ror ip	; <UNPREDICTABLE>
     7d4:	76697463 	strbtvc	r7, [r9], -r3, ror #8
     7d8:	5f657461 	svcpl	0x00657461
     7dc:	6b736174 	blvs	1cd8db4 <__SP_usr_+0x1c79334>
     7e0:	6c707400 	cfldrdvs	mvd7, [r0], #-0
     7e4:	6d65725f 	sfmvs	f7, 2, [r5, #-380]!	; 0xfffffe84
     7e8:	5f65766f 	svcpl	0x0065766f
     7ec:	656d6974 	strbvs	r6, [sp, #-2420]!	; 0x974
     7f0:	6a626f5f 	bvs	189c574 <__SP_usr_+0x183caf4>
     7f4:	6a626f00 	bvs	189c3fc <__SP_usr_+0x183c97c>
     7f8:	00746365 	rsbseq	r6, r4, r5, ror #6
     7fc:	5f77656e 	svcpl	0x0077656e
     800:	65746164 	ldrbvs	r6, [r4, #-356]!	; 0x164
     804:	73616c00 	cmnvc	r1, #0, 24
     808:	6f745f74 	svcvs	0x00745f74
     80c:	61657200 	cmnvs	r5, r0, lsl #4
     810:	656e5f6c 	strbvs	r5, [lr, #-3948]!	; 0xf6c
     814:	745f7478 	ldrbvc	r7, [pc], #-1144	; 81c <unused+0x818>
     818:	6572006f 	ldrbvs	r0, [r2, #-111]!	; 0x6f
     81c:	6e5f6c61 	cdpvs	12, 5, cr6, cr15, cr1, {3}
     820:	5f747865 	svcpl	0x00747865
     824:	745f6f74 	ldrbvc	r6, [pc], #-3956	; 82c <unused+0x828>
     828:	00706d65 	rsbseq	r6, r0, r5, ror #26
     82c:	5f6c7074 	svcpl	0x006c7074
     830:	65736e69 	ldrbvs	r6, [r3, #-3689]!	; 0xe69
     834:	745f7472 	ldrbvc	r7, [pc], #-1138	; 83c <unused+0x838>
     838:	5f656d69 	svcpl	0x00656d69
     83c:	006a626f 	rsbeq	r6, sl, pc, ror #4
     840:	72727563 	rsbsvc	r7, r2, #415236096	; 0x18c00000
     844:	5f746e65 	svcpl	0x00746e65
     848:	74006f74 	strvc	r6, [r0], #-3956	; 0xf74
     84c:	6a626f5f 	bvs	189c5d0 <__SP_usr_+0x183cb50>
     850:	6c707400 	cfldrdvs	mvd7, [r0], #-0
     854:	616e655f 	cmnvs	lr, pc, asr r5
     858:	5f656c62 	svcpl	0x00656c62
     85c:	6e756f63 	cdpvs	15, 7, cr6, cr5, cr3, {3}
     860:	73726574 	cmnvc	r2, #116, 10	; 0x1d000000
     864:	2f2e2e00 	svccs	0x002e2e00
     868:	2e2f2e2e 	cdpcs	14, 2, cr2, cr15, cr14, {1}
     86c:	2e2e2f2e 	cdpcs	15, 2, cr2, cr14, cr14, {1}
     870:	2f2e2e2f 	svccs	0x002e2e2f
     874:	6f2f2e2e 	svcvs	0x002f2e2e
     878:	70742f73 	rsbsvc	r2, r4, r3, ror pc
     87c:	736f5f6c 	cmnvc	pc, #108, 30	; 0x1b0
     880:	6d69745f 	cfstrdvs	mvd7, [r9, #-380]!	; 0xfffffe84
     884:	6a626f65 	bvs	189c620 <__SP_usr_+0x183cba0>
     888:	72656b5f 	rsbvc	r6, r5, #97280	; 0x17c00
     88c:	2e6c656e 	cdpcs	5, 6, cr6, cr12, cr14, {3}
     890:	70740063 	rsbsvc	r0, r4, r3, rrx
     894:	6f635f6c 	svcvs	0x00635f6c
     898:	65746e75 	ldrbvs	r6, [r4, #-3701]!	; 0xe75
     89c:	69745f72 	ldmdbvs	r4!, {r1, r4, r5, r6, r8, r9, sl, fp, ip, lr}^
     8a0:	74006b63 	strvc	r6, [r0], #-2915	; 0xb63
     8a4:	725f6c70 	subsvc	r6, pc, #112, 24	; 0x7000
     8a8:	766f6d65 	strbtvc	r6, [pc], -r5, ror #26
     8ac:	69745f65 	ldmdbvs	r4!, {r0, r2, r5, r6, r8, r9, sl, fp, ip, lr}^
     8b0:	626f656d 	rsbvs	r6, pc, #457179136	; 0x1b400000
     8b4:	65735f6a 	ldrbvs	r5, [r3, #-3946]!	; 0xf6a
     8b8:	70740074 	rsbsvc	r0, r4, r4, ror r0
     8bc:	6f635f6c 	svcvs	0x00635f6c
     8c0:	65746e75 	ldrbvs	r6, [r4, #-3701]!	; 0xe75
     8c4:	655f7372 	ldrbvs	r7, [pc, #-882]	; 55a <unused+0x556>
     8c8:	6c62616e 	stfvse	f6, [r2], #-440	; 0xfffffe48
     8cc:	61006465 	tstvs	r0, r5, ror #8
     8d0:	6f745f66 	svcvs	0x00745f66
     8d4:	6c707400 	cfldrdvs	mvd7, [r0], #-0
     8d8:	756f635f 	strbvc	r6, [pc, #-863]!	; 581 <unused+0x57d>
     8dc:	7265746e 	rsbvc	r7, r5, #1845493760	; 0x6e000000
     8e0:	6c707400 	cfldrdvs	mvd7, [r0], #-0
     8e4:	6c61635f 	stclvs	3, cr6, [r1], #-380	; 0xfffffe84
     8e8:	6361626c 	cmnvs	r1, #108, 4	; 0xc0000006
     8ec:	75665f6b 	strbvc	r5, [r6, #-3947]!	; 0xf6b
     8f0:	2e00636e 	cdpcs	3, 0, cr6, cr0, cr14, {3}
     8f4:	2e2e2f2e 	cdpcs	15, 2, cr2, cr14, cr14, {1}
     8f8:	2f2e2e2f 	svccs	0x002e2e2f
     8fc:	2e2f2e2e 	cdpcs	14, 2, cr2, cr15, cr14, {1}
     900:	2e2e2f2e 	cdpcs	15, 2, cr2, cr14, cr14, {1}
     904:	2f736f2f 	svccs	0x00736f2f
     908:	5f6c7074 	svcpl	0x006c7074
     90c:	615f736f 	cmpvs	pc, pc, ror #6
     910:	6f697463 	svcvs	0x00697463
     914:	00632e6e 	rsbeq	r2, r3, lr, ror #28
     918:	5f6c7074 	svcpl	0x006c7074
     91c:	69746361 	ldmdbvs	r4!, {r0, r5, r6, r8, r9, sp, lr}^
     920:	54006e6f 	strpl	r6, [r0], #-3695	; 0xe6f
     924:	435f4c50 	cmpmi	pc, #80, 24	; 0x5000
     928:	424c4c41 	submi	r4, ip, #16640	; 0x4100
     92c:	5f4b4341 	svcpl	0x004b4341
     930:	49544341 	ldmdbmi	r4, {r0, r6, r8, r9, lr}^
     934:	72004e4f 	andvc	r4, r0, #1264	; 0x4f0
     938:	6c757365 	ldclvs	3, cr7, [r5], #-404	; 0xfffffe6c
     93c:	63615f74 	cmnvs	r1, #116, 30	; 0x1d0
     940:	6e6f6974 	mcrvs	9, 3, r6, cr15, cr4, {3}
     944:	4c505400 	cfldrdmi	mvd5, [r0], {-0}
     948:	5443415f 	strbpl	r4, [r3], #-351	; 0x15f
     94c:	004e4f49 	subeq	r4, lr, r9, asr #30
     950:	65645f62 	strbvs	r5, [r4, #-3938]!	; 0xf62
     954:	74006373 	strvc	r6, [r0], #-883	; 0x373
     958:	635f6c70 	cmpvs	pc, #112, 24	; 0x7000
     95c:	626c6c61 	rsbvs	r6, ip, #24832	; 0x6100
     960:	5f6b6361 	svcpl	0x006b6361
     964:	69746361 	ldmdbvs	r4!, {r0, r5, r6, r8, r9, sp, lr}^
     968:	74006e6f 	strvc	r6, [r0], #-3695	; 0xe6f
     96c:	615f6c70 	cmpvs	pc, r0, ror ip	; <UNPREDICTABLE>
     970:	6f697463 	svcvs	0x00697463
     974:	61635f6e 	cmnvs	r3, lr, ror #30
     978:	61626c6c 	cmnvs	r2, ip, ror #24
     97c:	74006b63 	strvc	r6, [r0], #-2915	; 0xb63
     980:	745f6c70 	ldrbvc	r6, [pc], #-3184	; 988 <unused+0x984>
     984:	5f6b7361 	svcpl	0x006b7361
     988:	69746361 	ldmdbvs	r4!, {r0, r5, r6, r8, r9, sp, lr}^
     98c:	69746176 	ldmdbvs	r4!, {r1, r2, r4, r5, r6, r8, sp, lr}^
     990:	615f6e6f 	cmpvs	pc, pc, ror #28
     994:	6f697463 	svcvs	0x00697463
     998:	7074006e 	rsbsvc	r0, r4, lr, rrx
     99c:	63615f6c 	cmnvs	r1, #108, 30	; 0x1b0
     9a0:	6e6f6974 	mcrvs	9, 3, r6, cr15, cr4, {3}
     9a4:	6e75665f 	mrcvs	6, 3, r6, cr5, cr15, {2}
     9a8:	50540063 	subspl	r0, r4, r3, rrx
     9ac:	41545f4c 	cmpmi	r4, ip, asr #30
     9b0:	415f4b53 	cmpmi	pc, r3, asr fp	; <UNPREDICTABLE>
     9b4:	56495443 	strbpl	r5, [r9], -r3, asr #8
     9b8:	4f495441 	svcmi	0x00495441
     9bc:	43415f4e 	movtmi	r5, #8014	; 0x1f4e
     9c0:	4e4f4954 	mcrmi	9, 2, r4, cr15, cr4, {2}
     9c4:	6c707400 	cfldrdvs	mvd7, [r0], #-0
     9c8:	7463615f 	strbtvc	r6, [r3], #-351	; 0x15f
     9cc:	5f6e6f69 	svcpl	0x006e6f69
     9d0:	69746361 	ldmdbvs	r4!, {r0, r5, r6, r8, r9, sp, lr}^
     9d4:	65746176 	ldrbvs	r6, [r4, #-374]!	; 0x176
     9d8:	7361745f 	cmnvc	r1, #1593835520	; 0x5f000000
     9dc:	2e2e006b 	cdpcs	0, 2, cr0, cr14, cr11, {3}
     9e0:	2f2e2e2f 	svccs	0x002e2e2f
     9e4:	2e2f2e2e 	cdpcs	14, 2, cr2, cr15, cr14, {1}
     9e8:	2e2e2f2e 	cdpcs	15, 2, cr2, cr14, cr14, {1}
     9ec:	2f2e2e2f 	svccs	0x002e2e2f
     9f0:	742f736f 	strtvc	r7, [pc], #-879	; 9f8 <unused+0x9f4>
     9f4:	6f5f6c70 	svcvs	0x005f6c70
     9f8:	72655f73 	rsbvc	r5, r5, #460	; 0x1cc
     9fc:	2e726f72 	mrccs	15, 3, r6, cr2, cr2, {3}
     a00:	70740063 	rsbsvc	r0, r4, r3, rrx
     a04:	68735f6c 	ldmdavs	r3!, {r2, r3, r5, r6, r8, r9, sl, fp, ip, lr}^
     a08:	6f647475 	svcvs	0x00647475
     a0c:	6f5f6e77 	svcvs	0x005f6e77
     a10:	65735f73 	ldrbvs	r5, [r3, #-3955]!	; 0xf73
     a14:	63697672 	cmnvs	r9, #119537664	; 0x7200000
     a18:	2e2e0065 	cdpcs	0, 2, cr0, cr14, cr5, {3}
     a1c:	2f2e2e2f 	svccs	0x002e2e2f
     a20:	2e2f2e2e 	cdpcs	14, 2, cr2, cr15, cr14, {1}
     a24:	2e2e2f2e 	cdpcs	15, 2, cr2, cr14, cr14, {1}
     a28:	2f2e2e2f 	svccs	0x002e2e2f
     a2c:	742f736f 	strtvc	r7, [pc], #-879	; a34 <unused+0xa30>
     a30:	6f5f6c70 	svcvs	0x005f6c70
     a34:	736f5f73 	cmnvc	pc, #460	; 0x1cc
     a38:	72656b5f 	rsbvc	r6, r5, #97280	; 0x17c00
     a3c:	2e6c656e 	cdpcs	5, 6, cr6, cr12, cr14, {3}
     a40:	70740063 	rsbsvc	r0, r4, r3, rrx
     a44:	65675f6c 	strbvs	r5, [r7, #-3948]!	; 0xf6c
     a48:	63615f74 	cmnvs	r1, #116, 30	; 0x1d0
     a4c:	65766974 	ldrbvs	r6, [r6, #-2420]!	; 0x974
     a50:	7070615f 	rsbsvc	r6, r0, pc, asr r1
     a54:	6163696c 	cmnvs	r3, ip, ror #18
     a58:	6e6f6974 	mcrvs	9, 3, r6, cr15, cr4, {3}
     a5c:	646f6d5f 	strbtvs	r6, [pc], #-3423	; a64 <unused+0xa60>
     a60:	65735f65 	ldrbvs	r5, [r3, #-3941]!	; 0xf65
     a64:	63697672 	cmnvs	r9, #119537664	; 0x7200000
     a68:	70740065 	rsbsvc	r0, r4, r5, rrx
     a6c:	74735f6c 	ldrbtvc	r5, [r3], #-3948	; 0xf6c
     a70:	5f747261 	svcpl	0x00747261
     a74:	735f736f 	cmpvc	pc, #-1140850687	; 0xbc000001
     a78:	69767265 	ldmdbvs	r6!, {r0, r2, r5, r6, r9, ip, sp, lr}^
     a7c:	65006563 	strvs	r6, [r0, #-1379]	; 0x563
     a80:	726f7272 	rsbvc	r7, pc, #536870919	; 0x20000007
     a84:	61745300 	cmnvs	r4, r0, lsl #6
     a88:	534f7472 	movtpl	r7, #62578	; 0xf472
     a8c:	2f2e2e00 	svccs	0x002e2e00
     a90:	2e2f2e2e 	cdpcs	14, 2, cr2, cr15, cr14, {1}
     a94:	2e2e2f2e 	cdpcs	15, 2, cr2, cr14, cr14, {1}
     a98:	2f2e2e2f 	svccs	0x002e2e2f
     a9c:	6f2f2e2e 	svcvs	0x002f2e2e
     aa0:	70742f73 	rsbsvc	r2, r4, r3, ror pc
     aa4:	736f5f6c 	cmnvc	pc, #108, 30	; 0x1b0
     aa8:	2e736f5f 	mrccs	15, 3, r6, cr3, cr15, {2}
     aac:	70410063 	subvc	r0, r1, r3, rrx
     ab0:	646f4d70 	strbtvs	r4, [pc], #-3440	; ab8 <unused+0xab4>
     ab4:	70795465 	rsbsvc	r5, r9, r5, ror #8
     ab8:	70740065 	rsbsvc	r0, r4, r5, rrx
     abc:	65675f6c 	strbvs	r5, [r7, #-3948]!	; 0xf6c
     ac0:	6e695f74 	mcrvs	15, 3, r5, cr9, cr4, {3}
     ac4:	72726574 	rsbsvc	r6, r2, #116, 10	; 0x1d000000
     ac8:	5f747075 	svcpl	0x00747075
     acc:	6b636f6c 	blvs	18dc884 <__SP_usr_+0x187ce04>
     ad0:	6174735f 	cmnvs	r4, pc, asr r3
     ad4:	00737574 	rsbseq	r7, r3, r4, ror r5
     ad8:	5f6c7074 	svcpl	0x006c7074
     adc:	61736964 	cmnvs	r3, r4, ror #18
     ae0:	5f656c62 	svcpl	0x00656c62
     ae4:	5f6c6c61 	svcpl	0x006c6c61
     ae8:	65746e69 	ldrbvs	r6, [r4, #-3689]!	; 0xe69
     aec:	70757272 	rsbsvc	r7, r5, r2, ror r2
     af0:	735f7374 	cmpvc	pc, #116, 6	; 0xd0000001
     af4:	69767265 	ldmdbvs	r6!, {r0, r2, r5, r6, r9, ip, sp, lr}^
     af8:	2e006563 	cfsh32cs	mvfx6, mvfx0, #51
     afc:	2e2e2f2e 	cdpcs	15, 2, cr2, cr14, cr14, {1}
     b00:	2f2e2e2f 	svccs	0x002e2e2f
     b04:	2e2f2e2e 	cdpcs	14, 2, cr2, cr15, cr14, {1}
     b08:	2e2e2f2e 	cdpcs	15, 2, cr2, cr14, cr14, {1}
     b0c:	2f736f2f 	svccs	0x00736f2f
     b10:	5f6c7074 	svcpl	0x006c7074
     b14:	695f736f 	ldmdbvs	pc, {r0, r1, r2, r3, r5, r6, r8, r9, ip, sp, lr}^	; <UNPREDICTABLE>
     b18:	7265746e 	rsbvc	r7, r5, #1845493760	; 0x6e000000
     b1c:	74707572 	ldrbtvc	r7, [r0], #-1394	; 0x572
     b20:	72656b5f 	rsbvc	r6, r5, #97280	; 0x17c00
     b24:	2e6c656e 	cdpcs	5, 6, cr6, cr12, cr14, {3}
     b28:	70740063 	rsbsvc	r0, r4, r3, rrx
     b2c:	65725f6c 	ldrbvs	r5, [r2, #-3948]!	; 0xf6c
     b30:	5f746573 	svcpl	0x00746573
     b34:	65746e69 	ldrbvs	r6, [r4, #-3689]!	; 0xe69
     b38:	70757272 	rsbsvc	r7, r5, r2, ror r2
     b3c:	6f6c5f74 	svcvs	0x006c5f74
     b40:	735f6b63 	cmpvc	pc, #101376	; 0x18c00
     b44:	75746174 	ldrbvc	r6, [r4, #-372]!	; 0x174
     b48:	70740073 	rsbsvc	r0, r4, r3, ror r0
     b4c:	70635f6c 	rsbvc	r5, r3, ip, ror #30
     b50:	73755f74 	cmnvc	r5, #116, 30	; 0x1d0
     b54:	745f7265 	ldrbvc	r7, [pc], #-613	; b5c <unused+0xb58>
     b58:	5f6b7361 	svcpl	0x006b7361
     b5c:	6b636f6c 	blvs	18dc914 <__SP_usr_+0x187ce94>
     b60:	6c6c415f 	stfvse	f4, [ip], #-380	; 0xfffffe84
     b64:	6c707400 	cfldrdvs	mvd7, [r0], #-0
     b68:	7375735f 	cmnvc	r5, #2080374785	; 0x7c000001
     b6c:	646e6570 	strbtvs	r6, [lr], #-1392	; 0x570
     b70:	6c6c615f 	stfvse	f6, [ip], #-380	; 0xfffffe84
     b74:	746e695f 	strbtvc	r6, [lr], #-2399	; 0x95f
     b78:	75727265 	ldrbvc	r7, [r2, #-613]!	; 0x265
     b7c:	5f737470 	svcpl	0x00737470
     b80:	76726573 			; <UNDEFINED> instruction: 0x76726573
     b84:	00656369 	rsbeq	r6, r5, r9, ror #6
     b88:	5f6c7074 	svcpl	0x006c7074
     b8c:	6c6c756e 	cfstr64vs	mvdx7, [ip], #-440	; 0xfffffe48
     b90:	0074695f 	rsbseq	r6, r4, pc, asr r9
     b94:	5f6c7074 	svcpl	0x006c7074
     b98:	75736572 	ldrbvc	r6, [r3, #-1394]!	; 0x572
     b9c:	6f5f656d 	svcvs	0x005f656d
     ba0:	6e695f73 	mcrvs	15, 3, r5, cr9, cr3, {3}
     ba4:	72726574 	rsbsvc	r6, r2, #116, 10	; 0x1d000000
     ba8:	73747075 	cmnvc	r4, #117	; 0x75
     bac:	7265735f 	rsbvc	r7, r5, #2080374785	; 0x7c000001
     bb0:	65636976 	strbvs	r6, [r3, #-2422]!	; 0x976
     bb4:	6c707400 	cfldrdvs	mvd7, [r0], #-0
     bb8:	7375735f 	cmnvc	r5, #2080374785	; 0x7c000001
     bbc:	646e6570 	strbtvs	r6, [lr], #-1392	; 0x570
     bc0:	5f736f5f 	svcpl	0x00736f5f
     bc4:	65746e69 	ldrbvs	r6, [r4, #-3689]!	; 0xe69
     bc8:	70757272 	rsbsvc	r7, r5, r2, ror r2
     bcc:	735f7374 	cmpvc	pc, #116, 6	; 0xd0000001
     bd0:	69767265 	ldmdbvs	r6!, {r0, r2, r5, r6, r9, ip, sp, lr}^
     bd4:	74006563 	strvc	r6, [r0], #-1379	; 0x563
     bd8:	635f6c70 	cmpvs	pc, #112, 24	; 0x7000
     bdc:	6f5f7470 	svcvs	0x005f7470
     be0:	61745f73 	cmnvs	r4, r3, ror pc
     be4:	6c5f6b73 	mrrcvs	11, 7, r6, pc, cr3	; <UNPREDICTABLE>
     be8:	006b636f 	rsbeq	r6, fp, pc, ror #6
     bec:	5f6c7074 	svcpl	0x006c7074
     bf0:	5f747063 	svcpl	0x00747063
     bf4:	72657375 	rsbvc	r7, r5, #-738197503	; 0xd4000001
     bf8:	7361745f 	cmnvc	r1, #1593835520	; 0x5f000000
     bfc:	6f6c5f6b 	svcvs	0x006c5f6b
     c00:	4f5f6b63 	svcmi	0x005f6b63
     c04:	70740053 	rsbsvc	r0, r4, r3, asr r0
     c08:	6e655f6c 	cdpvs	15, 6, cr5, cr5, cr12, {3}
     c0c:	656c6261 	strbvs	r6, [ip, #-609]!	; 0x261
     c10:	6c6c615f 	stfvse	f6, [ip], #-380	; 0xfffffe84
     c14:	746e695f 	strbtvc	r6, [lr], #-2399	; 0x95f
     c18:	75727265 	ldrbvc	r7, [r2, #-613]!	; 0x265
     c1c:	5f737470 	svcpl	0x00737470
     c20:	76726573 			; <UNDEFINED> instruction: 0x76726573
     c24:	00656369 	rsbeq	r6, r5, r9, ror #6
     c28:	5f6c7074 	svcpl	0x006c7074
     c2c:	75736572 	ldrbvc	r6, [r3, #-1394]!	; 0x572
     c30:	615f656d 	cmpvs	pc, sp, ror #10
     c34:	695f6c6c 	ldmdbvs	pc, {r2, r3, r5, r6, sl, fp, sp, lr}^	; <UNPREDICTABLE>
     c38:	7265746e 	rsbvc	r7, r5, #1845493760	; 0x6e000000
     c3c:	74707572 	ldrbtvc	r7, [r0], #-1394	; 0x572
     c40:	65735f73 	ldrbvs	r5, [r3, #-3955]!	; 0xf73
     c44:	63697672 	cmnvs	r9, #119537664	; 0x7200000
     c48:	70740065 	rsbsvc	r0, r4, r5, rrx
     c4c:	6f6c5f6c 	svcvs	0x006c5f6c
     c50:	6e696b63 	vnmulvs.f64	d22, d9, d19
     c54:	65645f67 	strbvs	r5, [r4, #-3943]!	; 0xf67
     c58:	00687470 	rsbeq	r7, r8, r0, ror r4
     c5c:	5f6c7074 	svcpl	0x006c7074
     c60:	6d726574 	cfldr64vs	mvdx6, [r2, #-464]!	; 0xfffffe30
     c64:	74616e69 	strbtvc	r6, [r1], #-3689	; 0xe69
     c68:	73695f65 	cmnvc	r9, #404	; 0x194
     c6c:	735f3272 	cmpvc	pc, #536870919	; 0x20000007
     c70:	69767265 	ldmdbvs	r6!, {r0, r2, r5, r6, r9, ip, sp, lr}^
     c74:	74006563 	strvc	r6, [r0], #-1379	; 0x563
     c78:	755f6c70 	ldrbvc	r6, [pc, #-3184]	; 10 <unused+0xc>
     c7c:	5f726573 	svcpl	0x00726573
     c80:	6b736174 	blvs	1cd9258 <__SP_usr_+0x1c797d8>
     c84:	636f6c5f 	cmnvs	pc, #24320	; 0x5f00
     c88:	7074006b 	rsbsvc	r0, r4, fp, rrx
     c8c:	65675f6c 	strbvs	r5, [r7, #-3948]!	; 0xf6c
     c90:	61745f74 	cmnvs	r4, r4, ror pc
     c94:	695f6b73 	ldmdbvs	pc, {r0, r1, r4, r5, r6, r8, r9, fp, sp, lr}^	; <UNPREDICTABLE>
     c98:	65735f64 	ldrbvs	r5, [r3, #-3940]!	; 0xf64
     c9c:	63697672 	cmnvs	r9, #119537664	; 0x7200000
     ca0:	70740065 	rsbsvc	r0, r4, r5, rrx
     ca4:	68635f6c 	stmdavs	r3!, {r2, r3, r5, r6, r8, r9, sl, fp, ip, lr}^
     ca8:	5f6e6961 	svcpl	0x006e6961
     cac:	6b736174 	blvs	1cd9284 <__SP_usr_+0x1c79804>
     cb0:	7265735f 	rsbvc	r7, r5, #2080374785	; 0x7c000001
     cb4:	65636976 	strbvs	r6, [r3, #-2422]!	; 0x976
     cb8:	6c707400 	cfldrdvs	mvd7, [r0], #-0
     cbc:	7463615f 	strbtvc	r6, [r3], #-351	; 0x15f
     cc0:	74617669 	strbtvc	r7, [r1], #-1641	; 0x669
     cc4:	61745f65 	cmnvs	r4, r5, ror #30
     cc8:	735f6b73 	cmpvc	pc, #117760	; 0x1cc00
     ccc:	69767265 	ldmdbvs	r6!, {r0, r2, r5, r6, r9, ip, sp, lr}^
     cd0:	2e006563 	cfsh32cs	mvfx6, mvfx0, #51
     cd4:	2e2e2f2e 	cdpcs	15, 2, cr2, cr14, cr14, {1}
     cd8:	2f2e2e2f 	svccs	0x002e2e2f
     cdc:	2e2f2e2e 	cdpcs	14, 2, cr2, cr15, cr14, {1}
     ce0:	2e2e2f2e 	cdpcs	15, 2, cr2, cr14, cr14, {1}
     ce4:	2f736f2f 	svccs	0x00736f2f
     ce8:	5f6c7074 	svcpl	0x006c7074
     cec:	745f736f 	ldrbvc	r7, [pc], #-879	; cf4 <unused+0xcf0>
     cf0:	5f6b7361 	svcpl	0x006b7361
     cf4:	6e72656b 	cdpvs	5, 7, cr6, cr2, cr11, {3}
     cf8:	632e6c65 			; <UNDEFINED> instruction: 0x632e6c65
     cfc:	6c707400 	cfldrdvs	mvd7, [r0], #-0
     d00:	6863735f 	stmdavs	r3!, {r0, r1, r2, r3, r4, r6, r8, r9, ip, sp, lr}^
     d04:	6c756465 	cfldrdvs	mvd6, [r5], #-404	; 0xfffffe6c
     d08:	65735f65 	ldrbvs	r5, [r3, #-3941]!	; 0xf65
     d0c:	63697672 	cmnvs	r9, #119537664	; 0x7200000
     d10:	70740065 	rsbsvc	r0, r4, r5, rrx
     d14:	65745f6c 	ldrbvs	r5, [r4, #-3948]!	; 0xf6c
     d18:	6e696d72 	mcrvs	13, 3, r6, cr9, cr2, {3}
     d1c:	5f657461 	svcpl	0x00657461
     d20:	6b736174 	blvs	1cd92f8 <__SP_usr_+0x1c79878>
     d24:	7265735f 	rsbvc	r7, r5, #2080374785	; 0x7c000001
     d28:	65636976 	strbvs	r6, [r3, #-2422]!	; 0x976
     d2c:	6c707400 	cfldrdvs	mvd7, [r0], #-0
     d30:	7465675f 	strbtvc	r6, [r5], #-1887	; 0x75f
     d34:	7361745f 	cmnvc	r1, #1593835520	; 0x5f000000
     d38:	74735f6b 	ldrbtvc	r5, [r3], #-3947	; 0xf6b
     d3c:	5f657461 	svcpl	0x00657461
     d40:	76726573 			; <UNDEFINED> instruction: 0x76726573
     d44:	00656369 	rsbeq	r6, r5, r9, ror #6
     d48:	2e2f2e2e 	cdpcs	14, 2, cr2, cr15, cr14, {1}
     d4c:	2e2e2f2e 	cdpcs	15, 2, cr2, cr14, cr14, {1}
     d50:	2f2e2e2f 	svccs	0x002e2e2f
     d54:	2e2f2e2e 	cdpcs	14, 2, cr2, cr15, cr14, {1}
     d58:	736f2f2e 	cmnvc	pc, #46, 30	; 0xb8
     d5c:	6c70742f 	cfldrdvs	mvd7, [r0], #-188	; 0xffffff44
     d60:	5f736f5f 	svcpl	0x00736f5f
     d64:	6f736572 	svcvs	0x00736572
     d68:	65637275 	strbvs	r7, [r3, #-629]!	; 0x275
     d6c:	72656b5f 	rsbvc	r6, r5, #97280	; 0x17c00
     d70:	2e6c656e 	cdpcs	5, 6, cr6, cr12, cr14, {3}
     d74:	4e490063 	cdpmi	0, 4, cr0, cr9, cr3, {3}
     d78:	494c4156 	stmdbmi	ip, {r1, r2, r4, r6, r8, lr}^
     d7c:	45525f44 	ldrbmi	r5, [r2, #-3908]	; 0xf44
     d80:	52554f53 	subspl	r4, r5, #332	; 0x14c
     d84:	74004543 	strvc	r4, [r0], #-1347	; 0x543
     d88:	675f6c70 			; <UNDEFINED> instruction: 0x675f6c70
     d8c:	725f7465 	subsvc	r7, pc, #1694498816	; 0x65000000
     d90:	756f7365 	strbvc	r7, [pc, #-869]!	; a33 <unused+0xa2f>
     d94:	5f656372 	svcpl	0x00656372
     d98:	76726573 			; <UNDEFINED> instruction: 0x76726573
     d9c:	00656369 	rsbeq	r6, r5, r9, ror #6
     da0:	5f6c7074 	svcpl	0x006c7074
     da4:	656c6572 	strbvs	r6, [ip, #-1394]!	; 0x572
     da8:	5f657361 	svcpl	0x00657361
     dac:	6f736572 	svcvs	0x00736572
     db0:	65637275 	strbvs	r7, [r3, #-629]!	; 0x275
     db4:	7265735f 	rsbvc	r7, r5, #2080374785	; 0x7c000001
     db8:	65636976 	strbvs	r6, [r3, #-2422]!	; 0x976
     dbc:	6c707400 	cfldrdvs	mvd7, [r0], #-0
     dc0:	7365725f 	cmnvc	r5, #-268435451	; 0xf0000005
     dc4:	6372756f 	cmnvs	r2, #465567744	; 0x1bc00000
     dc8:	65720065 	ldrbvs	r0, [r2, #-101]!	; 0x65
     dcc:	63735f73 	cmnvs	r3, #460	; 0x1cc
     dd0:	5f646568 	svcpl	0x00646568
     dd4:	5f7a6572 	svcpl	0x007a6572
     dd8:	63736564 	cmnvs	r3, #100, 10	; 0x19000000
     ddc:	6c707400 	cfldrdvs	mvd7, [r0], #-0
     de0:	6c65725f 	sfmvs	f7, 2, [r5], #-380	; 0xfffffe84
     de4:	65736165 	ldrbvs	r6, [r3, #-357]!	; 0x165
     de8:	6c6c615f 	stfvse	f6, [ip], #-380	; 0xfffffe84
     dec:	7365725f 	cmnvc	r5, #-268435451	; 0xf0000005
     df0:	6372756f 	cmnvs	r2, #465567744	; 0x1bc00000
     df4:	72007365 	andvc	r7, r0, #-1811939327	; 0x94000001
     df8:	695f7365 	ldmdbvs	pc, {r0, r2, r5, r6, r8, r9, ip, sp, lr}^	; <UNPREDICTABLE>
     dfc:	70740064 	rsbsvc	r0, r4, r4, rrx
     e00:	65725f6c 	ldrbvs	r5, [r2, #-3948]!	; 0xf6c
     e04:	72756f73 	rsbsvc	r6, r5, #460	; 0x1cc
     e08:	745f6563 	ldrbvc	r6, [pc], #-1379	; e10 <unused+0xe0c>
     e0c:	656c6261 	strbvs	r6, [ip, #-609]!	; 0x261
     e10:	6c707400 	cfldrdvs	mvd7, [r0], #-0
     e14:	7365725f 	cmnvc	r5, #-268435451	; 0xf0000005
     e18:	6372756f 	cmnvs	r2, #465567744	; 0x1bc00000
     e1c:	64695f65 	strbtvs	r5, [r9], #-3941	; 0xf65
     e20:	636e6900 	cmnvs	lr, #0, 18
     e24:	656d6572 	strbvs	r6, [sp, #-1394]!	; 0x572
     e28:	7400746e 	strvc	r7, [r0], #-1134	; 0x46e
     e2c:	675f6c70 			; <UNDEFINED> instruction: 0x675f6c70
     e30:	615f7465 	cmpvs	pc, r5, ror #8
     e34:	6d72616c 	ldfvse	f6, [r2, #-432]!	; 0xfffffe50
     e38:	7265735f 	rsbvc	r7, r5, #2080374785	; 0x7c000001
     e3c:	65636976 	strbvs	r6, [r3, #-2422]!	; 0x976
     e40:	6c707400 	cfldrdvs	mvd7, [r0], #-0
     e44:	616c615f 	cmnvs	ip, pc, asr r1
     e48:	695f6d72 	ldmdbvs	pc, {r1, r4, r5, r6, r8, sl, fp, sp, lr}^	; <UNPREDICTABLE>
     e4c:	4e490064 	cdpmi	0, 4, cr0, cr9, cr4, {3}
     e50:	494c4156 	stmdbmi	ip, {r1, r2, r4, r6, r8, lr}^
     e54:	4c415f44 	mcrrmi	15, 4, r5, r1, cr4
     e58:	004d5241 	subeq	r5, sp, r1, asr #4
     e5c:	6178616d 	cmnvs	r8, sp, ror #2
     e60:	776f6c6c 	strbvc	r6, [pc, -ip, ror #24]!
     e64:	61766465 	cmnvs	r6, r5, ror #8
     e68:	0065756c 	rsbeq	r7, r5, ip, ror #10
     e6c:	5f6c7074 	svcpl	0x006c7074
     e70:	5f746567 	svcpl	0x00746567
     e74:	72616c61 	rsbvc	r6, r1, #24832	; 0x6100
     e78:	61625f6d 	cmnvs	r2, sp, ror #30
     e7c:	735f6573 	cmpvc	pc, #482344960	; 0x1cc00000
     e80:	69767265 	ldmdbvs	r6!, {r0, r2, r5, r6, r9, ip, sp, lr}^
     e84:	74006563 	strvc	r6, [r0], #-1379	; 0x563
     e88:	735f6c70 	cmpvc	pc, #112, 24	; 0x7000
     e8c:	615f7465 	cmpvs	pc, r5, ror #8
     e90:	615f7362 	cmpvs	pc, r2, ror #6
     e94:	6d72616c 	ldfvse	f6, [r2, #-432]!	; 0xfffffe50
     e98:	7265735f 	rsbvc	r7, r5, #2080374785	; 0x7c000001
     e9c:	65636976 	strbvs	r6, [r3, #-2422]!	; 0x976
     ea0:	6c707400 	cfldrdvs	mvd7, [r0], #-0
     ea4:	7465735f 	strbtvc	r7, [r5], #-863	; 0x35f
     ea8:	6c65725f 	sfmvs	f7, 2, [r5], #-380	; 0xfffffe84
     eac:	616c615f 	cmnvs	ip, pc, asr r1
     eb0:	735f6d72 	cmpvc	pc, #7296	; 0x1c80
     eb4:	69767265 	ldmdbvs	r6!, {r0, r2, r5, r6, r9, ip, sp, lr}^
     eb8:	6d006563 	cfstr32vs	mvfx6, [r0, #-396]	; 0xfffffe74
     ebc:	79636e69 	stmdbvc	r3!, {r0, r3, r5, r6, r9, sl, fp, sp, lr}^
     ec0:	00656c63 	rsbeq	r6, r5, r3, ror #24
     ec4:	5f6c7074 	svcpl	0x006c7074
     ec8:	636e6163 	cmnvs	lr, #-1073741800	; 0xc0000018
     ecc:	615f6c65 	cmpvs	pc, r5, ror #24
     ed0:	6d72616c 	ldfvse	f6, [r2, #-432]!	; 0xfffffe50
     ed4:	7265735f 	rsbvc	r7, r5, #2080374785	; 0x7c000001
     ed8:	65636976 	strbvs	r6, [r3, #-2422]!	; 0x976
     edc:	4c505400 	cfldrdmi	mvd5, [r0], {-0}
     ee0:	414c415f 	cmpmi	ip, pc, asr r1
     ee4:	535f4d52 	cmppl	pc, #5248	; 0x1480
     ee8:	49544154 	ldmdbmi	r4, {r2, r4, r6, r8, lr}^
     eec:	2e2e0043 	cdpcs	0, 2, cr0, cr14, cr3, {2}
     ef0:	2f2e2e2f 	svccs	0x002e2e2f
     ef4:	2e2f2e2e 	cdpcs	14, 2, cr2, cr15, cr14, {1}
     ef8:	2e2e2f2e 	cdpcs	15, 2, cr2, cr14, cr14, {1}
     efc:	2f2e2e2f 	svccs	0x002e2e2f
     f00:	742f736f 	strtvc	r7, [pc], #-879	; f08 <unused+0xf04>
     f04:	6f5f6c70 	svcvs	0x005f6c70
     f08:	6c615f73 	stclvs	15, cr5, [r1], #-460	; 0xfffffe34
     f0c:	5f6d7261 	svcpl	0x006d7261
     f10:	6e72656b 	cdpvs	5, 7, cr6, cr2, cr11, {3}
     f14:	632e6c65 			; <UNDEFINED> instruction: 0x632e6c65
     f18:	6c707400 	cfldrdvs	mvd7, [r0], #-0
     f1c:	616c615f 	cmnvs	ip, pc, asr r1
     f20:	625f6d72 	subsvs	r6, pc, #7296	; 0x1c80
     f24:	00657361 	rsbeq	r7, r5, r1, ror #6
     f28:	5f6c7074 	svcpl	0x006c7074
     f2c:	72616c61 	rsbvc	r6, r1, #24832	; 0x6100
     f30:	74735f6d 	ldrbtvc	r5, [r3], #-3949	; 0xf6d
     f34:	63697461 	cmnvs	r9, #1627389952	; 0x61000000
     f38:	414c4100 	mrsmi	r4, (UNDEF: 92)
     f3c:	425f4d52 	subsmi	r4, pc, #5248	; 0x1480
     f40:	5f455341 	svcpl	0x00455341
     f44:	45505954 	ldrbmi	r5, [r0, #-2388]	; 0x954
     f48:	63697400 	cmnvs	r9, #0, 8
     f4c:	6570736b 	ldrbvs	r7, [r0, #-875]!	; 0x36b
     f50:	73616272 	cmnvc	r1, #536870919	; 0x20000007
     f54:	6e690065 	cdpvs	0, 6, cr0, cr9, cr5, {3}
     f58:	73006f66 	movwvc	r6, #3942	; 0xf66
     f5c:	5f746174 	svcpl	0x00746174
     f60:	72616c61 	rsbvc	r6, r1, #24832	; 0x6100
     f64:	6c61006d 	stclvs	0, cr0, [r1], #-436	; 0xfffffe4c
     f68:	5f6d7261 	svcpl	0x006d7261
     f6c:	65746164 	ldrbvs	r6, [r4, #-356]!	; 0x164
     f70:	6c707400 	cfldrdvs	mvd7, [r0], #-0
     f74:	6961725f 	stmdbvs	r1!, {r0, r1, r2, r3, r4, r6, r9, ip, sp, lr}^
     f78:	615f6573 	cmpvs	pc, r3, ror r5	; <UNPREDICTABLE>
     f7c:	6d72616c 	ldfvse	f6, [r2, #-432]!	; 0xfffffe50
     f80:	74636100 	strbtvc	r6, [r3], #-256	; 0x100
     f84:	5f6e6f69 	svcpl	0x006e6f69
     f88:	63736564 	cmnvs	r3, #100, 10	; 0x19000000
     f8c:	696c6200 	stmdbvs	ip!, {r9, sp, lr}^
     f90:	632e6b6e 			; <UNDEFINED> instruction: 0x632e6b6e
     f94:	69616d00 	stmdbvs	r1!, {r8, sl, fp, sp, lr}^
     f98:	6966006e 	stmdbvs	r6!, {r1, r2, r3, r5, r6}^
     f9c:	6c00656c 	cfstr32vs	mvfx6, [r0], {108}	; 0x6c
     fa0:	00656e69 	rsbeq	r6, r5, r9, ror #28
     fa4:	61685f63 	cmnvs	r8, r3, ror #30
     fa8:	685f676e 	ldmdavs	pc, {r1, r2, r3, r5, r6, r8, r9, sl, sp, lr}^	; <UNPREDICTABLE>
     fac:	6c646e61 	stclvs	14, cr6, [r4], #-388	; 0xfffffe7c
     fb0:	50007265 	andpl	r7, r0, r5, ror #4
     fb4:	5474736f 	ldrbtpl	r7, [r4], #-879	; 0x36f
     fb8:	486b7361 	stmdami	fp!, {r0, r5, r6, r8, r9, ip, sp, lr}^
     fbc:	006b6f6f 	rsbeq	r6, fp, pc, ror #30
     fc0:	76735f63 	ldrbtvc	r5, [r3], -r3, ror #30
     fc4:	61685f63 	cmnvs	r8, r3, ror #30
     fc8:	656c646e 	strbvs	r6, [ip, #-1134]!	; 0x46e
     fcc:	61540072 	cmpvs	r4, r2, ror r0
     fd0:	79546b73 	ldmdbvc	r4, {r0, r1, r4, r5, r6, r8, r9, fp, sp, lr}^
     fd4:	63006570 	movwvs	r6, #1392	; 0x570
     fd8:	7169665f 	cmnvc	r9, pc, asr r6
     fdc:	6e61685f 	mcrvs	8, 3, r6, cr1, cr15, {2}
     fe0:	72656c64 	rsbvc	r6, r5, #100, 24	; 0x6400
     fe4:	73626e00 	cmnvc	r2, #0, 28
     fe8:	63006376 	movwvs	r6, #886	; 0x376
     fec:	7365725f 	cmnvc	r5, #-268435451	; 0xf0000005
     ff0:	65767265 	ldrbvs	r7, [r6, #-613]!	; 0x265
     ff4:	61685f64 	cmnvs	r8, r4, ror #30
     ff8:	656c646e 	strbvs	r6, [ip, #-1134]!	; 0x46e
     ffc:	5f630072 	svcpl	0x00630072
    1000:	66657270 			; <UNDEFINED> instruction: 0x66657270
    1004:	68637465 	stmdavs	r3!, {r0, r2, r5, r6, sl, ip, sp, lr}^
    1008:	6e61685f 	mcrvs	8, 3, r6, cr1, cr15, {2}
    100c:	72656c64 	rsbvc	r6, r5, #100, 24	; 0x6400
    1010:	44534f00 	ldrbmi	r4, [r3], #-3840	; 0xf00
    1014:	55414645 	strbpl	r4, [r1, #-1605]	; 0x645
    1018:	5041544c 	subpl	r5, r1, ip, asr #8
    101c:	444f4d50 	strbmi	r4, [pc], #-3408	; 1024 <unused+0x1020>
    1020:	72500045 	subsvc	r0, r0, #69	; 0x45
    1024:	73615465 	cmnvc	r1, #1694498816	; 0x65000000
    1028:	6f6f486b 	svcvs	0x006f486b
    102c:	7361006b 	cmnvc	r1, #107	; 0x6b
    1030:	74726573 	ldrbtvc	r6, [r2], #-1395	; 0x573
    1034:	6961665f 	stmdbvs	r1!, {r0, r1, r2, r3, r4, r6, r9, sl, sp, lr}^
    1038:	0064656c 	rsbeq	r6, r4, ip, ror #10
    103c:	72695f63 	rsbvc	r5, r9, #396	; 0x18c
    1040:	61685f71 	smcvs	34289	; 0x85f1
    1044:	656c646e 	strbvs	r6, [ip, #-1134]!	; 0x46e
    1048:	5f630072 	svcpl	0x00630072
    104c:	65646e75 	strbvs	r6, [r4, #-3701]!	; 0xe75
    1050:	656e6966 	strbvs	r6, [lr, #-2406]!	; 0x966
    1054:	61685f64 	cmnvs	r8, r4, ror #30
    1058:	656c646e 	strbvs	r6, [ip, #-1134]!	; 0x46e
    105c:	6c620072 	stclvs	0, cr0, [r2], #-456	; 0xfffffe38
    1060:	5f6b6e69 	svcpl	0x006b6e69
    1064:	636e7566 	cmnvs	lr, #427819008	; 0x19800000
    1068:	6e6f6974 	mcrvs	9, 3, r6, cr15, cr4, {3}
    106c:	645f6300 	ldrbvs	r6, [pc], #-768	; 1074 <unused+0x1070>
    1070:	5f617461 	svcpl	0x00617461
    1074:	646e6168 	strbtvs	r6, [lr], #-360	; 0x168
    1078:	0072656c 	rsbseq	r6, r2, ip, ror #10
    107c:	454c4449 	strbmi	r4, [ip, #-1097]	; 0x449
    1080:	5341545f 	movtpl	r5, #5215	; 0x145f
    1084:	6e695f4b 	cdpvs	15, 6, cr5, cr9, cr11, {2}
    1088:	6f635f74 	svcvs	0x00635f74
    108c:	7865746e 	stmdavc	r5!, {r1, r2, r3, r5, r6, sl, ip, sp, lr}^
    1090:	6c620074 	stclvs	0, cr0, [r2], #-464	; 0xfffffe30
    1094:	5f6b6e69 	svcpl	0x006b6e69
    1098:	6e696c62 	cdpvs	12, 6, cr6, cr9, cr2, {3}
    109c:	63615f6b 	cmnvs	r1, #428	; 0x1ac
    10a0:	6e6f6974 	mcrvs	9, 3, r6, cr15, cr4, {3}
    10a4:	6c707400 	cfldrdvs	mvd7, [r0], #-0
    10a8:	5f74695f 	svcpl	0x0074695f
    10ac:	74636576 	strbtvc	r6, [r3], #-1398	; 0x576
    10b0:	6200726f 	andvs	r7, r0, #-268435450	; 0xf0000006
    10b4:	6b6e696c 	blvs	1b9b66c <__SP_usr_+0x1b3bbec>
    10b8:	696c625f 	stmdbvs	ip!, {r0, r1, r2, r3, r4, r6, r9, sp, lr}^
    10bc:	735f6b6e 	cmpvc	pc, #112640	; 0x1b800
    10c0:	69746174 	ldmdbvs	r4!, {r2, r4, r5, r6, r8, sp, lr}^
    10c4:	44490063 	strbmi	r0, [r9], #-99	; 0x63
    10c8:	545f454c 	ldrbpl	r4, [pc], #-1356	; 10d0 <unused+0x10cc>
    10cc:	5f4b5341 	svcpl	0x004b5341
    10d0:	63617473 	cmnvs	r1, #1929379840	; 0x73000000
    10d4:	6f7a5f6b 	svcvs	0x007a5f6b
    10d8:	4900656e 	stmdbmi	r0, {r1, r2, r3, r5, r6, r8, sl, sp, lr}
    10dc:	5f454c44 	svcpl	0x00454c44
    10e0:	4b534154 	blmi	14d1638 <__SP_usr_+0x1471bb8>
    10e4:	7361745f 	cmnvc	r1, #1593835520	; 0x5f000000
    10e8:	65645f6b 	strbvs	r5, [r4, #-3947]!	; 0xf6b
    10ec:	74006373 	strvc	r6, [r0], #-883	; 0x373
    10f0:	695f6c70 	ldmdbvs	pc, {r4, r5, r6, sl, fp, sp, lr}^	; <UNPREDICTABLE>
    10f4:	65765f74 	ldrbvs	r5, [r6, #-3956]!	; 0xf74
    10f8:	726f7463 	rsbvc	r7, pc, #1660944384	; 0x63000000
    10fc:	746e655f 	strbtvc	r6, [lr], #-1375	; 0x55f
    1100:	61007972 	tstvs	r0, r2, ror r9
    1104:	635f6d72 	cmpvs	pc, #7296	; 0x1c80
    1108:	65746e6f 	ldrbvs	r6, [r4, #-3695]!	; 0xe6f
    110c:	53007478 	movwpl	r7, #1144	; 0x478
    1110:	65747379 	ldrbvs	r7, [r4, #-889]!	; 0x379
    1114:	756f436d 	strbvc	r4, [pc, #-877]!	; daf <unused+0xdab>
    1118:	7265746e 	rsbvc	r7, r5, #1845493760	; 0x6e000000
    111c:	756f635f 	strbvc	r6, [pc, #-863]!	; dc5 <unused+0xdc1>
    1120:	7265746e 	rsbvc	r7, r5, #1845493760	; 0x6e000000
    1124:	7365645f 	cmnvc	r5, #1593835520	; 0x5f000000
    1128:	72700063 	rsbsvc	r0, r0, #99	; 0x63
    112c:	6e5f636f 	cdpvs	3, 5, cr6, cr15, cr15, {3}
    1130:	5f656d61 	svcpl	0x00656d61
    1134:	6c626174 	stfvse	f6, [r2], #-464	; 0xfffffe30
    1138:	534f0065 	movtpl	r0, #61541	; 0xf065
    113c:	4158414d 	cmpmi	r8, sp, asr #2
    1140:	574f4c4c 	strbpl	r4, [pc, -ip, asr #24]
    1144:	41564445 	cmpmi	r6, r5, asr #8
    1148:	0045554c 	subeq	r5, r5, ip, asr #10
    114c:	5f6c7074 	svcpl	0x006c7074
    1150:	65746e69 	ldrbvs	r6, [r4, #-3689]!	; 0xe69
    1154:	70757272 	rsbsvc	r7, r5, r2, ror r2
    1158:	6f735f74 	svcvs	0x00735f74
    115c:	65637275 	strbvs	r7, [r3, #-629]!	; 0x275
    1160:	5400305f 	strpl	r3, [r0], #-95	; 0x5f
    1164:	495f4c50 	ldmdbmi	pc, {r4, r6, sl, fp, lr}^	; <UNPREDICTABLE>
    1168:	45565f54 	ldrbmi	r5, [r6, #-3924]	; 0xf54
    116c:	524f5443 	subpl	r5, pc, #1124073472	; 0x43000000
    1170:	544e455f 	strbpl	r4, [lr], #-1375	; 0x55f
    1174:	62005952 	andvs	r5, r0, #1343488	; 0x148000
    1178:	6b6e696c 	blvs	1b9b730 <__SP_usr_+0x1b3bcb0>
    117c:	696c625f 	stmdbvs	ip!, {r0, r1, r2, r3, r4, r6, r9, sp, lr}^
    1180:	4f006b6e 	svcmi	0x00006b6e
    1184:	43495453 	movtmi	r5, #37971	; 0x9453
    1188:	4550534b 	ldrbmi	r5, [r0, #-843]	; 0x34b
    118c:	53414252 	movtpl	r4, #4690	; 0x1252
    1190:	70740045 	rsbsvc	r0, r4, r5, asr #32
    1194:	74695f6c 	strbtvc	r5, [r9], #-3948	; 0xf6c
    1198:	6e61685f 	mcrvs	8, 3, r6, cr1, cr15, {2}
    119c:	72656c64 	rsbvc	r6, r5, #100, 24	; 0x6400
    11a0:	4d534f00 	ldclmi	15, cr4, [r3, #-0]
    11a4:	59434e49 	stmdbpl	r3, {r0, r3, r6, r9, sl, fp, lr}^
    11a8:	00454c43 	subeq	r4, r5, r3, asr #24
    11ac:	72616c41 	rsbvc	r6, r1, #16640	; 0x4100
    11b0:	7079546d 	rsbsvc	r5, r9, sp, ror #8
    11b4:	6c620065 	stclvs	0, cr0, [r2], #-404	; 0xfffffe6c
    11b8:	5f6b6e69 	svcpl	0x006b6e69
    11bc:	63617473 	cmnvs	r1, #1929379840	; 0x73000000
    11c0:	6f7a5f6b 	svcvs	0x007a5f6b
    11c4:	7400656e 	strvc	r6, [r0], #-1390	; 0x56e
    11c8:	745f6c70 	ldrbvc	r6, [pc], #-3184	; 11d0 <unused+0x11cc>
    11cc:	5f6b6369 	svcpl	0x006b6369
    11d0:	745f7469 	ldrbvc	r7, [pc], #-1129	; 11d8 <unused+0x11d4>
    11d4:	72656d69 	rsbvc	r6, r5, #6720	; 0x1a40
    11d8:	6c620031 	stclvs	0, cr0, [r2], #-196	; 0xffffff3c
    11dc:	2f6b6e69 	svccs	0x006b6e69
    11e0:	5f6c7074 	svcpl	0x006c7074
    11e4:	5f707061 	svcpl	0x00707061
    11e8:	666e6f63 	strbtvs	r6, [lr], -r3, ror #30
    11ec:	632e6769 			; <UNDEFINED> instruction: 0x632e6769
    11f0:	696c6200 	stmdbvs	ip!, {r9, sp, lr}^
    11f4:	695f6b6e 	ldmdbvs	pc, {r1, r2, r3, r5, r6, r8, r9, fp, sp, lr}^	; <UNPREDICTABLE>
    11f8:	635f746e 	cmpvs	pc, #1845493760	; 0x6e000000
    11fc:	65746e6f 	ldrbvs	r6, [r4, #-3695]!	; 0xe6f
    1200:	62007478 	andvs	r7, r0, #120, 8	; 0x78000000
    1204:	6b6e696c 	blvs	1b9b7bc <__SP_usr_+0x1b3bd3c>
    1208:	696c625f 	stmdbvs	ip!, {r0, r1, r2, r3, r4, r6, r9, sp, lr}^
    120c:	615f6b6e 	cmpvs	pc, lr, ror #22
    1210:	6d72616c 	ldfvse	f6, [r2, #-432]!	; 0xfffffe50
    1214:	7365645f 	cmnvc	r5, #1593835520	; 0x5f000000
    1218:	72610063 	rsbvc	r0, r1, #99	; 0x63
    121c:	49007367 	stmdbmi	r0, {r0, r1, r2, r5, r6, r8, r9, ip, sp, lr}
    1220:	5f454c44 	svcpl	0x00454c44
    1224:	4b534154 	blmi	14d177c <__SP_usr_+0x1471cfc>
    1228:	7361745f 	cmnvc	r1, #1593835520	; 0x5f000000
    122c:	74735f6b 	ldrbtvc	r5, [r3], #-3947	; 0xf6b
    1230:	645f7461 	ldrbvs	r7, [pc], #-1121	; 1238 <unused+0x1234>
    1234:	00637365 	rsbeq	r7, r3, r5, ror #6
    1238:	6e696c62 	cdpvs	12, 6, cr6, cr9, cr2, {3}
    123c:	61745f6b 	cmnvs	r4, fp, ror #30
    1240:	645f6b73 	ldrbvs	r6, [pc], #-2931	; 1248 <unused+0x1244>
    1244:	00637365 	rsbeq	r7, r3, r5, ror #6
    1248:	6e696c62 	cdpvs	12, 6, cr6, cr9, cr2, {3}
    124c:	61745f6b 	cmnvs	r4, fp, ror #30
    1250:	735f6b73 	cmpvc	pc, #117760	; 0x1cc00
    1254:	5f746174 	svcpl	0x00746174
    1258:	63736564 	cmnvs	r3, #100, 10	; 0x19000000
    125c:	6c707400 	cfldrdvs	mvd7, [r0], #-0
    1260:	7369645f 	cmnvc	r9, #1593835520	; 0x5f000000
    1264:	63746170 	cmnvs	r4, #112, 2
    1268:	61745f68 	cmnvs	r4, r8, ror #30
    126c:	00656c62 	rsbeq	r6, r5, r2, ror #24
    1270:	6e696c62 	cdpvs	12, 6, cr6, cr9, cr2, {3}
    1274:	70742f6b 	rsbsvc	r2, r4, fp, ror #30
    1278:	69645f6c 	stmdbvs	r4!, {r2, r3, r5, r6, r8, r9, sl, fp, ip, lr}^
    127c:	74617073 	strbtvc	r7, [r1], #-115	; 0x73
    1280:	745f6863 	ldrbvc	r6, [pc], #-2147	; 1288 <unused+0x1284>
    1284:	656c6261 	strbvs	r6, [ip, #-609]!	; 0x261
    1288:	7400632e 	strvc	r6, [r0], #-814	; 0x32e
    128c:	735f6c70 	cmpvc	pc, #112, 24	; 0x7000
    1290:	65747379 	ldrbvs	r7, [r4, #-889]!	; 0x379
    1294:	61635f6d 	cmnvs	r3, sp, ror #30
    1298:	2e006c6c 	cdpcs	12, 0, cr6, cr0, cr12, {3}
    129c:	2e2e2f2e 	cdpcs	15, 2, cr2, cr14, cr14, {1}
    12a0:	2f2e2e2f 	svccs	0x002e2e2f
    12a4:	2e2f2e2e 	cdpcs	14, 2, cr2, cr15, cr14, {1}
    12a8:	2e2e2f2e 	cdpcs	15, 2, cr2, cr14, cr14, {1}
    12ac:	63616d2f 	cmnvs	r1, #3008	; 0xbc0
    12b0:	656e6968 	strbvs	r6, [lr, #-2408]!	; 0x968
    12b4:	6f632f73 	svcvs	0x00632f73
    12b8:	78657472 	stmdavc	r5!, {r1, r4, r5, r6, sl, ip, sp, lr}^
    12bc:	742f612d 	strtvc	r6, [pc], #-301	; 12c4 <unused+0x12c0>
    12c0:	6d5f6c70 	ldclvs	12, cr6, [pc, #-448]	; 1108 <unused+0x1104>
    12c4:	69686361 	stmdbvs	r8!, {r0, r5, r6, r8, r9, sp, lr}^
    12c8:	615f656e 	cmpvs	pc, lr, ror #10
    12cc:	632e6d72 			; <UNDEFINED> instruction: 0x632e6d72
    12d0:	6c707400 	cfldrdvs	mvd7, [r0], #-0
    12d4:	6568635f 	strbvs	r6, [r8, #-863]!	; 0x35f
    12d8:	735f6b63 	cmpvc	pc, #101376	; 0x18c00
    12dc:	6b636174 	blvs	18d98b4 <__SP_usr_+0x1879e34>
    12e0:	6f6f665f 	svcvs	0x006f665f
    12e4:	69727074 	ldmdbvs	r2!, {r2, r4, r5, r6, ip, sp, lr}^
    12e8:	6100746e 	tstvs	r0, lr, ror #8
    12ec:	65726d72 	ldrbvs	r6, [r2, #-3442]!	; 0xd72
    12f0:	31725f67 	cmncc	r2, r7, ror #30
    12f4:	72610035 	rsbvc	r0, r1, #53	; 0x35
    12f8:	6765726d 	strbvs	r7, [r5, -sp, ror #4]!
    12fc:	00726c5f 	rsbseq	r6, r2, pc, asr ip
    1300:	726d7261 	rsbvc	r7, sp, #268435462	; 0x10000006
    1304:	705f6765 	subsvc	r6, pc, r5, ror #14
    1308:	70740063 	rsbsvc	r0, r4, r3, rrx
    130c:	65725f6c 	ldrbvs	r5, [r2, #-3948]!	; 0xf6c
    1310:	7361656c 	cmnvc	r1, #108, 10	; 0x1b000000
    1314:	61745f65 	cmnvs	r4, r5, ror #30
    1318:	6c5f6b73 	mrrcvs	11, 7, r6, pc, cr3	; <UNPREDICTABLE>
    131c:	006b636f 	rsbeq	r6, fp, pc, ror #6
    1320:	5f6c7074 	svcpl	0x006c7074
    1324:	74696e69 	strbtvc	r6, [r9], #-3689	; 0xe69
    1328:	6e6f635f 	mcrvs	3, 3, r6, cr15, cr15, {2}
    132c:	74786574 	ldrbtvc	r6, [r8], #-1396	; 0x574
    1330:	6c646900 	stclvs	9, cr6, [r4], #-0
    1334:	75665f65 	strbvc	r5, [r6, #-3941]!	; 0xf65
    1338:	6974636e 	ldmdbvs	r4!, {r1, r2, r3, r5, r6, r8, r9, sp, lr}^
    133c:	61006e6f 	tstvs	r0, pc, ror #28
    1340:	65726d72 	ldrbvs	r6, [r2, #-3442]!	; 0xd72
    1344:	66725f67 	ldrbtvs	r5, [r2], -r7, ror #30
    1348:	72610070 	rsbvc	r0, r1, #112	; 0x70
    134c:	6765726d 	strbvs	r7, [r5, -sp, ror #4]!
    1350:	0070695f 	rsbseq	r6, r0, pc, asr r9
    1354:	656c6469 	strbvs	r6, [ip, #-1129]!	; 0x469
    1358:	6174735f 	cmnvs	r4, pc, asr r3
    135c:	61006b63 	tstvs	r0, r3, ror #22
    1360:	65726d72 	ldrbvs	r6, [r2, #-3442]!	; 0xd72
    1364:	30725f67 	rsbscc	r5, r2, r7, ror #30
    1368:	6d726100 	ldfvse	f6, [r2, #-0]
    136c:	5f676572 	svcpl	0x00676572
    1370:	61003172 	tstvs	r0, r2, ror r1
    1374:	65726d72 	ldrbvs	r6, [r2, #-3442]!	; 0xd72
    1378:	32725f67 	rsbscc	r5, r2, #412	; 0x19c
    137c:	6d726100 	ldfvse	f6, [r2, #-0]
    1380:	5f676572 	svcpl	0x00676572
    1384:	61003372 	tstvs	r0, r2, ror r3
    1388:	65726d72 	ldrbvs	r6, [r2, #-3442]!	; 0xd72
    138c:	34725f67 	ldrbtcc	r5, [r2], #-3943	; 0xf67
    1390:	6d726100 	ldfvse	f6, [r2, #-0]
    1394:	5f676572 	svcpl	0x00676572
    1398:	61003572 	tstvs	r0, r2, ror r5
    139c:	65726d72 	ldrbvs	r6, [r2, #-3442]!	; 0xd72
    13a0:	36725f67 	ldrbtcc	r5, [r2], -r7, ror #30
    13a4:	6d726100 	ldfvse	f6, [r2, #-0]
    13a8:	5f676572 	svcpl	0x00676572
    13ac:	61003772 	tstvs	r0, r2, ror r7
    13b0:	65726d72 	ldrbvs	r6, [r2, #-3442]!	; 0xd72
    13b4:	38725f67 	ldmdacc	r2!, {r0, r1, r2, r5, r6, r8, r9, sl, fp, ip, lr}^
    13b8:	6d726100 	ldfvse	f6, [r2, #-0]
    13bc:	5f676572 	svcpl	0x00676572
    13c0:	61003972 	tstvs	r0, r2, ror r9
    13c4:	65726d72 	ldrbvs	r6, [r2, #-3442]!	; 0xd72
    13c8:	70665f67 	rsbvc	r5, r6, r7, ror #30
    13cc:	65687400 	strbvs	r7, [r8, #-1024]!	; 0x400
    13d0:	6f72705f 	svcvs	0x0072705f
    13d4:	72610063 	rsbvc	r0, r1, #99	; 0x63
    13d8:	6765726d 	strbvs	r7, [r5, -sp, ror #4]!
    13dc:	0031765f 	eorseq	r7, r1, pc, asr r6
    13e0:	726d7261 	rsbvc	r7, sp, #268435462	; 0x10000006
    13e4:	765f6765 	ldrbvc	r6, [pc], -r5, ror #14
    13e8:	72610032 	rsbvc	r0, r1, #50	; 0x32
    13ec:	6765726d 	strbvs	r7, [r5, -sp, ror #4]!
    13f0:	0033765f 	eorseq	r7, r3, pc, asr r6
    13f4:	726d7261 	rsbvc	r7, sp, #268435462	; 0x10000006
    13f8:	765f6765 	ldrbvc	r6, [pc], -r5, ror #14
    13fc:	72610034 	rsbvc	r0, r1, #52	; 0x34
    1400:	6765726d 	strbvs	r7, [r5, -sp, ror #4]!
    1404:	0035765f 	eorseq	r7, r5, pc, asr r6
    1408:	726d7261 	rsbvc	r7, sp, #268435462	; 0x10000006
    140c:	765f6765 	ldrbvc	r6, [pc], -r5, ror #14
    1410:	72610036 	rsbvc	r0, r1, #54	; 0x36
    1414:	6765726d 	strbvs	r7, [r5, -sp, ror #4]!
    1418:	0037765f 	eorseq	r7, r7, pc, asr r6
    141c:	726d7261 	rsbvc	r7, sp, #268435462	; 0x10000006
    1420:	765f6765 	ldrbvc	r6, [pc], -r5, ror #14
    1424:	70740038 	rsbsvc	r0, r4, r8, lsr r0
    1428:	65675f6c 	strbvs	r5, [r7, #-3948]!	; 0xf6c
    142c:	61745f74 	cmnvs	r4, r4, ror pc
    1430:	6c5f6b73 	mrrcvs	11, 7, r6, pc, cr3	; <UNPREDICTABLE>
    1434:	006b636f 	rsbeq	r6, fp, pc, ror #6
    1438:	656c6469 	strbvs	r6, [ip, #-1129]!	; 0x469
    143c:	7361745f 	cmnvc	r1, #1593835520	; 0x5f000000
    1440:	6f635f6b 	svcvs	0x00635f6b
    1444:	7865746e 	stmdavc	r5!, {r1, r2, r3, r5, r6, sl, ip, sp, lr}^
    1448:	656e0074 	strbvs	r0, [lr, #-116]!	; 0x74
    144c:	64657473 	strbtvs	r7, [r5], #-1139	; 0x473
    1450:	72656b5f 	rsbvc	r6, r5, #97280	; 0x17c00
    1454:	5f6c656e 	svcpl	0x006c656e
    1458:	72746e65 	rsbsvc	r6, r4, #1616	; 0x650
    145c:	65636e61 	strbvs	r6, [r3, #-3681]!	; 0xe61
    1460:	756f635f 	strbvc	r6, [pc, #-863]!	; 1109 <unused+0x1105>
    1464:	7265746e 	rsbvc	r7, r5, #1845493760	; 0x6e000000
    1468:	6c707400 	cfldrdvs	mvd7, [r0], #-0
    146c:	616e655f 	cmnvs	lr, pc, asr r5
    1470:	5f656c62 	svcpl	0x00656c62
    1474:	65746e69 	ldrbvs	r6, [r4, #-3689]!	; 0xe69
    1478:	70757272 	rsbsvc	r7, r5, r2, ror r2
    147c:	61007374 	tstvs	r0, r4, ror r3
    1480:	65726d72 	ldrbvs	r6, [r2, #-3442]!	; 0xd72
    1484:	31725f67 	cmncc	r2, r7, ror #30
    1488:	72610030 	rsbvc	r0, r1, #48	; 0x30
    148c:	6765726d 	strbvs	r7, [r5, -sp, ror #4]!
    1490:	3131725f 	teqcc	r1, pc, asr r2
    1494:	6d726100 	ldfvse	f6, [r2, #-0]
    1498:	5f676572 	svcpl	0x00676572
    149c:	00333172 	eorseq	r3, r3, r2, ror r1
    14a0:	726d7261 	rsbvc	r7, sp, #268435462	; 0x10000006
    14a4:	725f6765 	subsvc	r6, pc, #26476544	; 0x1940000
    14a8:	74003431 	strvc	r3, [r0], #-1073	; 0x431
    14ac:	695f6c70 	ldmdbvs	pc, {r4, r5, r6, sl, fp, sp, lr}^	; <UNPREDICTABLE>
    14b0:	5f74696e 	svcpl	0x0074696e
    14b4:	6863616d 	stmdavs	r3!, {r0, r2, r3, r5, r6, r8, sp, lr}^
    14b8:	5f656e69 	svcpl	0x00656e69
    14bc:	656e6567 	strbvs	r6, [lr, #-1383]!	; 0x567
    14c0:	00636972 	rsbeq	r6, r3, r2, ror r9
    14c4:	5f6c7074 	svcpl	0x006c7074
    14c8:	61736964 	cmnvs	r3, r4, ror #18
    14cc:	5f656c62 	svcpl	0x00656c62
    14d0:	65746e69 	ldrbvs	r6, [r4, #-3689]!	; 0xe69
    14d4:	70757272 	rsbsvc	r7, r5, r2, ror r2
    14d8:	61007374 	tstvs	r0, r4, ror r3
    14dc:	65726d72 	ldrbvs	r6, [r2, #-3442]!	; 0xd72
    14e0:	31615f67 	cmncc	r1, r7, ror #30
    14e4:	6d726100 	ldfvse	f6, [r2, #-0]
    14e8:	5f676572 	svcpl	0x00676572
    14ec:	61003261 	tstvs	r0, r1, ror #4
    14f0:	65726d72 	ldrbvs	r6, [r2, #-3442]!	; 0xd72
    14f4:	33615f67 	cmncc	r1, #412	; 0x19c
    14f8:	6d726100 	ldfvse	f6, [r2, #-0]
    14fc:	5f676572 	svcpl	0x00676572
    1500:	61003461 	tstvs	r0, r1, ror #8
    1504:	65726d72 	ldrbvs	r6, [r2, #-3442]!	; 0xd72
    1508:	31725f67 	cmncc	r2, r7, ror #30
    150c:	72610032 	rsbvc	r0, r1, #50	; 0x32
    1510:	6765726d 	strbvs	r7, [r5, -sp, ror #4]!
    1514:	006c735f 	rsbeq	r7, ip, pc, asr r3
    1518:	726d7261 	rsbvc	r7, sp, #268435462	; 0x10000006
    151c:	735f6765 	cmpvc	pc, #26476544	; 0x1940000
    1520:	6f630070 	svcvs	0x00630070
    1524:	635f6572 	cmpvs	pc, #478150656	; 0x1c800000
    1528:	65746e6f 	ldrbvs	r6, [r4, #-3695]!	; 0xe6f
    152c:	62007478 	andvs	r7, r0, #120, 8	; 0x78000000
    1530:	38326d63 	ldmdacc	r2!, {r0, r1, r5, r6, r8, sl, fp, sp, lr}
    1534:	645f3633 	ldrbvs	r3, [pc], #-1587	; 153c <unused+0x1538>
    1538:	79616c65 	stmdbvc	r1!, {r0, r2, r5, r6, sl, fp, sp, lr}^
    153c:	2f2e2e00 	svccs	0x002e2e00
    1540:	2e2f2e2e 	cdpcs	14, 2, cr2, cr15, cr14, {1}
    1544:	2e2e2f2e 	cdpcs	15, 2, cr2, cr14, cr14, {1}
    1548:	2f2e2e2f 	svccs	0x002e2e2f
    154c:	6d2f2e2e 	stcvs	14, cr2, [pc, #-184]!	; 149c <unused+0x1498>
    1550:	69686361 	stmdbvs	r8!, {r0, r5, r6, r8, r9, sp, lr}^
    1554:	2f73656e 	svccs	0x0073656e
    1558:	74726f63 	ldrbtvc	r6, [r2], #-3939	; 0xf63
    155c:	612d7865 			; <UNDEFINED> instruction: 0x612d7865
    1560:	6d72612f 	ldfvse	f6, [r2, #-188]!	; 0xffffff44
    1564:	622f3776 	eorvs	r3, pc, #30932992	; 0x1d80000
    1568:	38326d63 	ldmdacc	r2!, {r0, r1, r5, r6, r8, sl, fp, sp, lr}
    156c:	622f3633 	eorvs	r3, pc, #53477376	; 0x3300000
    1570:	38326d63 	ldmdacc	r2!, {r0, r1, r5, r6, r8, sl, fp, sp, lr}
    1574:	6d5f3633 	ldclvs	6, cr3, [pc, #-204]	; 14b0 <unused+0x14ac>
    1578:	2e637369 	cdpcs	3, 6, cr7, cr3, cr9, {3}
    157c:	70740063 	rsbsvc	r0, r4, r3, rrx
    1580:	72615f6c 	rsbvc	r5, r1, #108, 30	; 0x1b0
    1584:	5f37766d 	svcpl	0x0037766d
    1588:	746f6f62 	strbtvc	r6, [pc], #-3938	; 1590 <unused+0x158c>
    158c:	61727473 	cmnvs	r2, r3, ror r4
    1590:	74735f70 	ldrbtvc	r5, [r3], #-3952	; 0xf70
    1594:	32656761 	rsbcc	r6, r5, #25427968	; 0x1840000
    1598:	2f2e2e00 	svccs	0x002e2e00
    159c:	2e2f2e2e 	cdpcs	14, 2, cr2, cr15, cr14, {1}
    15a0:	2e2e2f2e 	cdpcs	15, 2, cr2, cr14, cr14, {1}
    15a4:	2f2e2e2f 	svccs	0x002e2e2f
    15a8:	6d2f2e2e 	stcvs	14, cr2, [pc, #-184]!	; 14f8 <unused+0x14f4>
    15ac:	69686361 	stmdbvs	r8!, {r0, r5, r6, r8, r9, sp, lr}^
    15b0:	2f73656e 	svccs	0x0073656e
    15b4:	74726f63 	ldrbtvc	r6, [r2], #-3939	; 0xf63
    15b8:	612d7865 			; <UNDEFINED> instruction: 0x612d7865
    15bc:	6d72612f 	ldfvse	f6, [r2, #-188]!	; 0xffffff44
    15c0:	622f3776 	eorvs	r3, pc, #30932992	; 0x1d80000
    15c4:	38326d63 	ldmdacc	r2!, {r0, r1, r5, r6, r8, sl, fp, sp, lr}
    15c8:	722f3633 	eorvc	r3, pc, #53477376	; 0x3300000
    15cc:	2f326970 	svccs	0x00326970
    15d0:	32697072 	rsbcc	r7, r9, #114	; 0x72
    15d4:	6f6f625f 	svcvs	0x006f625f
    15d8:	72747374 	rsbsvc	r7, r4, #116, 6	; 0xd0000001
    15dc:	735f7061 	cmpvc	pc, #97	; 0x61
    15e0:	65676174 	strbvs	r6, [r7, #-372]!	; 0x174
    15e4:	00632e32 	rsbeq	r2, r3, r2, lsr lr
    15e8:	5f6c7074 	svcpl	0x006c7074
    15ec:	74756873 	ldrbtvc	r6, [r5], #-2163	; 0x873
    15f0:	6e776f64 	cdpvs	15, 7, cr6, cr7, cr4, {3}
    15f4:	2f2e2e00 	svccs	0x002e2e00
    15f8:	2e2f2e2e 	cdpcs	14, 2, cr2, cr15, cr14, {1}
    15fc:	2e2e2f2e 	cdpcs	15, 2, cr2, cr14, cr14, {1}
    1600:	2f2e2e2f 	svccs	0x002e2e2f
    1604:	6d2f2e2e 	stcvs	14, cr2, [pc, #-184]!	; 1554 <unused+0x1550>
    1608:	69686361 	stmdbvs	r8!, {r0, r5, r6, r8, r9, sp, lr}^
    160c:	2f73656e 	svccs	0x0073656e
    1610:	74726f63 	ldrbtvc	r6, [r2], #-3939	; 0xf63
    1614:	612d7865 			; <UNDEFINED> instruction: 0x612d7865
    1618:	6d72612f 	ldfvse	f6, [r2, #-188]!	; 0xffffff44
    161c:	622f3776 	eorvs	r3, pc, #30932992	; 0x1d80000
    1620:	38326d63 	ldmdacc	r2!, {r0, r1, r5, r6, r8, sl, fp, sp, lr}
    1624:	722f3633 	eorvc	r3, pc, #53477376	; 0x3300000
    1628:	2f326970 	svccs	0x00326970
    162c:	32697072 	rsbcc	r7, r9, #114	; 0x72
    1630:	6c70745f 	cfldrdvs	mvd7, [r0], #-380	; 0xfffffe84
    1634:	7574735f 	ldrbvc	r7, [r4, #-863]!	; 0x35f
    1638:	632e7362 			; <UNDEFINED> instruction: 0x632e7362
    163c:	6c707400 	cfldrdvs	mvd7, [r0], #-0
    1640:	696e695f 	stmdbvs	lr!, {r0, r1, r2, r3, r4, r6, r8, fp, sp, lr}^
    1644:	616d5f74 	smcvs	54772	; 0xd5f4
    1648:	6e696863 	cdpvs	8, 6, cr6, cr9, cr3, {3}
    164c:	73690065 	cmnvc	r9, #101	; 0x65
    1650:	65765f72 	ldrbvs	r5, [r6, #-3954]!	; 0xf72
    1654:	726f7463 	rsbvc	r7, pc, #1660944384	; 0x63000000
    1658:	61656c00 	cmnvs	r5, r0, lsl #24
    165c:	676e6964 	strbvs	r6, [lr, -r4, ror #18]!
    1660:	72657a5f 	rsbvc	r7, r5, #389120	; 0x5f000
    1664:	7400736f 	strvc	r7, [r0], #-879	; 0x36f
    1668:	615f6c70 	cmpvs	pc, r0, ror ip	; <UNPREDICTABLE>
    166c:	735f6d72 	cmpvc	pc, #7296	; 0x1c80
    1670:	72616275 	rsbvc	r6, r1, #1342177287	; 0x50000007
    1674:	695f6863 	ldmdbvs	pc, {r0, r1, r5, r6, fp, sp, lr}^	; <UNPREDICTABLE>
    1678:	685f7172 	ldmdavs	pc, {r1, r4, r5, r6, r8, ip, sp, lr}^	; <UNPREDICTABLE>
    167c:	6c646e61 	stclvs	14, cr6, [r4], #-388	; 0xfffffe7c
    1680:	69007265 	stmdbvs	r0, {r0, r2, r5, r6, r9, ip, sp, lr}
    1684:	695f7273 	ldmdbvs	pc, {r0, r1, r4, r5, r6, r9, ip, sp, lr}^	; <UNPREDICTABLE>
    1688:	65645f64 	strbvs	r5, [r4, #-3940]!	; 0xf64
    168c:	2e2e0063 	cdpcs	0, 2, cr0, cr14, cr3, {3}
    1690:	2f2e2e2f 	svccs	0x002e2e2f
    1694:	2e2f2e2e 	cdpcs	14, 2, cr2, cr15, cr14, {1}
    1698:	2e2e2f2e 	cdpcs	15, 2, cr2, cr14, cr14, {1}
    169c:	2f2e2e2f 	svccs	0x002e2e2f
    16a0:	6863616d 	stmdavs	r3!, {r0, r2, r3, r5, r6, r8, sp, lr}^
    16a4:	73656e69 	cmnvc	r5, #1680	; 0x690
    16a8:	726f632f 	rsbvc	r6, pc, #-1140850688	; 0xbc000000
    16ac:	2d786574 	cfldr64cs	mvdx6, [r8, #-464]!	; 0xfffffe30
    16b0:	72612f61 	rsbvc	r2, r1, #388	; 0x184
    16b4:	2f37766d 	svccs	0x0037766d
    16b8:	326d6362 	rsbcc	r6, sp, #-2013265919	; 0x88000001
    16bc:	2f363338 	svccs	0x00363338
    16c0:	32697072 	rsbcc	r7, r9, #114	; 0x72
    16c4:	6970722f 	ldmdbvs	r0!, {r0, r1, r2, r3, r5, r9, ip, sp, lr}^
    16c8:	72695f32 	rsbvc	r5, r9, #50, 30	; 0xc8
    16cc:	00632e71 	rsbeq	r2, r3, r1, ror lr
    16d0:	63617274 	cmnvs	r1, #116, 4	; 0x40000007
    16d4:	6f635f65 	svcvs	0x00635f65
    16d8:	7865746e 	stmdavc	r5!, {r1, r2, r3, r5, r6, sl, ip, sp, lr}^
    16dc:	72740074 	rsbsvc	r0, r4, #116	; 0x74
    16e0:	5f656361 	svcpl	0x00656361
    16e4:	72740038 	rsbsvc	r0, r4, #56	; 0x38
    16e8:	5f656361 	svcpl	0x00656361
    16ec:	656c6469 	strbvs	r6, [ip, #-1129]!	; 0x469
    16f0:	2f2e2e00 	svccs	0x002e2e00
    16f4:	2e2f2e2e 	cdpcs	14, 2, cr2, cr15, cr14, {1}
    16f8:	2e2e2f2e 	cdpcs	15, 2, cr2, cr14, cr14, {1}
    16fc:	2f2e2e2f 	svccs	0x002e2e2f
    1700:	6d2f2e2e 	stcvs	14, cr2, [pc, #-184]!	; 1650 <unused+0x164c>
    1704:	69686361 	stmdbvs	r8!, {r0, r5, r6, r8, r9, sp, lr}^
    1708:	2f73656e 	svccs	0x0073656e
    170c:	74726f63 	ldrbtvc	r6, [r2], #-3939	; 0xf63
    1710:	612d7865 			; <UNDEFINED> instruction: 0x612d7865
    1714:	6d72612f 	ldfvse	f6, [r2, #-188]!	; 0xffffff44
    1718:	622f3776 	eorvs	r3, pc, #30932992	; 0x1d80000
    171c:	38326d63 	ldmdacc	r2!, {r0, r1, r5, r6, r8, sl, fp, sp, lr}
    1720:	722f3633 	eorvc	r3, pc, #53477376	; 0x3300000
    1724:	2f326970 	svccs	0x00326970
    1728:	32697072 	rsbcc	r7, r9, #114	; 0x72
    172c:	6172745f 	cmnvs	r2, pc, asr r4
    1730:	632e6563 			; <UNDEFINED> instruction: 0x632e6563
    1734:	61727400 	cmnvs	r2, r0, lsl #8
    1738:	315f6563 	cmpcc	pc, r3, ror #10
    173c:	72740030 	rsbsvc	r0, r4, #48	; 0x30
    1740:	5f656361 	svcpl	0x00656361
    1744:	73676572 	cmnvc	r7, #478150656	; 0x1c800000
    1748:	61727400 	cmnvs	r2, r0, lsl #8
    174c:	375f6563 	ldrbcc	r6, [pc, -r3, ror #10]
    1750:	7400315f 	strvc	r3, [r0], #-351	; 0x15f
    1754:	65636172 	strbvs	r6, [r3, #-370]!	; 0x172
    1758:	315f385f 	cmpcc	pc, pc, asr r8	; <UNPREDICTABLE>
    175c:	61727400 	cmnvs	r2, r0, lsl #8
    1760:	6f5f6563 	svcvs	0x005f6563
    1764:	74007475 	strvc	r7, [r0], #-1141	; 0x475
    1768:	65636172 	strbvs	r6, [r3, #-370]!	; 0x172
    176c:	7400315f 	strvc	r3, [r0], #-351	; 0x15f
    1770:	65636172 	strbvs	r6, [r3, #-370]!	; 0x172
    1774:	7400325f 	strvc	r3, [r0], #-607	; 0x25f
    1778:	65636172 	strbvs	r6, [r3, #-370]!	; 0x172
    177c:	7400335f 	strvc	r3, [r0], #-863	; 0x35f
    1780:	65636172 	strbvs	r6, [r3, #-370]!	; 0x172
    1784:	7400345f 	strvc	r3, [r0], #-1119	; 0x45f
    1788:	65636172 	strbvs	r6, [r3, #-370]!	; 0x172
    178c:	7400355f 	strvc	r3, [r0], #-1375	; 0x55f
    1790:	65636172 	strbvs	r6, [r3, #-370]!	; 0x172
    1794:	7400365f 	strvc	r3, [r0], #-1631	; 0x65f
    1798:	65636172 	strbvs	r6, [r3, #-370]!	; 0x172
    179c:	7400375f 	strvc	r3, [r0], #-1887	; 0x75f
    17a0:	65636172 	strbvs	r6, [r3, #-370]!	; 0x172
    17a4:	7400395f 	strvc	r3, [r0], #-2399	; 0x95f
    17a8:	65636172 	strbvs	r6, [r3, #-370]!	; 0x172
    17ac:	006e695f 	rsbeq	r6, lr, pc, asr r9
    17b0:	7473796d 	ldrbtvc	r7, [r3], #-2413	; 0x96d
    17b4:	6e656c72 	mcrvs	12, 3, r6, cr5, cr2, {3}
    17b8:	73657400 	cmnvc	r5, #0, 8
    17bc:	61755f74 	cmnvs	r5, r4, ror pc
    17c0:	75007472 	strvc	r7, [r0, #-1138]	; 0x472
    17c4:	5f747261 	svcpl	0x00747261
    17c8:	74697277 	strbtvc	r7, [r9], #-631	; 0x277
    17cc:	74735f65 	ldrbtvc	r5, [r3], #-3941	; 0xf65
    17d0:	676e6972 			; <UNDEFINED> instruction: 0x676e6972
    17d4:	61750073 	cmnvs	r5, r3, ror r0
    17d8:	695f7472 	ldmdbvs	pc, {r1, r4, r5, r6, sl, ip, sp, lr}^	; <UNPREDICTABLE>
    17dc:	0074696e 	rsbseq	r6, r4, lr, ror #18
    17e0:	74726175 	ldrbtvc	r6, [r2], #-373	; 0x175
    17e4:	6972775f 	ldmdbvs	r2!, {r0, r1, r2, r3, r4, r6, r8, r9, sl, ip, sp, lr}^
    17e8:	735f6574 	cmpvc	pc, #116, 10	; 0x1d000000
    17ec:	6e697274 	mcrvs	2, 3, r7, cr9, cr4, {3}
    17f0:	2e2e0067 	cdpcs	0, 2, cr0, cr14, cr7, {3}
    17f4:	2f2e2e2f 	svccs	0x002e2e2f
    17f8:	2e2f2e2e 	cdpcs	14, 2, cr2, cr15, cr14, {1}
    17fc:	2e2e2f2e 	cdpcs	15, 2, cr2, cr14, cr14, {1}
    1800:	2f2e2e2f 	svccs	0x002e2e2f
    1804:	6863616d 	stmdavs	r3!, {r0, r2, r3, r5, r6, r8, sp, lr}^
    1808:	73656e69 	cmnvc	r5, #1680	; 0x690
    180c:	726f632f 	rsbvc	r6, pc, #-1140850688	; 0xbc000000
    1810:	2d786574 	cfldr64cs	mvdx6, [r8, #-464]!	; 0xfffffe30
    1814:	72612f61 	rsbvc	r2, r1, #388	; 0x184
    1818:	2f37766d 	svccs	0x0037766d
    181c:	326d6362 	rsbcc	r6, sp, #-2013265919	; 0x88000001
    1820:	2f363338 	svccs	0x00363338
    1824:	32697072 	rsbcc	r7, r9, #114	; 0x72
    1828:	6972642f 	ldmdbvs	r2!, {r0, r1, r2, r3, r5, sl, sp, lr}^
    182c:	73726576 	cmnvc	r2, #494927872	; 0x1d800000
    1830:	6970722f 	ldmdbvs	r0!, {r0, r1, r2, r3, r5, r9, ip, sp, lr}^
    1834:	61755f32 	cmnvs	r5, r2, lsr pc
    1838:	632e7472 			; <UNDEFINED> instruction: 0x632e7472
    183c:	746f6e00 	strbtvc	r6, [pc], #-3584	; 1844 <unused+0x1840>
    1840:	676e6968 	strbvs	r6, [lr, -r8, ror #18]!
    1844:	78656800 	stmdavc	r5!, {fp, sp, lr}^
    1848:	69727473 	ldmdbvs	r2!, {r0, r1, r4, r5, r6, sl, ip, sp, lr}^
    184c:	7500676e 	strvc	r6, [r0, #-1902]	; 0x76e
    1850:	5f747261 	svcpl	0x00747261
    1854:	61736964 	cmnvs	r3, r4, ror #18
    1858:	00656c62 	rsbeq	r6, r5, r2, ror #24
    185c:	74726175 	ldrbtvc	r6, [r2], #-373	; 0x175
    1860:	6972775f 	ldmdbvs	r2!, {r0, r1, r2, r3, r4, r6, r8, r9, sl, ip, sp, lr}^
    1864:	635f6574 	cmpvs	pc, #116, 10	; 0x1d000000
    1868:	00726168 	rsbseq	r6, r2, r8, ror #2
    186c:	73786568 	cmnvc	r8, #104, 10	; 0x1a000000
    1870:	6e697274 	mcrvs	2, 3, r7, cr9, cr4, {3}
    1874:	62007367 	andvs	r7, r0, #-1677721599	; 0x9c000001
    1878:	65666675 	strbvs	r6, [r6, #-1653]!	; 0x675
    187c:	61750072 	cmnvs	r5, r2, ror r0
    1880:	775f7472 			; <UNDEFINED> instruction: 0x775f7472
    1884:	65746972 	ldrbvs	r6, [r4, #-2418]!	; 0x972
    1888:	6168635f 	cmnvs	r8, pc, asr r3
    188c:	Address 0x000000000000188c is out of bounds.


Disassembly of section .comment:

00000000 <.comment>:
   0:	3a434347 	bcc	10d0d24 <__SP_usr_+0x10712a4>
   4:	4e472820 	cdpmi	8, 4, cr2, cr7, cr0, {1}
   8:	6f542055 	svcvs	0x00542055
   c:	20736c6f 	rsbscs	r6, r3, pc, ror #24
  10:	20726f66 	rsbscs	r6, r2, r6, ror #30
  14:	204d5241 	subcs	r5, sp, r1, asr #4
  18:	65626d45 	strbvs	r6, [r2, #-3397]!	; 0xd45
  1c:	64656464 	strbtvs	r6, [r5], #-1124	; 0x464
  20:	6f725020 	svcvs	0x00725020
  24:	73736563 	cmnvc	r3, #415236096	; 0x18c00000
  28:	2973726f 	ldmdbcs	r3!, {r0, r1, r2, r3, r5, r6, r9, ip, sp, lr}^
  2c:	392e3420 	stmdbcc	lr!, {r5, sl, ip, sp}
  30:	3220332e 	eorcc	r3, r0, #-1207959552	; 0xb8000000
  34:	30353130 	eorscc	r3, r5, r0, lsr r1
  38:	20393235 	eorscs	r3, r9, r5, lsr r2
  3c:	6c657228 	sfmvs	f7, 2, [r5], #-160	; 0xffffff60
  40:	65736165 	ldrbvs	r6, [r3, #-357]!	; 0x165
  44:	415b2029 	cmpmi	fp, r9, lsr #32
  48:	652f4d52 	strvs	r4, [pc, #-3410]!	; fffff2fe <__SP_usr_+0xfff9f87e>
  4c:	6465626d 	strbtvs	r6, [r5], #-621	; 0x26d
  50:	2d646564 	cfstr64cs	mvdx6, [r4, #-400]!	; 0xfffffe70
  54:	2d395f34 	ldccs	15, cr5, [r9, #-208]!	; 0xffffff30
  58:	6e617262 	cdpvs	2, 6, cr7, cr1, cr2, {3}
  5c:	72206863 	eorvc	r6, r0, #6488064	; 0x630000
  60:	73697665 	cmnvc	r9, #105906176	; 0x6500000
  64:	206e6f69 	rsbcs	r6, lr, r9, ror #30
  68:	39373232 	ldmdbcc	r7!, {r1, r4, r5, r9, ip, sp}
  6c:	005d3737 	subseq	r3, sp, r7, lsr r7

Disassembly of section .ARM.attributes:

00000000 <.ARM.attributes>:
   0:	00003841 	andeq	r3, r0, r1, asr #16
   4:	61656100 	cmnvs	r5, r0, lsl #2
   8:	01006962 	tsteq	r0, r2, ror #18
   c:	0000002e 	andeq	r0, r0, lr, lsr #32
  10:	726f4305 	rsbvc	r4, pc, #335544320	; 0x14000000
  14:	2d786574 	cfldr64cs	mvdx6, [r8, #-464]!	; 0xfffffe30
  18:	06003741 	streq	r3, [r0], -r1, asr #14
  1c:	0841070a 	stmdaeq	r1, {r1, r3, r8, r9, sl}^
  20:	12020901 	andne	r0, r2, #16384	; 0x4000
  24:	15011404 	strne	r1, [r1, #-1028]	; 0x404
  28:	18031701 	stmdane	r3, {r0, r8, r9, sl, ip}
  2c:	1e011a01 	vmlane.f32	s2, s2, s2
  30:	2a012206 	bcs	48850 <vectors_end+0x3a1d0>
  34:	44022c01 	strmi	r2, [r2], #-3073	; 0xc01
  38:	Address 0x0000000000000038 is out of bounds.


Disassembly of section .debug_frame:

00000000 <.debug_frame>:
   0:	0000000c 	andeq	r0, r0, ip
   4:	ffffffff 			; <UNDEFINED> instruction: 0xffffffff
   8:	7c020001 	stcvc	0, cr0, [r2], {1}
   c:	000d0c0e 	andeq	r0, sp, lr, lsl #24
  10:	0000001c 	andeq	r0, r0, ip, lsl r0
  14:	00000000 	andeq	r0, r0, r0
  18:	000097ec 	andeq	r9, r0, ip, ror #15
  1c:	000000e4 	andeq	r0, r0, r4, ror #1
  20:	8b040e42 	blhi	103930 <__SP_usr_+0xa3eb0>
  24:	0b0d4201 	bleq	350830 <__SP_usr_+0x2f0db0>
  28:	0d0d6a02 	vstreq	s12, [sp, #-8]
  2c:	000ecb42 	andeq	ip, lr, r2, asr #22
  30:	0000001c 	andeq	r0, r0, ip, lsl r0
  34:	00000000 	andeq	r0, r0, r0
  38:	000098d0 	ldrdeq	r9, [r0], -r0
  3c:	000000ec 	andeq	r0, r0, ip, ror #1
  40:	8b080e42 	blhi	203950 <__SP_usr_+0x1a3ed0>
  44:	42018e02 	andmi	r8, r1, #2, 28
  48:	02040b0c 	andeq	r0, r4, #12, 22	; 0x3000
  4c:	080d0c70 	stmdaeq	sp, {r4, r5, r6, sl, fp}
  50:	0000001c 	andeq	r0, r0, ip, lsl r0
  54:	00000000 	andeq	r0, r0, r0
  58:	000099bc 			; <UNDEFINED> instruction: 0x000099bc
  5c:	00000158 	andeq	r0, r0, r8, asr r1
  60:	8b080e42 	blhi	203970 <__SP_usr_+0x1a3ef0>
  64:	42018e02 	andmi	r8, r1, #2, 28
  68:	02040b0c 	andeq	r0, r4, #12, 22	; 0x3000
  6c:	080d0ca6 	stmdaeq	sp, {r1, r2, r5, r7, sl, fp}
  70:	0000001c 	andeq	r0, r0, ip, lsl r0
  74:	00000000 	andeq	r0, r0, r0
  78:	00009b14 	andeq	r9, r0, r4, lsl fp
  7c:	000000dc 	ldrdeq	r0, [r0], -ip
  80:	8b080e42 	blhi	203990 <__SP_usr_+0x1a3f10>
  84:	42018e02 	andmi	r8, r1, #2, 28
  88:	02040b0c 	andeq	r0, r4, #12, 22	; 0x3000
  8c:	080d0c68 	stmdaeq	sp, {r3, r5, r6, sl, fp}
  90:	0000001c 	andeq	r0, r0, ip, lsl r0
  94:	00000000 	andeq	r0, r0, r0
  98:	00009bf0 	strdeq	r9, [r0], -r0
  9c:	000000b0 	strheq	r0, [r0], -r0	; <UNPREDICTABLE>
  a0:	8b080e42 	blhi	2039b0 <__SP_usr_+0x1a3f30>
  a4:	42018e02 	andmi	r8, r1, #2, 28
  a8:	02040b0c 	andeq	r0, r4, #12, 22	; 0x3000
  ac:	080d0c52 	stmdaeq	sp, {r1, r4, r6, sl, fp}
  b0:	0000001c 	andeq	r0, r0, ip, lsl r0
  b4:	00000000 	andeq	r0, r0, r0
  b8:	00009ca0 	andeq	r9, r0, r0, lsr #25
  bc:	00000048 	andeq	r0, r0, r8, asr #32
  c0:	8b040e42 	blhi	1039d0 <__SP_usr_+0xa3f50>
  c4:	0b0d4201 	bleq	3508d0 <__SP_usr_+0x2f0e50>
  c8:	420d0d5c 	andmi	r0, sp, #92, 26	; 0x1700
  cc:	00000ecb 	andeq	r0, r0, fp, asr #29
  d0:	0000001c 	andeq	r0, r0, ip, lsl r0
  d4:	00000000 	andeq	r0, r0, r0
  d8:	00009ce8 	andeq	r9, r0, r8, ror #25
  dc:	000000c8 	andeq	r0, r0, r8, asr #1
  e0:	8b080e42 	blhi	2039f0 <__SP_usr_+0x1a3f70>
  e4:	42018e02 	andmi	r8, r1, #2, 28
  e8:	02040b0c 	andeq	r0, r4, #12, 22	; 0x3000
  ec:	080d0c5e 	stmdaeq	sp, {r1, r2, r3, r4, r6, sl, fp}
  f0:	0000001c 	andeq	r0, r0, ip, lsl r0
  f4:	00000000 	andeq	r0, r0, r0
  f8:	00009db0 			; <UNDEFINED> instruction: 0x00009db0
  fc:	000000a4 	andeq	r0, r0, r4, lsr #1
 100:	8b040e42 	blhi	103a10 <__SP_usr_+0xa3f90>
 104:	0b0d4201 	bleq	350910 <__SP_usr_+0x2f0e90>
 108:	0d0d4a02 	vstreq	s8, [sp, #-8]
 10c:	000ecb42 	andeq	ip, lr, r2, asr #22
 110:	0000001c 	andeq	r0, r0, ip, lsl r0
 114:	00000000 	andeq	r0, r0, r0
 118:	00009e54 	andeq	r9, r0, r4, asr lr
 11c:	000000c4 	andeq	r0, r0, r4, asr #1
 120:	8b040e42 	blhi	103a30 <__SP_usr_+0xa3fb0>
 124:	0b0d4201 	bleq	350930 <__SP_usr_+0x2f0eb0>
 128:	0d0d5a02 	vstreq	s10, [sp, #-8]
 12c:	000ecb42 	andeq	ip, lr, r2, asr #22
 130:	0000001c 	andeq	r0, r0, ip, lsl r0
 134:	00000000 	andeq	r0, r0, r0
 138:	00009f18 	andeq	r9, r0, r8, lsl pc
 13c:	0000007c 	andeq	r0, r0, ip, ror r0
 140:	8b040e42 	blhi	103a50 <__SP_usr_+0xa3fd0>
 144:	0b0d4201 	bleq	350950 <__SP_usr_+0x2f0ed0>
 148:	420d0d76 	andmi	r0, sp, #7552	; 0x1d80
 14c:	00000ecb 	andeq	r0, r0, fp, asr #29
 150:	00000018 	andeq	r0, r0, r8, lsl r0
 154:	00000000 	andeq	r0, r0, r0
 158:	00009f94 	muleq	r0, r4, pc	; <UNPREDICTABLE>
 15c:	0000005c 	andeq	r0, r0, ip, asr r0
 160:	8b080e42 	blhi	203a70 <__SP_usr_+0x1a3ff0>
 164:	42018e02 	andmi	r8, r1, #2, 28
 168:	00040b0c 	andeq	r0, r4, ip, lsl #22
 16c:	0000001c 	andeq	r0, r0, ip, lsl r0
 170:	00000000 	andeq	r0, r0, r0
 174:	00009ff0 	strdeq	r9, [r0], -r0
 178:	00000114 	andeq	r0, r0, r4, lsl r1
 17c:	8b080e42 	blhi	203a8c <__SP_usr_+0x1a400c>
 180:	42018e02 	andmi	r8, r1, #2, 28
 184:	02040b0c 	andeq	r0, r4, #12, 22	; 0x3000
 188:	080d0c84 	stmdaeq	sp, {r2, r7, sl, fp}
 18c:	0000001c 	andeq	r0, r0, ip, lsl r0
 190:	00000000 	andeq	r0, r0, r0
 194:	0000a104 	andeq	sl, r0, r4, lsl #2
 198:	000000b8 	strheq	r0, [r0], -r8
 19c:	8b080e42 	blhi	203aac <__SP_usr_+0x1a402c>
 1a0:	42018e02 	andmi	r8, r1, #2, 28
 1a4:	02040b0c 	andeq	r0, r4, #12, 22	; 0x3000
 1a8:	080d0c56 	stmdaeq	sp, {r1, r2, r4, r6, sl, fp}
 1ac:	0000001c 	andeq	r0, r0, ip, lsl r0
 1b0:	00000000 	andeq	r0, r0, r0
 1b4:	0000a1bc 			; <UNDEFINED> instruction: 0x0000a1bc
 1b8:	00000074 	andeq	r0, r0, r4, ror r0
 1bc:	8b080e42 	blhi	203acc <__SP_usr_+0x1a404c>
 1c0:	42018e02 	andmi	r8, r1, #2, 28
 1c4:	74040b0c 	strvc	r0, [r4], #-2828	; 0xb0c
 1c8:	00080d0c 	andeq	r0, r8, ip, lsl #26
 1cc:	00000018 	andeq	r0, r0, r8, lsl r0
 1d0:	00000000 	andeq	r0, r0, r0
 1d4:	0000a230 	andeq	sl, r0, r0, lsr r2
 1d8:	0000006c 	andeq	r0, r0, ip, rrx
 1dc:	8b080e42 	blhi	203aec <__SP_usr_+0x1a406c>
 1e0:	42018e02 	andmi	r8, r1, #2, 28
 1e4:	00040b0c 	andeq	r0, r4, ip, lsl #22
 1e8:	00000018 	andeq	r0, r0, r8, lsl r0
 1ec:	00000000 	andeq	r0, r0, r0
 1f0:	0000a29c 	muleq	r0, ip, r2
 1f4:	00000050 	andeq	r0, r0, r0, asr r0
 1f8:	8b080e42 	blhi	203b08 <__SP_usr_+0x1a4088>
 1fc:	42018e02 	andmi	r8, r1, #2, 28
 200:	00040b0c 	andeq	r0, r4, ip, lsl #22
 204:	00000018 	andeq	r0, r0, r8, lsl r0
 208:	00000000 	andeq	r0, r0, r0
 20c:	0000a2ec 	andeq	sl, r0, ip, ror #5
 210:	00000020 	andeq	r0, r0, r0, lsr #32
 214:	8b080e42 	blhi	203b24 <__SP_usr_+0x1a40a4>
 218:	42018e02 	andmi	r8, r1, #2, 28
 21c:	00040b0c 	andeq	r0, r4, ip, lsl #22
 220:	0000001c 	andeq	r0, r0, ip, lsl r0
 224:	00000000 	andeq	r0, r0, r0
 228:	0000a30c 	andeq	sl, r0, ip, lsl #6
 22c:	000000c4 	andeq	r0, r0, r4, asr #1
 230:	8b080e42 	blhi	203b40 <__SP_usr_+0x1a40c0>
 234:	42018e02 	andmi	r8, r1, #2, 28
 238:	02040b0c 	andeq	r0, r4, #12, 22	; 0x3000
 23c:	080d0c5c 	stmdaeq	sp, {r2, r3, r4, r6, sl, fp}
 240:	0000001c 	andeq	r0, r0, ip, lsl r0
 244:	00000000 	andeq	r0, r0, r0
 248:	0000a3d0 	ldrdeq	sl, [r0], -r0
 24c:	00000058 	andeq	r0, r0, r8, asr r0
 250:	8b080e42 	blhi	203b60 <__SP_usr_+0x1a40e0>
 254:	42018e02 	andmi	r8, r1, #2, 28
 258:	66040b0c 	strvs	r0, [r4], -ip, lsl #22
 25c:	00080d0c 	andeq	r0, r8, ip, lsl #26
 260:	0000001c 	andeq	r0, r0, ip, lsl r0
 264:	00000000 	andeq	r0, r0, r0
 268:	0000a428 	andeq	sl, r0, r8, lsr #8
 26c:	0000003c 	andeq	r0, r0, ip, lsr r0
 270:	8b040e42 	blhi	103b80 <__SP_usr_+0xa4100>
 274:	0b0d4201 	bleq	350a80 <__SP_usr_+0x2f1000>
 278:	420d0d56 	andmi	r0, sp, #5504	; 0x1580
 27c:	00000ecb 	andeq	r0, r0, fp, asr #29
 280:	0000001c 	andeq	r0, r0, ip, lsl r0
 284:	00000000 	andeq	r0, r0, r0
 288:	0000a464 	andeq	sl, r0, r4, ror #8
 28c:	00000048 	andeq	r0, r0, r8, asr #32
 290:	8b080e42 	blhi	203ba0 <__SP_usr_+0x1a4120>
 294:	42018e02 	andmi	r8, r1, #2, 28
 298:	5e040b0c 	vmlapl.f64	d0, d4, d12
 29c:	00080d0c 	andeq	r0, r8, ip, lsl #26
 2a0:	0000001c 	andeq	r0, r0, ip, lsl r0
 2a4:	00000000 	andeq	r0, r0, r0
 2a8:	0000a4ac 	andeq	sl, r0, ip, lsr #9
 2ac:	00000118 	andeq	r0, r0, r8, lsl r1
 2b0:	8b080e42 	blhi	203bc0 <__SP_usr_+0x1a4140>
 2b4:	42018e02 	andmi	r8, r1, #2, 28
 2b8:	02040b0c 	andeq	r0, r4, #12, 22	; 0x3000
 2bc:	080d0c86 	stmdaeq	sp, {r1, r2, r7, sl, fp}
 2c0:	00000018 	andeq	r0, r0, r8, lsl r0
 2c4:	00000000 	andeq	r0, r0, r0
 2c8:	0000a5c4 	andeq	sl, r0, r4, asr #11
 2cc:	00000058 	andeq	r0, r0, r8, asr r0
 2d0:	8b080e42 	blhi	203be0 <__SP_usr_+0x1a4160>
 2d4:	42018e02 	andmi	r8, r1, #2, 28
 2d8:	00040b0c 	andeq	r0, r4, ip, lsl #22
 2dc:	0000001c 	andeq	r0, r0, ip, lsl r0
 2e0:	00000000 	andeq	r0, r0, r0
 2e4:	0000a61c 	andeq	sl, r0, ip, lsl r6
 2e8:	00000078 	andeq	r0, r0, r8, ror r0
 2ec:	8b080e42 	blhi	203bfc <__SP_usr_+0x1a417c>
 2f0:	42018e02 	andmi	r8, r1, #2, 28
 2f4:	76040b0c 	strvc	r0, [r4], -ip, lsl #22
 2f8:	00080d0c 	andeq	r0, r8, ip, lsl #26
 2fc:	0000000c 	andeq	r0, r0, ip
 300:	ffffffff 			; <UNDEFINED> instruction: 0xffffffff
 304:	7c020001 	stcvc	0, cr0, [r2], {1}
 308:	000d0c0e 	andeq	r0, sp, lr, lsl #24
 30c:	0000001c 	andeq	r0, r0, ip, lsl r0
 310:	000002fc 	strdeq	r0, [r0], -ip
 314:	0000a694 	muleq	r0, r4, r6
 318:	00000024 	andeq	r0, r0, r4, lsr #32
 31c:	8b040e42 	blhi	103c2c <__SP_usr_+0xa41ac>
 320:	0b0d4201 	bleq	350b2c <__SP_usr_+0x2f10ac>
 324:	420d0d4a 	andmi	r0, sp, #4736	; 0x1280
 328:	00000ecb 	andeq	r0, r0, fp, asr #29
 32c:	0000001c 	andeq	r0, r0, ip, lsl r0
 330:	000002fc 	strdeq	r0, [r0], -ip
 334:	0000a6b8 			; <UNDEFINED> instruction: 0x0000a6b8
 338:	000001b8 			; <UNDEFINED> instruction: 0x000001b8
 33c:	8b040e42 	blhi	103c4c <__SP_usr_+0xa41cc>
 340:	0b0d4201 	bleq	350b4c <__SP_usr_+0x2f10cc>
 344:	0d0dd402 	cfstrseq	mvf13, [sp, #-8]
 348:	000ecb42 	andeq	ip, lr, r2, asr #22
 34c:	0000001c 	andeq	r0, r0, ip, lsl r0
 350:	000002fc 	strdeq	r0, [r0], -ip
 354:	0000a870 	andeq	sl, r0, r0, ror r8
 358:	000000dc 	ldrdeq	r0, [r0], -ip
 35c:	8b040e42 	blhi	103c6c <__SP_usr_+0xa41ec>
 360:	0b0d4201 	bleq	350b6c <__SP_usr_+0x2f10ec>
 364:	0d0d6602 	stceq	6, cr6, [sp, #-8]
 368:	000ecb42 	andeq	ip, lr, r2, asr #22
 36c:	0000001c 	andeq	r0, r0, ip, lsl r0
 370:	000002fc 	strdeq	r0, [r0], -ip
 374:	0000a94c 	andeq	sl, r0, ip, asr #18
 378:	00000154 	andeq	r0, r0, r4, asr r1
 37c:	8b040e42 	blhi	103c8c <__SP_usr_+0xa420c>
 380:	0b0d4201 	bleq	350b8c <__SP_usr_+0x2f110c>
 384:	0d0da202 	sfmeq	f2, 1, [sp, #-8]
 388:	000ecb42 	andeq	ip, lr, r2, asr #22
 38c:	0000001c 	andeq	r0, r0, ip, lsl r0
 390:	000002fc 	strdeq	r0, [r0], -ip
 394:	0000aaa0 	andeq	sl, r0, r0, lsr #21
 398:	000001a4 	andeq	r0, r0, r4, lsr #3
 39c:	8b080e42 	blhi	203cac <__SP_usr_+0x1a422c>
 3a0:	42018e02 	andmi	r8, r1, #2, 28
 3a4:	02040b0c 	andeq	r0, r4, #12, 22	; 0x3000
 3a8:	080d0ccc 	stmdaeq	sp, {r2, r3, r6, r7, sl, fp}
 3ac:	0000000c 	andeq	r0, r0, ip
 3b0:	ffffffff 			; <UNDEFINED> instruction: 0xffffffff
 3b4:	7c020001 	stcvc	0, cr0, [r2], {1}
 3b8:	000d0c0e 	andeq	r0, sp, lr, lsl #24
 3bc:	0000001c 	andeq	r0, r0, ip, lsl r0
 3c0:	000003ac 	andeq	r0, r0, ip, lsr #7
 3c4:	0000ac44 	andeq	sl, r0, r4, asr #24
 3c8:	00000024 	andeq	r0, r0, r4, lsr #32
 3cc:	8b080e42 	blhi	203cdc <__SP_usr_+0x1a425c>
 3d0:	42018e02 	andmi	r8, r1, #2, 28
 3d4:	4c040b0c 	stcmi	11, cr0, [r4], {12}
 3d8:	00080d0c 	andeq	r0, r8, ip, lsl #26
 3dc:	0000001c 	andeq	r0, r0, ip, lsl r0
 3e0:	000003ac 	andeq	r0, r0, ip, lsr #7
 3e4:	0000ac68 	andeq	sl, r0, r8, ror #24
 3e8:	0000003c 	andeq	r0, r0, ip, lsr r0
 3ec:	8b080e42 	blhi	203cfc <__SP_usr_+0x1a427c>
 3f0:	42018e02 	andmi	r8, r1, #2, 28
 3f4:	58040b0c 	stmdapl	r4, {r2, r3, r8, r9, fp}
 3f8:	00080d0c 	andeq	r0, r8, ip, lsl #26
 3fc:	0000000c 	andeq	r0, r0, ip
 400:	ffffffff 			; <UNDEFINED> instruction: 0xffffffff
 404:	7c020001 	stcvc	0, cr0, [r2], {1}
 408:	000d0c0e 	andeq	r0, sp, lr, lsl #24
 40c:	0000001c 	andeq	r0, r0, ip, lsl r0
 410:	000003fc 	strdeq	r0, [r0], -ip
 414:	0000aca4 	andeq	sl, r0, r4, lsr #25
 418:	00000050 	andeq	r0, r0, r0, asr r0
 41c:	8b080e42 	blhi	203d2c <__SP_usr_+0x1a42ac>
 420:	42018e02 	andmi	r8, r1, #2, 28
 424:	62040b0c 	andvs	r0, r4, #12, 22	; 0x3000
 428:	00080d0c 	andeq	r0, r8, ip, lsl #26
 42c:	0000001c 	andeq	r0, r0, ip, lsl r0
 430:	000003fc 	strdeq	r0, [r0], -ip
 434:	0000acf4 	strdeq	sl, [r0], -r4
 438:	00000078 	andeq	r0, r0, r8, ror r0
 43c:	8b080e42 	blhi	203d4c <__SP_usr_+0x1a42cc>
 440:	42018e02 	andmi	r8, r1, #2, 28
 444:	76040b0c 	strvc	r0, [r4], -ip, lsl #22
 448:	00080d0c 	andeq	r0, r8, ip, lsl #26
 44c:	0000001c 	andeq	r0, r0, ip, lsl r0
 450:	000003fc 	strdeq	r0, [r0], -ip
 454:	0000ad6c 	andeq	sl, r0, ip, ror #26
 458:	00000020 	andeq	r0, r0, r0, lsr #32
 45c:	8b080e42 	blhi	203d6c <__SP_usr_+0x1a42ec>
 460:	42018e02 	andmi	r8, r1, #2, 28
 464:	4a040b0c 	bmi	10309c <__SP_usr_+0xa361c>
 468:	00080d0c 	andeq	r0, r8, ip, lsl #26
 46c:	0000000c 	andeq	r0, r0, ip
 470:	ffffffff 			; <UNDEFINED> instruction: 0xffffffff
 474:	7c020001 	stcvc	0, cr0, [r2], {1}
 478:	000d0c0e 	andeq	r0, sp, lr, lsl #24
 47c:	0000001c 	andeq	r0, r0, ip, lsl r0
 480:	0000046c 	andeq	r0, r0, ip, ror #8
 484:	0000c5cc 	andeq	ip, r0, ip, asr #11
 488:	0000003c 	andeq	r0, r0, ip, lsr r0
 48c:	8b080e42 	blhi	203d9c <__SP_usr_+0x1a431c>
 490:	42018e02 	andmi	r8, r1, #2, 28
 494:	58040b0c 	stmdapl	r4, {r2, r3, r8, r9, fp}
 498:	00080d0c 	andeq	r0, r8, ip, lsl #26
 49c:	0000000c 	andeq	r0, r0, ip
 4a0:	ffffffff 			; <UNDEFINED> instruction: 0xffffffff
 4a4:	7c020001 	stcvc	0, cr0, [r2], {1}
 4a8:	000d0c0e 	andeq	r0, sp, lr, lsl #24
 4ac:	0000001c 	andeq	r0, r0, ip, lsl r0
 4b0:	0000049c 	muleq	r0, ip, r4
 4b4:	0000ad8c 	andeq	sl, r0, ip, lsl #27
 4b8:	00000070 	andeq	r0, r0, r0, ror r0
 4bc:	8b040e42 	blhi	103dcc <__SP_usr_+0xa434c>
 4c0:	0b0d4201 	bleq	350ccc <__SP_usr_+0x2f124c>
 4c4:	420d0d70 	andmi	r0, sp, #112, 26	; 0x1c00
 4c8:	00000ecb 	andeq	r0, r0, fp, asr #29
 4cc:	0000001c 	andeq	r0, r0, ip, lsl r0
 4d0:	0000049c 	muleq	r0, ip, r4
 4d4:	0000adfc 	strdeq	sl, [r0], -ip
 4d8:	0000005c 	andeq	r0, r0, ip, asr r0
 4dc:	8b040e42 	blhi	103dec <__SP_usr_+0xa436c>
 4e0:	0b0d4201 	bleq	350cec <__SP_usr_+0x2f126c>
 4e4:	420d0d66 	andmi	r0, sp, #6528	; 0x1980
 4e8:	00000ecb 	andeq	r0, r0, fp, asr #29
 4ec:	00000018 	andeq	r0, r0, r8, lsl r0
 4f0:	0000049c 	muleq	r0, ip, r4
 4f4:	0000ae58 	andeq	sl, r0, r8, asr lr
 4f8:	00000048 	andeq	r0, r0, r8, asr #32
 4fc:	8b080e42 	blhi	203e0c <__SP_usr_+0x1a438c>
 500:	42018e02 	andmi	r8, r1, #2, 28
 504:	00040b0c 	andeq	r0, r4, ip, lsl #22
 508:	00000018 	andeq	r0, r0, r8, lsl r0
 50c:	0000049c 	muleq	r0, ip, r4
 510:	0000aea0 	andeq	sl, r0, r0, lsr #29
 514:	00000070 	andeq	r0, r0, r0, ror r0
 518:	8b080e42 	blhi	203e28 <__SP_usr_+0x1a43a8>
 51c:	42018e02 	andmi	r8, r1, #2, 28
 520:	00040b0c 	andeq	r0, r4, ip, lsl #22
 524:	00000018 	andeq	r0, r0, r8, lsl r0
 528:	0000049c 	muleq	r0, ip, r4
 52c:	0000af10 	andeq	sl, r0, r0, lsl pc
 530:	00000048 	andeq	r0, r0, r8, asr #32
 534:	8b080e42 	blhi	203e44 <__SP_usr_+0x1a43c4>
 538:	42018e02 	andmi	r8, r1, #2, 28
 53c:	00040b0c 	andeq	r0, r4, ip, lsl #22
 540:	00000018 	andeq	r0, r0, r8, lsl r0
 544:	0000049c 	muleq	r0, ip, r4
 548:	0000af58 	andeq	sl, r0, r8, asr pc
 54c:	00000034 	andeq	r0, r0, r4, lsr r0
 550:	8b080e42 	blhi	203e60 <__SP_usr_+0x1a43e0>
 554:	42018e02 	andmi	r8, r1, #2, 28
 558:	00040b0c 	andeq	r0, r4, ip, lsl #22
 55c:	00000018 	andeq	r0, r0, r8, lsl r0
 560:	0000049c 	muleq	r0, ip, r4
 564:	0000af8c 	andeq	sl, r0, ip, lsl #31
 568:	00000048 	andeq	r0, r0, r8, asr #32
 56c:	8b080e42 	blhi	203e7c <__SP_usr_+0x1a43fc>
 570:	42018e02 	andmi	r8, r1, #2, 28
 574:	00040b0c 	andeq	r0, r4, ip, lsl #22
 578:	00000018 	andeq	r0, r0, r8, lsl r0
 57c:	0000049c 	muleq	r0, ip, r4
 580:	0000afd4 	ldrdeq	sl, [r0], -r4
 584:	00000070 	andeq	r0, r0, r0, ror r0
 588:	8b080e42 	blhi	203e98 <__SP_usr_+0x1a4418>
 58c:	42018e02 	andmi	r8, r1, #2, 28
 590:	00040b0c 	andeq	r0, r4, ip, lsl #22
 594:	0000001c 	andeq	r0, r0, ip, lsl r0
 598:	0000049c 	muleq	r0, ip, r4
 59c:	0000b044 	andeq	fp, r0, r4, asr #32
 5a0:	0000007c 	andeq	r0, r0, ip, ror r0
 5a4:	8b080e42 	blhi	203eb4 <__SP_usr_+0x1a4434>
 5a8:	42018e02 	andmi	r8, r1, #2, 28
 5ac:	78040b0c 	stmdavc	r4, {r2, r3, r8, r9, fp}
 5b0:	00080d0c 	andeq	r0, r8, ip, lsl #26
 5b4:	0000001c 	andeq	r0, r0, ip, lsl r0
 5b8:	0000049c 	muleq	r0, ip, r4
 5bc:	0000b0c0 	andeq	fp, r0, r0, asr #1
 5c0:	0000001c 	andeq	r0, r0, ip, lsl r0
 5c4:	8b040e42 	blhi	103ed4 <__SP_usr_+0xa4454>
 5c8:	0b0d4201 	bleq	350dd4 <__SP_usr_+0x2f1354>
 5cc:	420d0d46 	andmi	r0, sp, #4480	; 0x1180
 5d0:	00000ecb 	andeq	r0, r0, fp, asr #29
 5d4:	0000000c 	andeq	r0, r0, ip
 5d8:	ffffffff 			; <UNDEFINED> instruction: 0xffffffff
 5dc:	7c020001 	stcvc	0, cr0, [r2], {1}
 5e0:	000d0c0e 	andeq	r0, sp, lr, lsl #24
 5e4:	0000001c 	andeq	r0, r0, ip, lsl r0
 5e8:	000005d4 	ldrdeq	r0, [r0], -r4
 5ec:	0000b0dc 	ldrdeq	fp, [r0], -ip
 5f0:	000000a8 	andeq	r0, r0, r8, lsr #1
 5f4:	8b080e42 	blhi	203f04 <__SP_usr_+0x1a4484>
 5f8:	42018e02 	andmi	r8, r1, #2, 28
 5fc:	02040b0c 	andeq	r0, r4, #12, 22	; 0x3000
 600:	080d0c4e 	stmdaeq	sp, {r1, r2, r3, r6, sl, fp}
 604:	0000001c 	andeq	r0, r0, ip, lsl r0
 608:	000005d4 	ldrdeq	r0, [r0], -r4
 60c:	0000b184 	andeq	fp, r0, r4, lsl #3
 610:	000000cc 	andeq	r0, r0, ip, asr #1
 614:	8b080e42 	blhi	203f24 <__SP_usr_+0x1a44a4>
 618:	42018e02 	andmi	r8, r1, #2, 28
 61c:	02040b0c 	andeq	r0, r4, #12, 22	; 0x3000
 620:	080d0c60 	stmdaeq	sp, {r5, r6, sl, fp}
 624:	0000001c 	andeq	r0, r0, ip, lsl r0
 628:	000005d4 	ldrdeq	r0, [r0], -r4
 62c:	0000b250 	andeq	fp, r0, r0, asr r2
 630:	00000140 	andeq	r0, r0, r0, asr #2
 634:	8b080e42 	blhi	203f44 <__SP_usr_+0x1a44c4>
 638:	42018e02 	andmi	r8, r1, #2, 28
 63c:	02040b0c 	andeq	r0, r4, #12, 22	; 0x3000
 640:	080d0c9a 	stmdaeq	sp, {r1, r3, r4, r7, sl, fp}
 644:	0000001c 	andeq	r0, r0, ip, lsl r0
 648:	000005d4 	ldrdeq	r0, [r0], -r4
 64c:	0000b390 	muleq	r0, r0, r3
 650:	000000f4 	strdeq	r0, [r0], -r4
 654:	8b080e42 	blhi	203f64 <__SP_usr_+0x1a44e4>
 658:	42018e02 	andmi	r8, r1, #2, 28
 65c:	02040b0c 	andeq	r0, r4, #12, 22	; 0x3000
 660:	080d0c74 	stmdaeq	sp, {r2, r4, r5, r6, sl, fp}
 664:	0000001c 	andeq	r0, r0, ip, lsl r0
 668:	000005d4 	ldrdeq	r0, [r0], -r4
 66c:	0000b484 	andeq	fp, r0, r4, lsl #9
 670:	00000090 	muleq	r0, r0, r0
 674:	8b080e42 	blhi	203f84 <__SP_usr_+0x1a4504>
 678:	42018e02 	andmi	r8, r1, #2, 28
 67c:	02040b0c 	andeq	r0, r4, #12, 22	; 0x3000
 680:	080d0c42 	stmdaeq	sp, {r1, r6, sl, fp}
 684:	0000001c 	andeq	r0, r0, ip, lsl r0
 688:	000005d4 	ldrdeq	r0, [r0], -r4
 68c:	0000b514 	andeq	fp, r0, r4, lsl r5
 690:	000000a4 	andeq	r0, r0, r4, lsr #1
 694:	8b080e42 	blhi	203fa4 <__SP_usr_+0x1a4524>
 698:	42018e02 	andmi	r8, r1, #2, 28
 69c:	02040b0c 	andeq	r0, r4, #12, 22	; 0x3000
 6a0:	080d0c4c 	stmdaeq	sp, {r2, r3, r6, sl, fp}
 6a4:	0000000c 	andeq	r0, r0, ip
 6a8:	ffffffff 			; <UNDEFINED> instruction: 0xffffffff
 6ac:	7c020001 	stcvc	0, cr0, [r2], {1}
 6b0:	000d0c0e 	andeq	r0, sp, lr, lsl #24
 6b4:	0000001c 	andeq	r0, r0, ip, lsl r0
 6b8:	000006a4 	andeq	r0, r0, r4, lsr #13
 6bc:	0000b5b8 			; <UNDEFINED> instruction: 0x0000b5b8
 6c0:	0000009c 	muleq	r0, ip, r0
 6c4:	8b040e42 	blhi	103fd4 <__SP_usr_+0xa4554>
 6c8:	0b0d4201 	bleq	350ed4 <__SP_usr_+0x2f1454>
 6cc:	0d0d4602 	stceq	6, cr4, [sp, #-8]
 6d0:	000ecb42 	andeq	ip, lr, r2, asr #22
 6d4:	0000001c 	andeq	r0, r0, ip, lsl r0
 6d8:	000006a4 	andeq	r0, r0, r4, lsr #13
 6dc:	0000b654 	andeq	fp, r0, r4, asr r6
 6e0:	000001b8 			; <UNDEFINED> instruction: 0x000001b8
 6e4:	8b080e42 	blhi	203ff4 <__SP_usr_+0x1a4574>
 6e8:	42018e02 	andmi	r8, r1, #2, 28
 6ec:	02040b0c 	andeq	r0, r4, #12, 22	; 0x3000
 6f0:	080d0cd6 	stmdaeq	sp, {r1, r2, r4, r6, r7, sl, fp}
 6f4:	0000001c 	andeq	r0, r0, ip, lsl r0
 6f8:	000006a4 	andeq	r0, r0, r4, lsr #13
 6fc:	0000b80c 	andeq	fp, r0, ip, lsl #16
 700:	00000150 	andeq	r0, r0, r0, asr r1
 704:	8b080e42 	blhi	204014 <__SP_usr_+0x1a4594>
 708:	42018e02 	andmi	r8, r1, #2, 28
 70c:	02040b0c 	andeq	r0, r4, #12, 22	; 0x3000
 710:	080d0ca2 	stmdaeq	sp, {r1, r5, r7, sl, fp}
 714:	0000000c 	andeq	r0, r0, ip
 718:	ffffffff 			; <UNDEFINED> instruction: 0xffffffff
 71c:	7c020001 	stcvc	0, cr0, [r2], {1}
 720:	000d0c0e 	andeq	r0, sp, lr, lsl #24
 724:	0000001c 	andeq	r0, r0, ip, lsl r0
 728:	00000714 	andeq	r0, r0, r4, lsl r7
 72c:	0000b95c 	andeq	fp, r0, ip, asr r9
 730:	00000040 	andeq	r0, r0, r0, asr #32
 734:	8b080e42 	blhi	204044 <__SP_usr_+0x1a45c4>
 738:	42018e02 	andmi	r8, r1, #2, 28
 73c:	5a040b0c 	bpl	103374 <__SP_usr_+0xa38f4>
 740:	00080d0c 	andeq	r0, r8, ip, lsl #26
 744:	0000001c 	andeq	r0, r0, ip, lsl r0
 748:	00000714 	andeq	r0, r0, r4, lsl r7
 74c:	0000b99c 	muleq	r0, ip, r9
 750:	000000d0 	ldrdeq	r0, [r0], -r0	; <UNPREDICTABLE>
 754:	8b080e42 	blhi	204064 <__SP_usr_+0x1a45e4>
 758:	42018e02 	andmi	r8, r1, #2, 28
 75c:	02040b0c 	andeq	r0, r4, #12, 22	; 0x3000
 760:	080d0c62 	stmdaeq	sp, {r1, r5, r6, sl, fp}
 764:	0000001c 	andeq	r0, r0, ip, lsl r0
 768:	00000714 	andeq	r0, r0, r4, lsl r7
 76c:	0000ba6c 	andeq	fp, r0, ip, ror #20
 770:	00000104 	andeq	r0, r0, r4, lsl #2
 774:	8b080e42 	blhi	204084 <__SP_usr_+0x1a4604>
 778:	42018e02 	andmi	r8, r1, #2, 28
 77c:	02040b0c 	andeq	r0, r4, #12, 22	; 0x3000
 780:	080d0c7c 	stmdaeq	sp, {r2, r3, r4, r5, r6, sl, fp}
 784:	0000001c 	andeq	r0, r0, ip, lsl r0
 788:	00000714 	andeq	r0, r0, r4, lsl r7
 78c:	0000bb70 	andeq	fp, r0, r0, ror fp
 790:	000001d0 	ldrdeq	r0, [r0], -r0	; <UNPREDICTABLE>
 794:	8b080e42 	blhi	2040a4 <__SP_usr_+0x1a4624>
 798:	42018e02 	andmi	r8, r1, #2, 28
 79c:	02040b0c 	andeq	r0, r4, #12, 22	; 0x3000
 7a0:	080d0ce2 	stmdaeq	sp, {r1, r5, r6, r7, sl, fp}
 7a4:	0000001c 	andeq	r0, r0, ip, lsl r0
 7a8:	00000714 	andeq	r0, r0, r4, lsl r7
 7ac:	0000bd40 	andeq	fp, r0, r0, asr #26
 7b0:	00000180 	andeq	r0, r0, r0, lsl #3
 7b4:	8b080e42 	blhi	2040c4 <__SP_usr_+0x1a4644>
 7b8:	42018e02 	andmi	r8, r1, #2, 28
 7bc:	02040b0c 	andeq	r0, r4, #12, 22	; 0x3000
 7c0:	080d0cba 	stmdaeq	sp, {r1, r3, r4, r5, r7, sl, fp}
 7c4:	0000001c 	andeq	r0, r0, ip, lsl r0
 7c8:	00000714 	andeq	r0, r0, r4, lsl r7
 7cc:	0000bec0 	andeq	fp, r0, r0, asr #29
 7d0:	000000b4 	strheq	r0, [r0], -r4
 7d4:	8b080e42 	blhi	2040e4 <__SP_usr_+0x1a4664>
 7d8:	42018e02 	andmi	r8, r1, #2, 28
 7dc:	02040b0c 	andeq	r0, r4, #12, 22	; 0x3000
 7e0:	080d0c54 	stmdaeq	sp, {r2, r4, r6, sl, fp}
 7e4:	0000000c 	andeq	r0, r0, ip
 7e8:	ffffffff 			; <UNDEFINED> instruction: 0xffffffff
 7ec:	7c020001 	stcvc	0, cr0, [r2], {1}
 7f0:	000d0c0e 	andeq	r0, sp, lr, lsl #24
 7f4:	00000018 	andeq	r0, r0, r8, lsl r0
 7f8:	000007e4 	andeq	r0, r0, r4, ror #15
 7fc:	000083b4 			; <UNDEFINED> instruction: 0x000083b4
 800:	000000b0 	strheq	r0, [r0], -r0	; <UNPREDICTABLE>
 804:	8b080e42 	blhi	204114 <__SP_usr_+0x1a4694>
 808:	42018e02 	andmi	r8, r1, #2, 28
 80c:	00040b0c 	andeq	r0, r4, ip, lsl #22
 810:	00000018 	andeq	r0, r0, r8, lsl r0
 814:	000007e4 	andeq	r0, r0, r4, ror #15
 818:	00008464 	andeq	r8, r0, r4, ror #8
 81c:	000000b0 	strheq	r0, [r0], -r0	; <UNPREDICTABLE>
 820:	8b080e42 	blhi	204130 <__SP_usr_+0x1a46b0>
 824:	42018e02 	andmi	r8, r1, #2, 28
 828:	00040b0c 	andeq	r0, r4, ip, lsl #22
 82c:	00000018 	andeq	r0, r0, r8, lsl r0
 830:	000007e4 	andeq	r0, r0, r4, ror #15
 834:	00008514 	andeq	r8, r0, r4, lsl r5
 838:	000000b0 	strheq	r0, [r0], -r0	; <UNPREDICTABLE>
 83c:	8b080e42 	blhi	20414c <__SP_usr_+0x1a46cc>
 840:	42018e02 	andmi	r8, r1, #2, 28
 844:	00040b0c 	andeq	r0, r4, ip, lsl #22
 848:	00000018 	andeq	r0, r0, r8, lsl r0
 84c:	000007e4 	andeq	r0, r0, r4, ror #15
 850:	000085c4 	andeq	r8, r0, r4, asr #11
 854:	000000b0 	strheq	r0, [r0], -r0	; <UNPREDICTABLE>
 858:	8b080e42 	blhi	204168 <__SP_usr_+0x1a46e8>
 85c:	42018e02 	andmi	r8, r1, #2, 28
 860:	00040b0c 	andeq	r0, r4, ip, lsl #22
 864:	00000018 	andeq	r0, r0, r8, lsl r0
 868:	000007e4 	andeq	r0, r0, r4, ror #15
 86c:	00008674 	andeq	r8, r0, r4, ror r6
 870:	000000b0 	strheq	r0, [r0], -r0	; <UNPREDICTABLE>
 874:	8b080e42 	blhi	204184 <__SP_usr_+0x1a4704>
 878:	42018e02 	andmi	r8, r1, #2, 28
 87c:	00040b0c 	andeq	r0, r4, ip, lsl #22
 880:	0000001c 	andeq	r0, r0, ip, lsl r0
 884:	000007e4 	andeq	r0, r0, r4, ror #15
 888:	00008724 	andeq	r8, r0, r4, lsr #14
 88c:	00000034 	andeq	r0, r0, r4, lsr r0
 890:	8b040e42 	blhi	1041a0 <__SP_usr_+0xa4720>
 894:	0b0d4201 	bleq	3510a0 <__SP_usr_+0x2f1620>
 898:	420d0d52 	andmi	r0, sp, #5248	; 0x1480
 89c:	00000ecb 	andeq	r0, r0, fp, asr #29
 8a0:	0000001c 	andeq	r0, r0, ip, lsl r0
 8a4:	000007e4 	andeq	r0, r0, r4, ror #15
 8a8:	00008758 	andeq	r8, r0, r8, asr r7
 8ac:	00000024 	andeq	r0, r0, r4, lsr #32
 8b0:	8b040e42 	blhi	1041c0 <__SP_usr_+0xa4740>
 8b4:	0b0d4201 	bleq	3510c0 <__SP_usr_+0x2f1640>
 8b8:	420d0d4a 	andmi	r0, sp, #4736	; 0x1280
 8bc:	00000ecb 	andeq	r0, r0, fp, asr #29
 8c0:	00000018 	andeq	r0, r0, r8, lsl r0
 8c4:	000007e4 	andeq	r0, r0, r4, ror #15
 8c8:	0000877c 	andeq	r8, r0, ip, ror r7
 8cc:	000000b0 	strheq	r0, [r0], -r0	; <UNPREDICTABLE>
 8d0:	8b080e42 	blhi	2041e0 <__SP_usr_+0x1a4760>
 8d4:	42018e02 	andmi	r8, r1, #2, 28
 8d8:	00040b0c 	andeq	r0, r4, ip, lsl #22
 8dc:	00000020 	andeq	r0, r0, r0, lsr #32
 8e0:	000007e4 	andeq	r0, r0, r4, ror #15
 8e4:	0000c7e8 	andeq	ip, r0, r8, ror #15
 8e8:	00000214 	andeq	r0, r0, r4, lsl r2
 8ec:	8b080e42 	blhi	2041fc <__SP_usr_+0x1a477c>
 8f0:	42018e02 	andmi	r8, r1, #2, 28
 8f4:	03040b0c 	movweq	r0, #19212	; 0x4b0c
 8f8:	0d0c0104 	stfeqs	f0, [ip, #-16]
 8fc:	00000008 	andeq	r0, r0, r8
 900:	00000018 	andeq	r0, r0, r8, lsl r0
 904:	000007e4 	andeq	r0, r0, r4, ror #15
 908:	0000c9fc 	strdeq	ip, [r0], -ip	; <UNPREDICTABLE>
 90c:	0000001c 	andeq	r0, r0, ip, lsl r0
 910:	8b080e42 	blhi	204220 <__SP_usr_+0x1a47a0>
 914:	42018e02 	andmi	r8, r1, #2, 28
 918:	00040b0c 	andeq	r0, r4, ip, lsl #22
 91c:	0000001c 	andeq	r0, r0, ip, lsl r0
 920:	000007e4 	andeq	r0, r0, r4, ror #15
 924:	0000bf74 	andeq	fp, r0, r4, ror pc
 928:	00000020 	andeq	r0, r0, r0, lsr #32
 92c:	8b040e42 	blhi	10423c <__SP_usr_+0xa47bc>
 930:	0b0d4201 	bleq	35113c <__SP_usr_+0x2f16bc>
 934:	420d0d48 	andmi	r0, sp, #72, 26	; 0x1200
 938:	00000ecb 	andeq	r0, r0, fp, asr #29
 93c:	0000001c 	andeq	r0, r0, ip, lsl r0
 940:	000007e4 	andeq	r0, r0, r4, ror #15
 944:	0000bf94 	muleq	r0, r4, pc	; <UNPREDICTABLE>
 948:	00000028 	andeq	r0, r0, r8, lsr #32
 94c:	8b080e42 	blhi	20425c <__SP_usr_+0x1a47dc>
 950:	42018e02 	andmi	r8, r1, #2, 28
 954:	4e040b0c 	vmlami.f64	d0, d4, d12
 958:	00080d0c 	andeq	r0, r8, ip, lsl #26
 95c:	0000001c 	andeq	r0, r0, ip, lsl r0
 960:	000007e4 	andeq	r0, r0, r4, ror #15
 964:	0000bfbc 			; <UNDEFINED> instruction: 0x0000bfbc
 968:	00000028 	andeq	r0, r0, r8, lsr #32
 96c:	8b080e42 	blhi	20427c <__SP_usr_+0x1a47fc>
 970:	42018e02 	andmi	r8, r1, #2, 28
 974:	4e040b0c 	vmlami.f64	d0, d4, d12
 978:	00080d0c 	andeq	r0, r8, ip, lsl #26
 97c:	0000000c 	andeq	r0, r0, ip
 980:	ffffffff 			; <UNDEFINED> instruction: 0xffffffff
 984:	7c020001 	stcvc	0, cr0, [r2], {1}
 988:	000d0c0e 	andeq	r0, sp, lr, lsl #24
 98c:	00000018 	andeq	r0, r0, r8, lsl r0
 990:	0000097c 	andeq	r0, r0, ip, ror r9
 994:	0000bfe4 	andeq	fp, r0, r4, ror #31
 998:	00000030 	andeq	r0, r0, r0, lsr r0
 99c:	8b080e42 	blhi	2042ac <__SP_usr_+0x1a482c>
 9a0:	42018e02 	andmi	r8, r1, #2, 28
 9a4:	00040b0c 	andeq	r0, r4, ip, lsl #22
 9a8:	00000018 	andeq	r0, r0, r8, lsl r0
 9ac:	0000097c 	andeq	r0, r0, ip, ror r9
 9b0:	0000c014 	andeq	ip, r0, r4, lsl r0
 9b4:	00000010 	andeq	r0, r0, r0, lsl r0
 9b8:	8b080e42 	blhi	2042c8 <__SP_usr_+0x1a4848>
 9bc:	42018e02 	andmi	r8, r1, #2, 28
 9c0:	00040b0c 	andeq	r0, r4, ip, lsl #22
 9c4:	0000000c 	andeq	r0, r0, ip
 9c8:	ffffffff 			; <UNDEFINED> instruction: 0xffffffff
 9cc:	7c020001 	stcvc	0, cr0, [r2], {1}
 9d0:	000d0c0e 	andeq	r0, sp, lr, lsl #24
 9d4:	0000001c 	andeq	r0, r0, ip, lsl r0
 9d8:	000009c4 	andeq	r0, r0, r4, asr #19
 9dc:	0000c280 	andeq	ip, r0, r0, lsl #5
 9e0:	00000024 	andeq	r0, r0, r4, lsr #32
 9e4:	8b040e42 	blhi	1042f4 <__SP_usr_+0xa4874>
 9e8:	0b0d4201 	bleq	3511f4 <__SP_usr_+0x2f1774>
 9ec:	420d0d4a 	andmi	r0, sp, #4736	; 0x1280
 9f0:	00000ecb 	andeq	r0, r0, fp, asr #29
 9f4:	00000018 	andeq	r0, r0, r8, lsl r0
 9f8:	000009c4 	andeq	r0, r0, r4, asr #19
 9fc:	0000882c 	andeq	r8, r0, ip, lsr #16
 a00:	00000010 	andeq	r0, r0, r0, lsl r0
 a04:	8b080e42 	blhi	204314 <__SP_usr_+0x1a4894>
 a08:	42018e02 	andmi	r8, r1, #2, 28
 a0c:	00040b0c 	andeq	r0, r4, ip, lsl #22
 a10:	0000001c 	andeq	r0, r0, ip, lsl r0
 a14:	000009c4 	andeq	r0, r0, r4, asr #19
 a18:	0000c2a4 	andeq	ip, r0, r4, lsr #5
 a1c:	00000014 	andeq	r0, r0, r4, lsl r0
 a20:	8b040e42 	blhi	104330 <__SP_usr_+0xa48b0>
 a24:	0b0d4201 	bleq	351230 <__SP_usr_+0x2f17b0>
 a28:	420d0d42 	andmi	r0, sp, #4224	; 0x1080
 a2c:	00000ecb 	andeq	r0, r0, fp, asr #29
 a30:	0000001c 	andeq	r0, r0, ip, lsl r0
 a34:	000009c4 	andeq	r0, r0, r4, asr #19
 a38:	0000c2b8 			; <UNDEFINED> instruction: 0x0000c2b8
 a3c:	00000014 	andeq	r0, r0, r4, lsl r0
 a40:	8b040e42 	blhi	104350 <__SP_usr_+0xa48d0>
 a44:	0b0d4201 	bleq	351250 <__SP_usr_+0x2f17d0>
 a48:	420d0d42 	andmi	r0, sp, #4224	; 0x1080
 a4c:	00000ecb 	andeq	r0, r0, fp, asr #29
 a50:	0000001c 	andeq	r0, r0, ip, lsl r0
 a54:	000009c4 	andeq	r0, r0, r4, asr #19
 a58:	0000c2cc 	andeq	ip, r0, ip, asr #5
 a5c:	00000020 	andeq	r0, r0, r0, lsr #32
 a60:	8b040e42 	blhi	104370 <__SP_usr_+0xa48f0>
 a64:	0b0d4201 	bleq	351270 <__SP_usr_+0x2f17f0>
 a68:	420d0d48 	andmi	r0, sp, #72, 26	; 0x1200
 a6c:	00000ecb 	andeq	r0, r0, fp, asr #29
 a70:	0000001c 	andeq	r0, r0, ip, lsl r0
 a74:	000009c4 	andeq	r0, r0, r4, asr #19
 a78:	0000c2ec 	andeq	ip, r0, ip, ror #5
 a7c:	0000002c 	andeq	r0, r0, ip, lsr #32
 a80:	8b040e42 	blhi	104390 <__SP_usr_+0xa4910>
 a84:	0b0d4201 	bleq	351290 <__SP_usr_+0x2f1810>
 a88:	420d0d4e 	andmi	r0, sp, #4992	; 0x1380
 a8c:	00000ecb 	andeq	r0, r0, fp, asr #29
 a90:	0000001c 	andeq	r0, r0, ip, lsl r0
 a94:	000009c4 	andeq	r0, r0, r4, asr #19
 a98:	0000c318 	andeq	ip, r0, r8, lsl r3
 a9c:	000000ac 	andeq	r0, r0, ip, lsr #1
 aa0:	8b040e42 	blhi	1043b0 <__SP_usr_+0xa4930>
 aa4:	0b0d4201 	bleq	3512b0 <__SP_usr_+0x2f1830>
 aa8:	0d0d4e02 	stceq	14, cr4, [sp, #-8]
 aac:	000ecb42 	andeq	ip, lr, r2, asr #22
 ab0:	0000001c 	andeq	r0, r0, ip, lsl r0
 ab4:	000009c4 	andeq	r0, r0, r4, asr #19
 ab8:	0000c3c4 	andeq	ip, r0, r4, asr #7
 abc:	00000030 	andeq	r0, r0, r0, lsr r0
 ac0:	8b040e42 	blhi	1043d0 <__SP_usr_+0xa4950>
 ac4:	0b0d4201 	bleq	3512d0 <__SP_usr_+0x2f1850>
 ac8:	420d0d50 	andmi	r0, sp, #80, 26	; 0x1400
 acc:	00000ecb 	andeq	r0, r0, fp, asr #29
 ad0:	0000000c 	andeq	r0, r0, ip
 ad4:	ffffffff 			; <UNDEFINED> instruction: 0xffffffff
 ad8:	7c020001 	stcvc	0, cr0, [r2], {1}
 adc:	000d0c0e 	andeq	r0, sp, lr, lsl #24
 ae0:	0000001c 	andeq	r0, r0, ip, lsl r0
 ae4:	00000ad0 	ldrdeq	r0, [r0], -r0	; <UNPREDICTABLE>
 ae8:	0000883c 	andeq	r8, r0, ip, lsr r8
 aec:	0000004c 	andeq	r0, r0, ip, asr #32
 af0:	8b040e42 	blhi	104400 <__SP_usr_+0xa4980>
 af4:	0b0d4201 	bleq	351300 <__SP_usr_+0x2f1880>
 af8:	420d0d5e 	andmi	r0, sp, #6016	; 0x1780
 afc:	00000ecb 	andeq	r0, r0, fp, asr #29
 b00:	0000000c 	andeq	r0, r0, ip
 b04:	ffffffff 			; <UNDEFINED> instruction: 0xffffffff
 b08:	7c020001 	stcvc	0, cr0, [r2], {1}
 b0c:	000d0c0e 	andeq	r0, sp, lr, lsl #24
 b10:	00000018 	andeq	r0, r0, r8, lsl r0
 b14:	00000b00 	andeq	r0, r0, r0, lsl #22
 b18:	00008888 	andeq	r8, r0, r8, lsl #17
 b1c:	00000010 	andeq	r0, r0, r0, lsl r0
 b20:	8b080e42 	blhi	204430 <__SP_usr_+0x1a49b0>
 b24:	42018e02 	andmi	r8, r1, #2, 28
 b28:	00040b0c 	andeq	r0, r4, ip, lsl #22
 b2c:	0000000c 	andeq	r0, r0, ip
 b30:	ffffffff 			; <UNDEFINED> instruction: 0xffffffff
 b34:	7c020001 	stcvc	0, cr0, [r2], {1}
 b38:	000d0c0e 	andeq	r0, sp, lr, lsl #24
 b3c:	00000018 	andeq	r0, r0, r8, lsl r0
 b40:	00000b2c 	andeq	r0, r0, ip, lsr #22
 b44:	0000c3f8 	strdeq	ip, [r0], -r8
 b48:	00000030 	andeq	r0, r0, r0, lsr r0
 b4c:	8b080e42 	blhi	20445c <__SP_usr_+0x1a49dc>
 b50:	42018e02 	andmi	r8, r1, #2, 28
 b54:	00040b0c 	andeq	r0, r4, ip, lsl #22
 b58:	00000014 	andeq	r0, r0, r4, lsl r0
 b5c:	00000b2c 	andeq	r0, r0, ip, lsr #22
 b60:	0000c428 	andeq	ip, r0, r8, lsr #8
 b64:	00000024 	andeq	r0, r0, r4, lsr #32
 b68:	8b040e42 	blhi	104478 <__SP_usr_+0xa49f8>
 b6c:	0b0d4201 	bleq	351378 <__SP_usr_+0x2f18f8>
 b70:	0000000c 	andeq	r0, r0, ip
 b74:	ffffffff 			; <UNDEFINED> instruction: 0xffffffff
 b78:	7c020001 	stcvc	0, cr0, [r2], {1}
 b7c:	000d0c0e 	andeq	r0, sp, lr, lsl #24
 b80:	0000001c 	andeq	r0, r0, ip, lsl r0
 b84:	00000b70 	andeq	r0, r0, r0, ror fp
 b88:	00008898 	muleq	r0, r8, r8
 b8c:	00000068 	andeq	r0, r0, r8, rrx
 b90:	8b080e42 	blhi	2044a0 <__SP_usr_+0x1a4a20>
 b94:	42018e02 	andmi	r8, r1, #2, 28
 b98:	6e040b0c 	vmlavs.f64	d0, d4, d12
 b9c:	00080d0c 	andeq	r0, r8, ip, lsl #26
 ba0:	0000000c 	andeq	r0, r0, ip
 ba4:	ffffffff 			; <UNDEFINED> instruction: 0xffffffff
 ba8:	7c020001 	stcvc	0, cr0, [r2], {1}
 bac:	000d0c0e 	andeq	r0, sp, lr, lsl #24
 bb0:	0000001c 	andeq	r0, r0, ip, lsl r0
 bb4:	00000ba0 	andeq	r0, r0, r0, lsr #23
 bb8:	00008900 	andeq	r8, r0, r0, lsl #18
 bbc:	00000014 	andeq	r0, r0, r4, lsl r0
 bc0:	8b040e42 	blhi	1044d0 <__SP_usr_+0xa4a50>
 bc4:	0b0d4201 	bleq	3513d0 <__SP_usr_+0x2f1950>
 bc8:	420d0d42 	andmi	r0, sp, #4224	; 0x1080
 bcc:	00000ecb 	andeq	r0, r0, fp, asr #29
 bd0:	0000001c 	andeq	r0, r0, ip, lsl r0
 bd4:	00000ba0 	andeq	r0, r0, r0, lsr #23
 bd8:	00008914 	andeq	r8, r0, r4, lsl r9
 bdc:	00000014 	andeq	r0, r0, r4, lsl r0
 be0:	8b040e42 	blhi	1044f0 <__SP_usr_+0xa4a70>
 be4:	0b0d4201 	bleq	3513f0 <__SP_usr_+0x2f1970>
 be8:	420d0d42 	andmi	r0, sp, #4224	; 0x1080
 bec:	00000ecb 	andeq	r0, r0, fp, asr #29
 bf0:	0000001c 	andeq	r0, r0, ip, lsl r0
 bf4:	00000ba0 	andeq	r0, r0, r0, lsr #23
 bf8:	00008928 	andeq	r8, r0, r8, lsr #18
 bfc:	00000014 	andeq	r0, r0, r4, lsl r0
 c00:	8b040e42 	blhi	104510 <__SP_usr_+0xa4a90>
 c04:	0b0d4201 	bleq	351410 <__SP_usr_+0x2f1990>
 c08:	420d0d42 	andmi	r0, sp, #4224	; 0x1080
 c0c:	00000ecb 	andeq	r0, r0, fp, asr #29
 c10:	0000001c 	andeq	r0, r0, ip, lsl r0
 c14:	00000ba0 	andeq	r0, r0, r0, lsr #23
 c18:	0000893c 	andeq	r8, r0, ip, lsr r9
 c1c:	0000001c 	andeq	r0, r0, ip, lsl r0
 c20:	8b040e42 	blhi	104530 <__SP_usr_+0xa4ab0>
 c24:	0b0d4201 	bleq	351430 <__SP_usr_+0x2f19b0>
 c28:	420d0d46 	andmi	r0, sp, #4480	; 0x1180
 c2c:	00000ecb 	andeq	r0, r0, fp, asr #29
 c30:	0000001c 	andeq	r0, r0, ip, lsl r0
 c34:	00000ba0 	andeq	r0, r0, r0, lsr #23
 c38:	00008958 	andeq	r8, r0, r8, asr r9
 c3c:	00000014 	andeq	r0, r0, r4, lsl r0
 c40:	8b040e42 	blhi	104550 <__SP_usr_+0xa4ad0>
 c44:	0b0d4201 	bleq	351450 <__SP_usr_+0x2f19d0>
 c48:	420d0d42 	andmi	r0, sp, #4224	; 0x1080
 c4c:	00000ecb 	andeq	r0, r0, fp, asr #29
 c50:	0000001c 	andeq	r0, r0, ip, lsl r0
 c54:	00000ba0 	andeq	r0, r0, r0, lsr #23
 c58:	0000896c 	andeq	r8, r0, ip, ror #18
 c5c:	00000014 	andeq	r0, r0, r4, lsl r0
 c60:	8b040e42 	blhi	104570 <__SP_usr_+0xa4af0>
 c64:	0b0d4201 	bleq	351470 <__SP_usr_+0x2f19f0>
 c68:	420d0d42 	andmi	r0, sp, #4224	; 0x1080
 c6c:	00000ecb 	andeq	r0, r0, fp, asr #29
 c70:	0000001c 	andeq	r0, r0, ip, lsl r0
 c74:	00000ba0 	andeq	r0, r0, r0, lsr #23
 c78:	00008980 	andeq	r8, r0, r0, lsl #19
 c7c:	00000014 	andeq	r0, r0, r4, lsl r0
 c80:	8b040e42 	blhi	104590 <__SP_usr_+0xa4b10>
 c84:	0b0d4201 	bleq	351490 <__SP_usr_+0x2f1a10>
 c88:	420d0d42 	andmi	r0, sp, #4224	; 0x1080
 c8c:	00000ecb 	andeq	r0, r0, fp, asr #29
 c90:	0000001c 	andeq	r0, r0, ip, lsl r0
 c94:	00000ba0 	andeq	r0, r0, r0, lsr #23
 c98:	00008994 	muleq	r0, r4, r9
 c9c:	00000014 	andeq	r0, r0, r4, lsl r0
 ca0:	8b040e42 	blhi	1045b0 <__SP_usr_+0xa4b30>
 ca4:	0b0d4201 	bleq	3514b0 <__SP_usr_+0x2f1a30>
 ca8:	420d0d42 	andmi	r0, sp, #4224	; 0x1080
 cac:	00000ecb 	andeq	r0, r0, fp, asr #29
 cb0:	0000001c 	andeq	r0, r0, ip, lsl r0
 cb4:	00000ba0 	andeq	r0, r0, r0, lsr #23
 cb8:	000089a8 	andeq	r8, r0, r8, lsr #19
 cbc:	00000014 	andeq	r0, r0, r4, lsl r0
 cc0:	8b040e42 	blhi	1045d0 <__SP_usr_+0xa4b50>
 cc4:	0b0d4201 	bleq	3514d0 <__SP_usr_+0x2f1a50>
 cc8:	420d0d42 	andmi	r0, sp, #4224	; 0x1080
 ccc:	00000ecb 	andeq	r0, r0, fp, asr #29
 cd0:	0000001c 	andeq	r0, r0, ip, lsl r0
 cd4:	00000ba0 	andeq	r0, r0, r0, lsr #23
 cd8:	000089bc 			; <UNDEFINED> instruction: 0x000089bc
 cdc:	0000001c 	andeq	r0, r0, ip, lsl r0
 ce0:	8b040e42 	blhi	1045f0 <__SP_usr_+0xa4b70>
 ce4:	0b0d4201 	bleq	3514f0 <__SP_usr_+0x2f1a70>
 ce8:	420d0d46 	andmi	r0, sp, #4480	; 0x1180
 cec:	00000ecb 	andeq	r0, r0, fp, asr #29
 cf0:	0000001c 	andeq	r0, r0, ip, lsl r0
 cf4:	00000ba0 	andeq	r0, r0, r0, lsr #23
 cf8:	000089d8 	ldrdeq	r8, [r0], -r8	; <UNPREDICTABLE>
 cfc:	00000014 	andeq	r0, r0, r4, lsl r0
 d00:	8b040e42 	blhi	104610 <__SP_usr_+0xa4b90>
 d04:	0b0d4201 	bleq	351510 <__SP_usr_+0x2f1a90>
 d08:	420d0d42 	andmi	r0, sp, #4224	; 0x1080
 d0c:	00000ecb 	andeq	r0, r0, fp, asr #29
 d10:	0000001c 	andeq	r0, r0, ip, lsl r0
 d14:	00000ba0 	andeq	r0, r0, r0, lsr #23
 d18:	000089ec 	andeq	r8, r0, ip, ror #19
 d1c:	00000014 	andeq	r0, r0, r4, lsl r0
 d20:	8b040e42 	blhi	104630 <__SP_usr_+0xa4bb0>
 d24:	0b0d4201 	bleq	351530 <__SP_usr_+0x2f1ab0>
 d28:	420d0d42 	andmi	r0, sp, #4224	; 0x1080
 d2c:	00000ecb 	andeq	r0, r0, fp, asr #29
 d30:	0000001c 	andeq	r0, r0, ip, lsl r0
 d34:	00000ba0 	andeq	r0, r0, r0, lsr #23
 d38:	00008a00 	andeq	r8, r0, r0, lsl #20
 d3c:	000001bc 			; <UNDEFINED> instruction: 0x000001bc
 d40:	8b080e42 	blhi	204650 <__SP_usr_+0x1a4bd0>
 d44:	42018e02 	andmi	r8, r1, #2, 28
 d48:	02040b0c 	andeq	r0, r4, #12, 22	; 0x3000
 d4c:	080d0cd8 	stmdaeq	sp, {r3, r4, r6, r7, sl, fp}
 d50:	00000018 	andeq	r0, r0, r8, lsl r0
 d54:	00000ba0 	andeq	r0, r0, r0, lsr #23
 d58:	00008bbc 			; <UNDEFINED> instruction: 0x00008bbc
 d5c:	00000030 	andeq	r0, r0, r0, lsr r0
 d60:	8b080e42 	blhi	204670 <__SP_usr_+0x1a4bf0>
 d64:	42018e02 	andmi	r8, r1, #2, 28
 d68:	00040b0c 	andeq	r0, r4, ip, lsl #22
 d6c:	00000018 	andeq	r0, r0, r8, lsl r0
 d70:	00000ba0 	andeq	r0, r0, r0, lsr #23
 d74:	00008bec 	andeq	r8, r0, ip, ror #23
 d78:	00000018 	andeq	r0, r0, r8, lsl r0
 d7c:	8b080e42 	blhi	20468c <__SP_usr_+0x1a4c0c>
 d80:	42018e02 	andmi	r8, r1, #2, 28
 d84:	00040b0c 	andeq	r0, r4, ip, lsl #22
 d88:	00000018 	andeq	r0, r0, r8, lsl r0
 d8c:	00000ba0 	andeq	r0, r0, r0, lsr #23
 d90:	00008c04 	andeq	r8, r0, r4, lsl #24
 d94:	00000018 	andeq	r0, r0, r8, lsl r0
 d98:	8b080e42 	blhi	2046a8 <__SP_usr_+0x1a4c28>
 d9c:	42018e02 	andmi	r8, r1, #2, 28
 da0:	00040b0c 	andeq	r0, r4, ip, lsl #22
 da4:	00000018 	andeq	r0, r0, r8, lsl r0
 da8:	00000ba0 	andeq	r0, r0, r0, lsr #23
 dac:	00008c1c 	andeq	r8, r0, ip, lsl ip
 db0:	00000018 	andeq	r0, r0, r8, lsl r0
 db4:	8b080e42 	blhi	2046c4 <__SP_usr_+0x1a4c44>
 db8:	42018e02 	andmi	r8, r1, #2, 28
 dbc:	00040b0c 	andeq	r0, r4, ip, lsl #22
 dc0:	0000000c 	andeq	r0, r0, ip
 dc4:	ffffffff 			; <UNDEFINED> instruction: 0xffffffff
 dc8:	7c020001 	stcvc	0, cr0, [r2], {1}
 dcc:	000d0c0e 	andeq	r0, sp, lr, lsl #24
 dd0:	0000001c 	andeq	r0, r0, ip, lsl r0
 dd4:	00000dc0 	andeq	r0, r0, r0, asr #27
 dd8:	00008c34 	andeq	r8, r0, r4, lsr ip
 ddc:	0000001c 	andeq	r0, r0, ip, lsl r0
 de0:	8b040e42 	blhi	1046f0 <__SP_usr_+0xa4c70>
 de4:	0b0d4201 	bleq	3515f0 <__SP_usr_+0x2f1b70>
 de8:	420d0d46 	andmi	r0, sp, #4480	; 0x1180
 dec:	00000ecb 	andeq	r0, r0, fp, asr #29
 df0:	0000001c 	andeq	r0, r0, ip, lsl r0
 df4:	00000dc0 	andeq	r0, r0, r0, asr #27
 df8:	00008c50 	andeq	r8, r0, r0, asr ip
 dfc:	0000017c 	andeq	r0, r0, ip, ror r1
 e00:	8b080e42 	blhi	204710 <__SP_usr_+0x1a4c90>
 e04:	42018e02 	andmi	r8, r1, #2, 28
 e08:	02040b0c 	andeq	r0, r4, #12, 22	; 0x3000
 e0c:	080d0cb8 	stmdaeq	sp, {r3, r4, r5, r7, sl, fp}
 e10:	0000001c 	andeq	r0, r0, ip, lsl r0
 e14:	00000dc0 	andeq	r0, r0, r0, asr #27
 e18:	00008dcc 	andeq	r8, r0, ip, asr #27
 e1c:	00000054 	andeq	r0, r0, r4, asr r0
 e20:	8b040e42 	blhi	104730 <__SP_usr_+0xa4cb0>
 e24:	0b0d4201 	bleq	351630 <__SP_usr_+0x2f1bb0>
 e28:	420d0d62 	andmi	r0, sp, #6272	; 0x1880
 e2c:	00000ecb 	andeq	r0, r0, fp, asr #29
 e30:	0000001c 	andeq	r0, r0, ip, lsl r0
 e34:	00000dc0 	andeq	r0, r0, r0, asr #27
 e38:	00008e20 	andeq	r8, r0, r0, lsr #28
 e3c:	00000050 	andeq	r0, r0, r0, asr r0
 e40:	8b040e42 	blhi	104750 <__SP_usr_+0xa4cd0>
 e44:	0b0d4201 	bleq	351650 <__SP_usr_+0x2f1bd0>
 e48:	420d0d60 	andmi	r0, sp, #96, 26	; 0x1800
 e4c:	00000ecb 	andeq	r0, r0, fp, asr #29
 e50:	0000001c 	andeq	r0, r0, ip, lsl r0
 e54:	00000dc0 	andeq	r0, r0, r0, asr #27
 e58:	00008e70 	andeq	r8, r0, r0, ror lr
 e5c:	00000060 	andeq	r0, r0, r0, rrx
 e60:	8b080e42 	blhi	204770 <__SP_usr_+0x1a4cf0>
 e64:	42018e02 	andmi	r8, r1, #2, 28
 e68:	6a040b0c 	bvs	103aa0 <__SP_usr_+0xa4020>
 e6c:	00080d0c 	andeq	r0, r8, ip, lsl #26
 e70:	0000001c 	andeq	r0, r0, ip, lsl r0
 e74:	00000dc0 	andeq	r0, r0, r0, asr #27
 e78:	00008ed0 	ldrdeq	r8, [r0], -r0
 e7c:	00000040 	andeq	r0, r0, r0, asr #32
 e80:	8b080e42 	blhi	204790 <__SP_usr_+0x1a4d10>
 e84:	42018e02 	andmi	r8, r1, #2, 28
 e88:	5a040b0c 	bpl	103ac0 <__SP_usr_+0xa4040>
 e8c:	00080d0c 	andeq	r0, r8, ip, lsl #26
 e90:	0000001c 	andeq	r0, r0, ip, lsl r0
 e94:	00000dc0 	andeq	r0, r0, r0, asr #27
 e98:	00008f10 	andeq	r8, r0, r0, lsl pc
 e9c:	00000030 	andeq	r0, r0, r0, lsr r0
 ea0:	8b080e42 	blhi	2047b0 <__SP_usr_+0x1a4d30>
 ea4:	42018e02 	andmi	r8, r1, #2, 28
 ea8:	52040b0c 	andpl	r0, r4, #12, 22	; 0x3000
 eac:	00080d0c 	andeq	r0, r8, ip, lsl #26
 eb0:	0000001c 	andeq	r0, r0, ip, lsl r0
 eb4:	00000dc0 	andeq	r0, r0, r0, asr #27
 eb8:	00008f40 	andeq	r8, r0, r0, asr #30
 ebc:	00000024 	andeq	r0, r0, r4, lsr #32
 ec0:	8b040e42 	blhi	1047d0 <__SP_usr_+0xa4d50>
 ec4:	0b0d4201 	bleq	3516d0 <__SP_usr_+0x2f1c50>
 ec8:	420d0d4a 	andmi	r0, sp, #4736	; 0x1280
 ecc:	00000ecb 	andeq	r0, r0, fp, asr #29
 ed0:	0000001c 	andeq	r0, r0, ip, lsl r0
 ed4:	00000dc0 	andeq	r0, r0, r0, asr #27
 ed8:	00008f64 	andeq	r8, r0, r4, ror #30
 edc:	00000094 	muleq	r0, r4, r0
 ee0:	8b080e42 	blhi	2047f0 <__SP_usr_+0x1a4d70>
 ee4:	42018e02 	andmi	r8, r1, #2, 28
 ee8:	02040b0c 	andeq	r0, r4, #12, 22	; 0x3000
 eec:	080d0c44 	stmdaeq	sp, {r2, r6, sl, fp}
 ef0:	0000001c 	andeq	r0, r0, ip, lsl r0
 ef4:	00000dc0 	andeq	r0, r0, r0, asr #27
 ef8:	00008ff8 	strdeq	r8, [r0], -r8	; <UNPREDICTABLE>
 efc:	00000030 	andeq	r0, r0, r0, lsr r0
 f00:	8b080e42 	blhi	204810 <__SP_usr_+0x1a4d90>
 f04:	42018e02 	andmi	r8, r1, #2, 28
 f08:	52040b0c 	andpl	r0, r4, #12, 22	; 0x3000
 f0c:	00080d0c 	andeq	r0, r8, ip, lsl #26
 f10:	00000018 	andeq	r0, r0, r8, lsl r0
 f14:	00000dc0 	andeq	r0, r0, r0, asr #27
 f18:	00009028 	andeq	r9, r0, r8, lsr #32
 f1c:	00000014 	andeq	r0, r0, r4, lsl r0
 f20:	8b080e42 	blhi	204830 <__SP_usr_+0x1a4db0>
 f24:	42018e02 	andmi	r8, r1, #2, 28
 f28:	00040b0c 	andeq	r0, r4, ip, lsl #22
